
build_gd32/main.elf:     file format elf32-littlearm


Disassembly of section .vectors:

08000000 <__gVectors>:
 8000000:	20001000 	andcs	r1, r0, r0
 8000004:	080001f1 	stmdaeq	r0, {r0, r4, r5, r6, r7, r8}
 8000008:	08000235 	stmdaeq	r0, {r0, r2, r4, r5, r9}
 800000c:	08000237 	stmdaeq	r0, {r0, r1, r2, r4, r5, r9}
 8000010:	08000235 	stmdaeq	r0, {r0, r2, r4, r5, r9}
 8000014:	08000235 	stmdaeq	r0, {r0, r2, r4, r5, r9}
 8000018:	08000235 	stmdaeq	r0, {r0, r2, r4, r5, r9}
	...
 800002c:	08000235 	stmdaeq	r0, {r0, r2, r4, r5, r9}
 8000030:	08000235 	stmdaeq	r0, {r0, r2, r4, r5, r9}
 8000034:	00000000 	andeq	r0, r0, r0
 8000038:	08000235 	stmdaeq	r0, {r0, r2, r4, r5, r9}
 800003c:	080019f1 	stmdaeq	r0, {r0, r4, r5, r6, r7, r8, fp, ip}
 8000040:	08000235 	stmdaeq	r0, {r0, r2, r4, r5, r9}
 8000044:	08000235 	stmdaeq	r0, {r0, r2, r4, r5, r9}
 8000048:	08000235 	stmdaeq	r0, {r0, r2, r4, r5, r9}
 800004c:	08000235 	stmdaeq	r0, {r0, r2, r4, r5, r9}
 8000050:	08000235 	stmdaeq	r0, {r0, r2, r4, r5, r9}
 8000054:	08000235 	stmdaeq	r0, {r0, r2, r4, r5, r9}
 8000058:	08000235 	stmdaeq	r0, {r0, r2, r4, r5, r9}
 800005c:	08000235 	stmdaeq	r0, {r0, r2, r4, r5, r9}
 8000060:	08000235 	stmdaeq	r0, {r0, r2, r4, r5, r9}
 8000064:	08000235 	stmdaeq	r0, {r0, r2, r4, r5, r9}
 8000068:	08000235 	stmdaeq	r0, {r0, r2, r4, r5, r9}
 800006c:	08000235 	stmdaeq	r0, {r0, r2, r4, r5, r9}
 8000070:	08000235 	stmdaeq	r0, {r0, r2, r4, r5, r9}
 8000074:	08000235 	stmdaeq	r0, {r0, r2, r4, r5, r9}
 8000078:	08000235 	stmdaeq	r0, {r0, r2, r4, r5, r9}
 800007c:	08000235 	stmdaeq	r0, {r0, r2, r4, r5, r9}
 8000080:	08000235 	stmdaeq	r0, {r0, r2, r4, r5, r9}
 8000084:	08000235 	stmdaeq	r0, {r0, r2, r4, r5, r9}
 8000088:	08000235 	stmdaeq	r0, {r0, r2, r4, r5, r9}
 800008c:	08000235 	stmdaeq	r0, {r0, r2, r4, r5, r9}
 8000090:	08000235 	stmdaeq	r0, {r0, r2, r4, r5, r9}
 8000094:	08000235 	stmdaeq	r0, {r0, r2, r4, r5, r9}
 8000098:	08000235 	stmdaeq	r0, {r0, r2, r4, r5, r9}
 800009c:	08000235 	stmdaeq	r0, {r0, r2, r4, r5, r9}
 80000a0:	08000235 	stmdaeq	r0, {r0, r2, r4, r5, r9}
 80000a4:	08000235 	stmdaeq	r0, {r0, r2, r4, r5, r9}
 80000a8:	08000235 	stmdaeq	r0, {r0, r2, r4, r5, r9}
 80000ac:	08000235 	stmdaeq	r0, {r0, r2, r4, r5, r9}
 80000b0:	08000235 	stmdaeq	r0, {r0, r2, r4, r5, r9}
 80000b4:	08000235 	stmdaeq	r0, {r0, r2, r4, r5, r9}
 80000b8:	08000235 	stmdaeq	r0, {r0, r2, r4, r5, r9}
 80000bc:	08000235 	stmdaeq	r0, {r0, r2, r4, r5, r9}
 80000c0:	08000235 	stmdaeq	r0, {r0, r2, r4, r5, r9}
 80000c4:	08000235 	stmdaeq	r0, {r0, r2, r4, r5, r9}
 80000c8:	08000235 	stmdaeq	r0, {r0, r2, r4, r5, r9}
 80000cc:	08000235 	stmdaeq	r0, {r0, r2, r4, r5, r9}
 80000d0:	08000235 	stmdaeq	r0, {r0, r2, r4, r5, r9}
 80000d4:	00000000 	andeq	r0, r0, r0
 80000d8:	08000235 	stmdaeq	r0, {r0, r2, r4, r5, r9}
 80000dc:	08000235 	stmdaeq	r0, {r0, r2, r4, r5, r9}
 80000e0:	08000235 	stmdaeq	r0, {r0, r2, r4, r5, r9}
 80000e4:	08000235 	stmdaeq	r0, {r0, r2, r4, r5, r9}
 80000e8:	08000235 	stmdaeq	r0, {r0, r2, r4, r5, r9}
 80000ec:	08000235 	stmdaeq	r0, {r0, r2, r4, r5, r9}
 80000f0:	08000235 	stmdaeq	r0, {r0, r2, r4, r5, r9}
 80000f4:	08000235 	stmdaeq	r0, {r0, r2, r4, r5, r9}
 80000f8:	08000235 	stmdaeq	r0, {r0, r2, r4, r5, r9}
 80000fc:	08000235 	stmdaeq	r0, {r0, r2, r4, r5, r9}
 8000100:	08000235 	stmdaeq	r0, {r0, r2, r4, r5, r9}
 8000104:	08000235 	stmdaeq	r0, {r0, r2, r4, r5, r9}
 8000108:	08000235 	stmdaeq	r0, {r0, r2, r4, r5, r9}
 800010c:	08000235 	stmdaeq	r0, {r0, r2, r4, r5, r9}
 8000110:	08000235 	stmdaeq	r0, {r0, r2, r4, r5, r9}
 8000114:	08000235 	stmdaeq	r0, {r0, r2, r4, r5, r9}
 8000118:	08000235 	stmdaeq	r0, {r0, r2, r4, r5, r9}
 800011c:	08000235 	stmdaeq	r0, {r0, r2, r4, r5, r9}
 8000120:	08000235 	stmdaeq	r0, {r0, r2, r4, r5, r9}
 8000124:	08000235 	stmdaeq	r0, {r0, r2, r4, r5, r9}
 8000128:	08000235 	stmdaeq	r0, {r0, r2, r4, r5, r9}
 800012c:	08000235 	stmdaeq	r0, {r0, r2, r4, r5, r9}

Disassembly of section .text:

08000130 <console_init>:
 8000130:	b508      	push	{r3, lr}
 8000132:	f001 fe51 	bl	8001dd8 <uart0_init>
 8000136:	4804      	ldr	r0, [pc, #16]	; (8000148 <console_init+0x18>)
 8000138:	f001 fc2d 	bl	8001996 <uart0_puts>
 800013c:	e8bd 4008 	ldmia.w	sp!, {r3, lr}
 8000140:	4802      	ldr	r0, [pc, #8]	; (800014c <console_init+0x1c>)
 8000142:	f001 bc28 	b.w	8001996 <uart0_puts>
 8000146:	bf00      	nop
 8000148:	08002a30 	stmdaeq	r0, {r4, r5, r9, fp, sp}
 800014c:	08002a36 	stmdaeq	r0, {r1, r2, r4, r5, r9, fp, sp}

08000150 <__aeabi_d2f>:
 8000150:	ea4f 0241 	mov.w	r2, r1, lsl #1
 8000154:	f1b2 43e0 	subs.w	r3, r2, #1879048192	; 0x70000000
 8000158:	bf24      	itt	cs
 800015a:	f5b3 1c00 	subscs.w	ip, r3, #2097152	; 0x200000
 800015e:	f1dc 5cfe 	rsbscs	ip, ip, #532676608	; 0x1fc00000
 8000162:	d90d      	bls.n	8000180 <__aeabi_d2f+0x30>
 8000164:	f001 4c00 	and.w	ip, r1, #2147483648	; 0x80000000
 8000168:	ea4f 02c0 	mov.w	r2, r0, lsl #3
 800016c:	ea4c 7050 	orr.w	r0, ip, r0, lsr #29
 8000170:	f1b2 4f00 	cmp.w	r2, #2147483648	; 0x80000000
 8000174:	eb40 0083 	adc.w	r0, r0, r3, lsl #2
 8000178:	bf08      	it	eq
 800017a:	f020 0001 	biceq.w	r0, r0, #1
 800017e:	4770      	bx	lr
 8000180:	f011 4f80 	tst.w	r1, #1073741824	; 0x40000000
 8000184:	d121      	bne.n	80001ca <__aeabi_d2f+0x7a>
 8000186:	f113 7238 	adds.w	r2, r3, #48234496	; 0x2e00000
 800018a:	bfbc      	itt	lt
 800018c:	f001 4000 	andlt.w	r0, r1, #2147483648	; 0x80000000
 8000190:	4770      	bxlt	lr
 8000192:	f441 1180 	orr.w	r1, r1, #1048576	; 0x100000
 8000196:	ea4f 5252 	mov.w	r2, r2, lsr #21
 800019a:	f1c2 0218 	rsb	r2, r2, #24
 800019e:	f1c2 0c20 	rsb	ip, r2, #32
 80001a2:	fa10 f30c 	lsls.w	r3, r0, ip
 80001a6:	fa20 f002 	lsr.w	r0, r0, r2
 80001aa:	bf18      	it	ne
 80001ac:	f040 0001 	orrne.w	r0, r0, #1
 80001b0:	ea4f 23c1 	mov.w	r3, r1, lsl #11
 80001b4:	ea4f 23d3 	mov.w	r3, r3, lsr #11
 80001b8:	fa03 fc0c 	lsl.w	ip, r3, ip
 80001bc:	ea40 000c 	orr.w	r0, r0, ip
 80001c0:	fa23 f302 	lsr.w	r3, r3, r2
 80001c4:	ea4f 0343 	mov.w	r3, r3, lsl #1
 80001c8:	e7cc      	b.n	8000164 <__aeabi_d2f+0x14>
 80001ca:	ea7f 5362 	mvns.w	r3, r2, asr #21
 80001ce:	d107      	bne.n	80001e0 <__aeabi_d2f+0x90>
 80001d0:	ea50 3301 	orrs.w	r3, r0, r1, lsl #12
 80001d4:	bf1e      	ittt	ne
 80001d6:	f04f 40fe 	movne.w	r0, #2130706432	; 0x7f000000
 80001da:	f440 0040 	orrne.w	r0, r0, #12582912	; 0xc00000
 80001de:	4770      	bxne	lr
 80001e0:	f001 4000 	and.w	r0, r1, #2147483648	; 0x80000000
 80001e4:	f040 40fe 	orr.w	r0, r0, #2130706432	; 0x7f000000
 80001e8:	f440 0000 	orr.w	r0, r0, #8388608	; 0x800000
 80001ec:	4770      	bx	lr
 80001ee:	bf00      	nop

080001f0 <Reset_Handler>:
 80001f0:	2100      	movs	r1, #0
 80001f2:	e003      	b.n	80001fc <DataInit>

080001f4 <CopyData>:
 80001f4:	4b0a      	ldr	r3, [pc, #40]	; (8000220 <Zerobss+0x10>)
 80001f6:	585b      	ldr	r3, [r3, r1]
 80001f8:	5043      	str	r3, [r0, r1]
 80001fa:	3104      	adds	r1, #4

080001fc <DataInit>:
 80001fc:	4809      	ldr	r0, [pc, #36]	; (8000224 <Zerobss+0x14>)
 80001fe:	4b0a      	ldr	r3, [pc, #40]	; (8000228 <Zerobss+0x18>)
 8000200:	1842      	adds	r2, r0, r1
 8000202:	429a      	cmp	r2, r3
 8000204:	d3f6      	bcc.n	80001f4 <CopyData>
 8000206:	4a09      	ldr	r2, [pc, #36]	; (800022c <Zerobss+0x1c>)
 8000208:	e002      	b.n	8000210 <Zerobss>

0800020a <FillZerobss>:
 800020a:	2300      	movs	r3, #0
 800020c:	f842 3b04 	str.w	r3, [r2], #4

08000210 <Zerobss>:
 8000210:	4b07      	ldr	r3, [pc, #28]	; (8000230 <Zerobss+0x20>)
 8000212:	429a      	cmp	r2, r3
 8000214:	d3f9      	bcc.n	800020a <FillZerobss>
 8000216:	f001 f917 	bl	8001448 <SystemInit>
 800021a:	f000 f8a1 	bl	8000360 <main>
 800021e:	4770      	bx	lr
 8000220:	08002ba4 	stmdaeq	r0, {r2, r5, r7, r8, r9, fp, sp}
 8000224:	20001000 	andcs	r1, r0, r0
 8000228:	20001070 	andcs	r1, r0, r0, ror r0
 800022c:	20001070 	andcs	r1, r0, r0, ror r0
 8000230:	2000111c 	andcs	r1, r0, ip, lsl r1

08000234 <ADC0_1_IRQHandler>:
 8000234:	e7fe      	b.n	8000234 <ADC0_1_IRQHandler>

08000236 <HardFault_Handler>:
 8000236:	f01e 0f04 	tst.w	lr, #4
 800023a:	bf0c      	ite	eq
 800023c:	f3ef 8008 	mrseq	r0, MSP
 8000240:	f3ef 8009 	mrsne	r0, PSP
 8000244:	4671      	mov	r1, lr
 8000246:	f000 b801 	b.w	800024c <hardfault_handler>
 800024a:	4770      	bx	lr

0800024c <hardfault_handler>:
 800024c:	e92d 4ff0 	stmdb	sp!, {r4, r5, r6, r7, r8, r9, sl, fp, lr}
 8000250:	4d2f      	ldr	r5, [pc, #188]	; (8000310 <hardfault_handler+0xc4>)
 8000252:	b087      	sub	sp, #28
 8000254:	6bab      	ldr	r3, [r5, #56]	; 0x38
 8000256:	9301      	str	r3, [sp, #4]
 8000258:	6b6b      	ldr	r3, [r5, #52]	; 0x34
 800025a:	9302      	str	r3, [sp, #8]
 800025c:	e9d0 9303 	ldrd	r9, r3, [r0, #12]
 8000260:	6aac      	ldr	r4, [r5, #40]	; 0x28
 8000262:	9303      	str	r3, [sp, #12]
 8000264:	e9d0 ba01 	ldrd	fp, sl, [r0, #4]
 8000268:	69c3      	ldr	r3, [r0, #28]
 800026a:	9304      	str	r3, [sp, #16]
 800026c:	e9d0 7605 	ldrd	r7, r6, [r0, #20]
 8000270:	4688      	mov	r8, r1
 8000272:	6801      	ldr	r1, [r0, #0]
 8000274:	4827      	ldr	r0, [pc, #156]	; (8000314 <hardfault_handler+0xc8>)
 8000276:	9105      	str	r1, [sp, #20]
 8000278:	f000 fbf4 	bl	8000a64 <printf>
 800027c:	4826      	ldr	r0, [pc, #152]	; (8000318 <hardfault_handler+0xcc>)
 800027e:	f000 fbf1 	bl	8000a64 <printf>
 8000282:	9905      	ldr	r1, [sp, #20]
 8000284:	4825      	ldr	r0, [pc, #148]	; (800031c <hardfault_handler+0xd0>)
 8000286:	f000 fbed 	bl	8000a64 <printf>
 800028a:	4659      	mov	r1, fp
 800028c:	4824      	ldr	r0, [pc, #144]	; (8000320 <hardfault_handler+0xd4>)
 800028e:	f000 fbe9 	bl	8000a64 <printf>
 8000292:	4651      	mov	r1, sl
 8000294:	4823      	ldr	r0, [pc, #140]	; (8000324 <hardfault_handler+0xd8>)
 8000296:	f000 fbe5 	bl	8000a64 <printf>
 800029a:	4649      	mov	r1, r9
 800029c:	4822      	ldr	r0, [pc, #136]	; (8000328 <hardfault_handler+0xdc>)
 800029e:	f000 fbe1 	bl	8000a64 <printf>
 80002a2:	9903      	ldr	r1, [sp, #12]
 80002a4:	4821      	ldr	r0, [pc, #132]	; (800032c <hardfault_handler+0xe0>)
 80002a6:	f000 fbdd 	bl	8000a64 <printf>
 80002aa:	4639      	mov	r1, r7
 80002ac:	4820      	ldr	r0, [pc, #128]	; (8000330 <hardfault_handler+0xe4>)
 80002ae:	f000 fbd9 	bl	8000a64 <printf>
 80002b2:	4631      	mov	r1, r6
 80002b4:	481f      	ldr	r0, [pc, #124]	; (8000334 <hardfault_handler+0xe8>)
 80002b6:	f000 fbd5 	bl	8000a64 <printf>
 80002ba:	9904      	ldr	r1, [sp, #16]
 80002bc:	481e      	ldr	r0, [pc, #120]	; (8000338 <hardfault_handler+0xec>)
 80002be:	f000 fbd1 	bl	8000a64 <printf>
 80002c2:	481e      	ldr	r0, [pc, #120]	; (800033c <hardfault_handler+0xf0>)
 80002c4:	f000 fbce 	bl	8000a64 <printf>
 80002c8:	4621      	mov	r1, r4
 80002ca:	481d      	ldr	r0, [pc, #116]	; (8000340 <hardfault_handler+0xf4>)
 80002cc:	f000 fbca 	bl	8000a64 <printf>
 80002d0:	6ae9      	ldr	r1, [r5, #44]	; 0x2c
 80002d2:	481c      	ldr	r0, [pc, #112]	; (8000344 <hardfault_handler+0xf8>)
 80002d4:	f000 fbc6 	bl	8000a64 <printf>
 80002d8:	6b29      	ldr	r1, [r5, #48]	; 0x30
 80002da:	481b      	ldr	r0, [pc, #108]	; (8000348 <hardfault_handler+0xfc>)
 80002dc:	f000 fbc2 	bl	8000a64 <printf>
 80002e0:	6be9      	ldr	r1, [r5, #60]	; 0x3c
 80002e2:	481a      	ldr	r0, [pc, #104]	; (800034c <hardfault_handler+0x100>)
 80002e4:	f000 fbbe 	bl	8000a64 <printf>
 80002e8:	0622      	lsls	r2, r4, #24
 80002ea:	d503      	bpl.n	80002f4 <hardfault_handler+0xa8>
 80002ec:	9902      	ldr	r1, [sp, #8]
 80002ee:	4818      	ldr	r0, [pc, #96]	; (8000350 <hardfault_handler+0x104>)
 80002f0:	f000 fbb8 	bl	8000a64 <printf>
 80002f4:	0423      	lsls	r3, r4, #16
 80002f6:	d503      	bpl.n	8000300 <hardfault_handler+0xb4>
 80002f8:	9901      	ldr	r1, [sp, #4]
 80002fa:	4816      	ldr	r0, [pc, #88]	; (8000354 <hardfault_handler+0x108>)
 80002fc:	f000 fbb2 	bl	8000a64 <printf>
 8000300:	4815      	ldr	r0, [pc, #84]	; (8000358 <hardfault_handler+0x10c>)
 8000302:	f000 fbaf 	bl	8000a64 <printf>
 8000306:	4815      	ldr	r0, [pc, #84]	; (800035c <hardfault_handler+0x110>)
 8000308:	4641      	mov	r1, r8
 800030a:	f000 fbab 	bl	8000a64 <printf>
 800030e:	e7fe      	b.n	800030e <hardfault_handler+0xc2>
 8000310:	e000ed00 	and	lr, r0, r0, lsl #26
 8000314:	08002508 	stmdaeq	r0, {r3, r8, sl, sp}
 8000318:	08002515 	stmdaeq	r0, {r0, r2, r4, r8, sl, sp}
 800031c:	08002525 	stmdaeq	r0, {r0, r2, r5, r8, sl, sp}
 8000320:	08002530 	stmdaeq	r0, {r4, r5, r8, sl, sp}
 8000324:	0800253b 	stmdaeq	r0, {r0, r1, r3, r4, r5, r8, sl, sp}
 8000328:	08002546 	stmdaeq	r0, {r1, r2, r6, r8, sl, sp}
 800032c:	08002551 	stmdaeq	r0, {r0, r4, r6, r8, sl, sp}
 8000330:	0800255c 	stmdaeq	r0, {r2, r3, r4, r6, r8, sl, sp}
 8000334:	08002567 	stmdaeq	r0, {r0, r1, r2, r5, r6, r8, sl, sp}
 8000338:	08002572 	stmdaeq	r0, {r1, r4, r5, r6, r8, sl, sp}
 800033c:	0800257d 	stmdaeq	r0, {r0, r2, r3, r4, r5, r6, r8, sl, sp}
 8000340:	08002589 	stmdaeq	r0, {r0, r3, r7, r8, sl, sp}
 8000344:	08002595 	stmdaeq	r0, {r0, r2, r4, r7, r8, sl, sp}
 8000348:	080025a1 	stmdaeq	r0, {r0, r5, r7, r8, sl, sp}
 800034c:	080025ad 	stmdaeq	r0, {r0, r2, r3, r5, r7, r8, sl, sp}
 8000350:	080025b9 	stmdaeq	r0, {r0, r3, r4, r5, r7, r8, sl, sp}
 8000354:	080025c6 	stmdaeq	r0, {r1, r2, r6, r7, r8, sl, sp}
 8000358:	080025d2 	stmdaeq	r0, {r1, r4, r6, r7, r8, sl, sp}
 800035c:	080025da 	stmdaeq	r0, {r1, r3, r4, r6, r7, r8, sl, sp}

08000360 <main>:
 8000360:	e92d 47f0 	stmdb	sp!, {r4, r5, r6, r7, r8, r9, sl, lr}
 8000364:	b092      	sub	sp, #72	; 0x48
 8000366:	a808      	add	r0, sp, #32
 8000368:	f000 feea 	bl	8001140 <Hardware::Hardware()>
 800036c:	4668      	mov	r0, sp
 800036e:	f000 fcb1 	bl	8000cd4 <Display::Display()>
 8000372:	9807      	ldr	r0, [sp, #28]
 8000374:	b110      	cbz	r0, 800037c <main+0x1c>
 8000376:	6803      	ldr	r3, [r0, #0]
 8000378:	68db      	ldr	r3, [r3, #12]
 800037a:	4798      	blx	r3
 800037c:	9807      	ldr	r0, [sp, #28]
 800037e:	b118      	cbz	r0, 8000388 <main+0x28>
 8000380:	6803      	ldr	r3, [r0, #0]
 8000382:	4949      	ldr	r1, [pc, #292]	; (80004a8 <main+0x148>)
 8000384:	699b      	ldr	r3, [r3, #24]
 8000386:	4798      	blx	r3
 8000388:	4848      	ldr	r0, [pc, #288]	; (80004ac <main+0x14c>)
 800038a:	4c49      	ldr	r4, [pc, #292]	; (80004b0 <main+0x150>)
 800038c:	4d49      	ldr	r5, [pc, #292]	; (80004b4 <main+0x154>)
 800038e:	f8df 914c 	ldr.w	r9, [pc, #332]	; 80004dc <main+0x17c>
 8000392:	f8df a140 	ldr.w	sl, [pc, #320]	; 80004d4 <main+0x174>
 8000396:	f000 fb74 	bl	8000a82 <puts>
 800039a:	4847      	ldr	r0, [pc, #284]	; (80004b8 <main+0x158>)
 800039c:	f000 fb71 	bl	8000a82 <puts>
 80003a0:	f240 6002 	movw	r0, #1538	; 0x602
 80003a4:	f001 f988 	bl	80016b8 <rcu_periph_clock_enable>
 80003a8:	f240 6003 	movw	r0, #1539	; 0x603
 80003ac:	f001 f984 	bl	80016b8 <rcu_periph_clock_enable>
 80003b0:	f240 6004 	movw	r0, #1540	; 0x604
 80003b4:	f001 f980 	bl	80016b8 <rcu_periph_clock_enable>
 80003b8:	f240 6005 	movw	r0, #1541	; 0x605
 80003bc:	f001 f97c 	bl	80016b8 <rcu_periph_clock_enable>
 80003c0:	f44f 60c0 	mov.w	r0, #1536	; 0x600
 80003c4:	f001 f978 	bl	80016b8 <rcu_periph_clock_enable>
 80003c8:	483c      	ldr	r0, [pc, #240]	; (80004bc <main+0x15c>)
 80003ca:	f000 fb5a 	bl	8000a82 <puts>
 80003ce:	483c      	ldr	r0, [pc, #240]	; (80004c0 <main+0x160>)
 80003d0:	f64e 0370 	movw	r3, #59504	; 0xe870
 80003d4:	2203      	movs	r2, #3
 80003d6:	2110      	movs	r1, #16
 80003d8:	f001 f8e6 	bl	80015a8 <gpio_init>
 80003dc:	4839      	ldr	r0, [pc, #228]	; (80004c4 <main+0x164>)
 80003de:	f248 4338 	movw	r3, #33848	; 0x8438
 80003e2:	2203      	movs	r2, #3
 80003e4:	2110      	movs	r1, #16
 80003e6:	f001 f8df 	bl	80015a8 <gpio_init>
 80003ea:	f641 43cd 	movw	r3, #7373	; 0x1ccd
 80003ee:	2203      	movs	r2, #3
 80003f0:	2110      	movs	r1, #16
 80003f2:	4620      	mov	r0, r4
 80003f4:	f001 f8d8 	bl	80015a8 <gpio_init>
 80003f8:	2203      	movs	r2, #3
 80003fa:	2304      	movs	r3, #4
 80003fc:	2110      	movs	r1, #16
 80003fe:	4832      	ldr	r0, [pc, #200]	; (80004c8 <main+0x168>)
 8000400:	f001 f8d2 	bl	80015a8 <gpio_init>
 8000404:	4831      	ldr	r0, [pc, #196]	; (80004cc <main+0x16c>)
 8000406:	f000 fb3c 	bl	8000a82 <puts>
 800040a:	2101      	movs	r1, #1
 800040c:	4830      	ldr	r0, [pc, #192]	; (80004d0 <main+0x170>)
 800040e:	f001 f91b 	bl	8001648 <gpio_pin_remap_config>
 8000412:	4830      	ldr	r0, [pc, #192]	; (80004d4 <main+0x174>)
 8000414:	f000 fb35 	bl	8000a82 <puts>
 8000418:	f64e 0370 	movw	r3, #59504	; 0xe870
 800041c:	f8c5 3810 	str.w	r3, [r5, #2064]	; 0x810
 8000420:	f248 4338 	movw	r3, #33848	; 0x8438
 8000424:	f8c5 3c10 	str.w	r3, [r5, #3088]	; 0xc10
 8000428:	f641 43cd 	movw	r3, #7373	; 0x1ccd
 800042c:	6123      	str	r3, [r4, #16]
 800042e:	2304      	movs	r3, #4
 8000430:	f8c4 3410 	str.w	r3, [r4, #1040]	; 0x410
 8000434:	4828      	ldr	r0, [pc, #160]	; (80004d8 <main+0x178>)
 8000436:	f000 fb24 	bl	8000a82 <puts>
 800043a:	2000      	movs	r0, #0
 800043c:	f000 fb88 	bl	8000b50 <time>
 8000440:	f04f 0800 	mov.w	r8, #0
 8000444:	4607      	mov	r7, r0
 8000446:	2000      	movs	r0, #0
 8000448:	f000 fb82 	bl	8000b50 <time>
 800044c:	4287      	cmp	r7, r0
 800044e:	4606      	mov	r6, r0
 8000450:	d0f9      	beq.n	8000446 <main+0xe6>
 8000452:	f64e 0770 	movw	r7, #59504	; 0xe870
 8000456:	f1b8 0f00 	cmp.w	r8, #0
 800045a:	d112      	bne.n	8000482 <main+0x122>
 800045c:	4650      	mov	r0, sl
 800045e:	f000 fb10 	bl	8000a82 <puts>
 8000462:	f248 4338 	movw	r3, #33848	; 0x8438
 8000466:	f8c5 7810 	str.w	r7, [r5, #2064]	; 0x810
 800046a:	f8c5 3c10 	str.w	r3, [r5, #3088]	; 0xc10
 800046e:	f641 43cd 	movw	r3, #7373	; 0x1ccd
 8000472:	6123      	str	r3, [r4, #16]
 8000474:	2304      	movs	r3, #4
 8000476:	f8c4 3410 	str.w	r3, [r4, #1040]	; 0x410
 800047a:	f04f 0801 	mov.w	r8, #1
 800047e:	4637      	mov	r7, r6
 8000480:	e7e1      	b.n	8000446 <main+0xe6>
 8000482:	4648      	mov	r0, r9
 8000484:	f000 fafd 	bl	8000a82 <puts>
 8000488:	f248 4338 	movw	r3, #33848	; 0x8438
 800048c:	f8c5 7814 	str.w	r7, [r5, #2068]	; 0x814
 8000490:	f8c5 3c14 	str.w	r3, [r5, #3092]	; 0xc14
 8000494:	f641 43cd 	movw	r3, #7373	; 0x1ccd
 8000498:	6163      	str	r3, [r4, #20]
 800049a:	2304      	movs	r3, #4
 800049c:	f8c4 3414 	str.w	r3, [r4, #1044]	; 0x414
 80004a0:	f04f 0800 	mov.w	r8, #0
 80004a4:	e7eb      	b.n	800047e <main+0x11e>
 80004a6:	bf00      	nop
 80004a8:	080025ee 	stmdaeq	r0, {r1, r2, r3, r5, r6, r7, r8, sl, sp}
 80004ac:	080025f9 	stmdaeq	r0, {r0, r3, r4, r5, r6, r7, r8, sl, sp}
 80004b0:	40011000 	andmi	r1, r1, r0
 80004b4:	40010000 	andmi	r0, r1, r0
 80004b8:	08002628 	stmdaeq	r0, {r3, r5, r9, sl, sp}
 80004bc:	08002641 	stmdaeq	r0, {r0, r6, r9, sl, sp}
 80004c0:	40010800 	andmi	r0, r1, r0, lsl #16
 80004c4:	40010c00 	andmi	r0, r1, r0, lsl #24
 80004c8:	40011400 	andmi	r1, r1, r0, lsl #8
 80004cc:	0800264c 	stmdaeq	r0, {r2, r3, r6, r9, sl, sp}
 80004d0:	00300400 	eorseq	r0, r0, r0, lsl #8
 80004d4:	08002663 	stmdaeq	r0, {r0, r1, r5, r6, r9, sl, sp}
 80004d8:	0800266d 	stmdaeq	r0, {r0, r2, r3, r5, r6, r9, sl, sp}
 80004dc:	08002677 	stmdaeq	r0, {r0, r1, r2, r4, r5, r6, r9, sl, sp}

080004e0 <_itostr>:
 80004e0:	b5f0      	push	{r4, r5, r6, r7, lr}
 80004e2:	0fc7      	lsrs	r7, r0, #31
 80004e4:	b091      	sub	sp, #68	; 0x44
 80004e6:	f10d 043f 	add.w	r4, sp, #63	; 0x3f
 80004ea:	d01b      	beq.n	8000524 <_itostr+0x44>
 80004ec:	4240      	negs	r0, r0
 80004ee:	4623      	mov	r3, r4
 80004f0:	250a      	movs	r5, #10
 80004f2:	46ec      	mov	ip, sp
 80004f4:	fbb0 f6f5 	udiv	r6, r0, r5
 80004f8:	fb05 0016 	mls	r0, r5, r6, r0
 80004fc:	3030      	adds	r0, #48	; 0x30
 80004fe:	f803 0901 	strb.w	r0, [r3], #-1
 8000502:	4630      	mov	r0, r6
 8000504:	b10e      	cbz	r6, 800050a <_itostr+0x2a>
 8000506:	4563      	cmp	r3, ip
 8000508:	d1f4      	bne.n	80004f4 <_itostr+0x14>
 800050a:	b132      	cbz	r2, 800051a <_itostr+0x3a>
 800050c:	4668      	mov	r0, sp
 800050e:	2530      	movs	r5, #48	; 0x30
 8000510:	1ae6      	subs	r6, r4, r3
 8000512:	4296      	cmp	r6, r2
 8000514:	da01      	bge.n	800051a <_itostr+0x3a>
 8000516:	4283      	cmp	r3, r0
 8000518:	d816      	bhi.n	8000548 <_itostr+0x68>
 800051a:	b167      	cbz	r7, 8000536 <_itostr+0x56>
 800051c:	222d      	movs	r2, #45	; 0x2d
 800051e:	f803 2901 	strb.w	r2, [r3], #-1
 8000522:	e008      	b.n	8000536 <_itostr+0x56>
 8000524:	2800      	cmp	r0, #0
 8000526:	d1e2      	bne.n	80004ee <_itostr+0xe>
 8000528:	2330      	movs	r3, #48	; 0x30
 800052a:	f88d 303f 	strb.w	r3, [sp, #63]	; 0x3f
 800052e:	f10d 033e 	add.w	r3, sp, #62	; 0x3e
 8000532:	2a00      	cmp	r2, #0
 8000534:	d1ea      	bne.n	800050c <_itostr+0x2c>
 8000536:	3301      	adds	r3, #1
 8000538:	1ae0      	subs	r0, r4, r3
 800053a:	3901      	subs	r1, #1
 800053c:	aa10      	add	r2, sp, #64	; 0x40
 800053e:	4293      	cmp	r3, r2
 8000540:	d305      	bcc.n	800054e <_itostr+0x6e>
 8000542:	3001      	adds	r0, #1
 8000544:	b011      	add	sp, #68	; 0x44
 8000546:	bdf0      	pop	{r4, r5, r6, r7, pc}
 8000548:	f803 5901 	strb.w	r5, [r3], #-1
 800054c:	e7e0      	b.n	8000510 <_itostr+0x30>
 800054e:	f813 2b01 	ldrb.w	r2, [r3], #1
 8000552:	f801 2f01 	strb.w	r2, [r1, #1]!
 8000556:	e7f1      	b.n	800053c <_itostr+0x5c>

08000558 <_xputch>:
 8000558:	4603      	mov	r3, r0
 800055a:	b410      	push	{r4}
 800055c:	4c09      	ldr	r4, [pc, #36]	; (8000584 <_xputch+0x2c>)
 800055e:	68da      	ldr	r2, [r3, #12]
 8000560:	4608      	mov	r0, r1
 8000562:	6821      	ldr	r1, [r4, #0]
 8000564:	3201      	adds	r2, #1
 8000566:	60da      	str	r2, [r3, #12]
 8000568:	b141      	cbz	r1, 800057c <_xputch+0x24>
 800056a:	691b      	ldr	r3, [r3, #16]
 800056c:	429a      	cmp	r2, r3
 800056e:	da02      	bge.n	8000576 <_xputch+0x1e>
 8000570:	1c4b      	adds	r3, r1, #1
 8000572:	6023      	str	r3, [r4, #0]
 8000574:	7008      	strb	r0, [r1, #0]
 8000576:	f85d 4b04 	ldr.w	r4, [sp], #4
 800057a:	4770      	bx	lr
 800057c:	f85d 4b04 	ldr.w	r4, [sp], #4
 8000580:	f000 bdda 	b.w	8001138 <console_putc>
 8000584:	20001070 	andcs	r1, r0, r0, ror r0

08000588 <_format_int>:
 8000588:	b5f0      	push	{r4, r5, r6, r7, lr}
 800058a:	b091      	sub	sp, #68	; 0x44
 800058c:	4606      	mov	r6, r0
 800058e:	f10d 043f 	add.w	r4, sp, #63	; 0x3f
 8000592:	bb91      	cbnz	r1, 80005fa <_format_int+0x72>
 8000594:	2330      	movs	r3, #48	; 0x30
 8000596:	f88d 303f 	strb.w	r3, [sp, #63]	; 0x3f
 800059a:	f10d 033e 	add.w	r3, sp, #62	; 0x3e
 800059e:	6832      	ldr	r2, [r6, #0]
 80005a0:	07d5      	lsls	r5, r2, #31
 80005a2:	d507      	bpl.n	80005b4 <_format_int+0x2c>
 80005a4:	6870      	ldr	r0, [r6, #4]
 80005a6:	4669      	mov	r1, sp
 80005a8:	2530      	movs	r5, #48	; 0x30
 80005aa:	1ae7      	subs	r7, r4, r3
 80005ac:	4287      	cmp	r7, r0
 80005ae:	da01      	bge.n	80005b4 <_format_int+0x2c>
 80005b0:	428b      	cmp	r3, r1
 80005b2:	d833      	bhi.n	800061c <_format_int+0x94>
 80005b4:	0690      	lsls	r0, r2, #26
 80005b6:	d507      	bpl.n	80005c8 <_format_int+0x40>
 80005b8:	68b0      	ldr	r0, [r6, #8]
 80005ba:	4669      	mov	r1, sp
 80005bc:	2530      	movs	r5, #48	; 0x30
 80005be:	1ae7      	subs	r7, r4, r3
 80005c0:	4287      	cmp	r7, r0
 80005c2:	da01      	bge.n	80005c8 <_format_int+0x40>
 80005c4:	428b      	cmp	r3, r1
 80005c6:	d82c      	bhi.n	8000622 <_format_int+0x9a>
 80005c8:	0711      	lsls	r1, r2, #28
 80005ca:	bf44      	itt	mi
 80005cc:	212d      	movmi	r1, #45	; 0x2d
 80005ce:	f803 1901 	strbmi.w	r1, [r3], #-1
 80005d2:	0652      	lsls	r2, r2, #25
 80005d4:	d407      	bmi.n	80005e6 <_format_int+0x5e>
 80005d6:	68b1      	ldr	r1, [r6, #8]
 80005d8:	466a      	mov	r2, sp
 80005da:	2020      	movs	r0, #32
 80005dc:	1ae5      	subs	r5, r4, r3
 80005de:	428d      	cmp	r5, r1
 80005e0:	da01      	bge.n	80005e6 <_format_int+0x5e>
 80005e2:	4293      	cmp	r3, r2
 80005e4:	d820      	bhi.n	8000628 <_format_int+0xa0>
 80005e6:	1ae5      	subs	r5, r4, r3
 80005e8:	1c5c      	adds	r4, r3, #1
 80005ea:	ab10      	add	r3, sp, #64	; 0x40
 80005ec:	429c      	cmp	r4, r3
 80005ee:	d31e      	bcc.n	800062e <_format_int+0xa6>
 80005f0:	68b3      	ldr	r3, [r6, #8]
 80005f2:	42ab      	cmp	r3, r5
 80005f4:	dc21      	bgt.n	800063a <_format_int+0xb2>
 80005f6:	b011      	add	sp, #68	; 0x44
 80005f8:	bdf0      	pop	{r4, r5, r6, r7, pc}
 80005fa:	4623      	mov	r3, r4
 80005fc:	200a      	movs	r0, #10
 80005fe:	466f      	mov	r7, sp
 8000600:	fbb1 f5f0 	udiv	r5, r1, r0
 8000604:	fb00 1215 	mls	r2, r0, r5, r1
 8000608:	3230      	adds	r2, #48	; 0x30
 800060a:	f803 2901 	strb.w	r2, [r3], #-1
 800060e:	460a      	mov	r2, r1
 8000610:	2a09      	cmp	r2, #9
 8000612:	4629      	mov	r1, r5
 8000614:	d9c3      	bls.n	800059e <_format_int+0x16>
 8000616:	42bb      	cmp	r3, r7
 8000618:	d1f2      	bne.n	8000600 <_format_int+0x78>
 800061a:	e7c0      	b.n	800059e <_format_int+0x16>
 800061c:	f803 5901 	strb.w	r5, [r3], #-1
 8000620:	e7c3      	b.n	80005aa <_format_int+0x22>
 8000622:	f803 5901 	strb.w	r5, [r3], #-1
 8000626:	e7ca      	b.n	80005be <_format_int+0x36>
 8000628:	f803 0901 	strb.w	r0, [r3], #-1
 800062c:	e7d6      	b.n	80005dc <_format_int+0x54>
 800062e:	f814 1b01 	ldrb.w	r1, [r4], #1
 8000632:	4630      	mov	r0, r6
 8000634:	f7ff ff90 	bl	8000558 <_xputch>
 8000638:	e7d7      	b.n	80005ea <_format_int+0x62>
 800063a:	2120      	movs	r1, #32
 800063c:	4630      	mov	r0, r6
 800063e:	f7ff ff8b 	bl	8000558 <_xputch>
 8000642:	3501      	adds	r5, #1
 8000644:	e7d4      	b.n	80005f0 <_format_int+0x68>

08000646 <_format_hex>:
 8000646:	b5f0      	push	{r4, r5, r6, r7, lr}
 8000648:	b091      	sub	sp, #68	; 0x44
 800064a:	6804      	ldr	r4, [r0, #0]
 800064c:	4606      	mov	r6, r0
 800064e:	f10d 023f 	add.w	r2, sp, #63	; 0x3f
 8000652:	bb61      	cbnz	r1, 80006ae <_format_hex+0x68>
 8000654:	2330      	movs	r3, #48	; 0x30
 8000656:	f88d 303f 	strb.w	r3, [sp, #63]	; 0x3f
 800065a:	f10d 033e 	add.w	r3, sp, #62	; 0x3e
 800065e:	07e5      	lsls	r5, r4, #31
 8000660:	d507      	bpl.n	8000672 <_format_hex+0x2c>
 8000662:	6870      	ldr	r0, [r6, #4]
 8000664:	4669      	mov	r1, sp
 8000666:	2530      	movs	r5, #48	; 0x30
 8000668:	1ad7      	subs	r7, r2, r3
 800066a:	4287      	cmp	r7, r0
 800066c:	da01      	bge.n	8000672 <_format_hex+0x2c>
 800066e:	428b      	cmp	r3, r1
 8000670:	d831      	bhi.n	80006d6 <_format_hex+0x90>
 8000672:	06a0      	lsls	r0, r4, #26
 8000674:	d507      	bpl.n	8000686 <_format_hex+0x40>
 8000676:	68b0      	ldr	r0, [r6, #8]
 8000678:	4669      	mov	r1, sp
 800067a:	2530      	movs	r5, #48	; 0x30
 800067c:	1ad7      	subs	r7, r2, r3
 800067e:	4287      	cmp	r7, r0
 8000680:	da01      	bge.n	8000686 <_format_hex+0x40>
 8000682:	428b      	cmp	r3, r1
 8000684:	d82a      	bhi.n	80006dc <_format_hex+0x96>
 8000686:	0661      	lsls	r1, r4, #25
 8000688:	d407      	bmi.n	800069a <_format_hex+0x54>
 800068a:	68b0      	ldr	r0, [r6, #8]
 800068c:	4669      	mov	r1, sp
 800068e:	2420      	movs	r4, #32
 8000690:	1ad5      	subs	r5, r2, r3
 8000692:	4285      	cmp	r5, r0
 8000694:	da01      	bge.n	800069a <_format_hex+0x54>
 8000696:	428b      	cmp	r3, r1
 8000698:	d823      	bhi.n	80006e2 <_format_hex+0x9c>
 800069a:	1ad5      	subs	r5, r2, r3
 800069c:	1c5c      	adds	r4, r3, #1
 800069e:	ab10      	add	r3, sp, #64	; 0x40
 80006a0:	429c      	cmp	r4, r3
 80006a2:	d321      	bcc.n	80006e8 <_format_hex+0xa2>
 80006a4:	68b3      	ldr	r3, [r6, #8]
 80006a6:	429d      	cmp	r5, r3
 80006a8:	db24      	blt.n	80006f4 <_format_hex+0xae>
 80006aa:	b011      	add	sp, #68	; 0x44
 80006ac:	bdf0      	pop	{r4, r5, r6, r7, pc}
 80006ae:	f014 0f02 	tst.w	r4, #2
 80006b2:	bf0c      	ite	eq
 80006b4:	2757      	moveq	r7, #87	; 0x57
 80006b6:	2737      	movne	r7, #55	; 0x37
 80006b8:	4613      	mov	r3, r2
 80006ba:	466d      	mov	r5, sp
 80006bc:	f001 000f 	and.w	r0, r1, #15
 80006c0:	2809      	cmp	r0, #9
 80006c2:	bf94      	ite	ls
 80006c4:	3030      	addls	r0, #48	; 0x30
 80006c6:	19c0      	addhi	r0, r0, r7
 80006c8:	0909      	lsrs	r1, r1, #4
 80006ca:	f803 0901 	strb.w	r0, [r3], #-1
 80006ce:	d0c6      	beq.n	800065e <_format_hex+0x18>
 80006d0:	42ab      	cmp	r3, r5
 80006d2:	d1f3      	bne.n	80006bc <_format_hex+0x76>
 80006d4:	e7c3      	b.n	800065e <_format_hex+0x18>
 80006d6:	f803 5901 	strb.w	r5, [r3], #-1
 80006da:	e7c5      	b.n	8000668 <_format_hex+0x22>
 80006dc:	f803 5901 	strb.w	r5, [r3], #-1
 80006e0:	e7cc      	b.n	800067c <_format_hex+0x36>
 80006e2:	f803 4901 	strb.w	r4, [r3], #-1
 80006e6:	e7d3      	b.n	8000690 <_format_hex+0x4a>
 80006e8:	f814 1b01 	ldrb.w	r1, [r4], #1
 80006ec:	4630      	mov	r0, r6
 80006ee:	f7ff ff33 	bl	8000558 <_xputch>
 80006f2:	e7d4      	b.n	800069e <_format_hex+0x58>
 80006f4:	2120      	movs	r1, #32
 80006f6:	4630      	mov	r0, r6
 80006f8:	f7ff ff2e 	bl	8000558 <_xputch>
 80006fc:	3501      	adds	r5, #1
 80006fe:	e7d1      	b.n	80006a4 <_format_hex+0x5e>

08000700 <_vprintf>:
 8000700:	e92d 47f0 	stmdb	sp!, {r4, r5, r6, r7, r8, r9, sl, lr}
 8000704:	2700      	movs	r7, #0
 8000706:	b096      	sub	sp, #88	; 0x58
 8000708:	e9cd 7004 	strd	r7, r0, [sp, #16]
 800070c:	460b      	mov	r3, r1
 800070e:	4614      	mov	r4, r2
 8000710:	f04f 080a 	mov.w	r8, #10
 8000714:	7819      	ldrb	r1, [r3, #0]
 8000716:	b919      	cbnz	r1, 8000720 <_vprintf+0x20>
 8000718:	9804      	ldr	r0, [sp, #16]
 800071a:	b016      	add	sp, #88	; 0x58
 800071c:	e8bd 87f0 	ldmia.w	sp!, {r4, r5, r6, r7, r8, r9, sl, pc}
 8000720:	2925      	cmp	r1, #37	; 0x25
 8000722:	f103 0501 	add.w	r5, r3, #1
 8000726:	d004      	beq.n	8000732 <_vprintf+0x32>
 8000728:	a801      	add	r0, sp, #4
 800072a:	f7ff ff15 	bl	8000558 <_xputch>
 800072e:	462b      	mov	r3, r5
 8000730:	e7f0      	b.n	8000714 <_vprintf+0x14>
 8000732:	785a      	ldrb	r2, [r3, #1]
 8000734:	9703      	str	r7, [sp, #12]
 8000736:	2a30      	cmp	r2, #48	; 0x30
 8000738:	e9cd 7701 	strd	r7, r7, [sp, #4]
 800073c:	d127      	bne.n	800078e <_vprintf+0x8e>
 800073e:	2220      	movs	r2, #32
 8000740:	9201      	str	r2, [sp, #4]
 8000742:	1c9d      	adds	r5, r3, #2
 8000744:	2200      	movs	r2, #0
 8000746:	462e      	mov	r6, r5
 8000748:	4613      	mov	r3, r2
 800074a:	7831      	ldrb	r1, [r6, #0]
 800074c:	f1a1 0030 	sub.w	r0, r1, #48	; 0x30
 8000750:	2809      	cmp	r0, #9
 8000752:	4635      	mov	r5, r6
 8000754:	f106 0601 	add.w	r6, r6, #1
 8000758:	d91d      	bls.n	8000796 <_vprintf+0x96>
 800075a:	b12a      	cbz	r2, 8000768 <_vprintf+0x68>
 800075c:	9303      	str	r3, [sp, #12]
 800075e:	b11b      	cbz	r3, 8000768 <_vprintf+0x68>
 8000760:	9b01      	ldr	r3, [sp, #4]
 8000762:	f043 0310 	orr.w	r3, r3, #16
 8000766:	9301      	str	r3, [sp, #4]
 8000768:	292e      	cmp	r1, #46	; 0x2e
 800076a:	d123      	bne.n	80007b4 <_vprintf+0xb4>
 800076c:	786b      	ldrb	r3, [r5, #1]
 800076e:	2b2a      	cmp	r3, #42	; 0x2a
 8000770:	d015      	beq.n	800079e <_vprintf+0x9e>
 8000772:	2100      	movs	r1, #0
 8000774:	1c68      	adds	r0, r5, #1
 8000776:	460a      	mov	r2, r1
 8000778:	260a      	movs	r6, #10
 800077a:	7803      	ldrb	r3, [r0, #0]
 800077c:	3b30      	subs	r3, #48	; 0x30
 800077e:	2b09      	cmp	r3, #9
 8000780:	4605      	mov	r5, r0
 8000782:	f100 0001 	add.w	r0, r0, #1
 8000786:	d959      	bls.n	800083c <_vprintf+0x13c>
 8000788:	b181      	cbz	r1, 80007ac <_vprintf+0xac>
 800078a:	9202      	str	r2, [sp, #8]
 800078c:	e00e      	b.n	80007ac <_vprintf+0xac>
 800078e:	2a2d      	cmp	r2, #45	; 0x2d
 8000790:	d1d8      	bne.n	8000744 <_vprintf+0x44>
 8000792:	2240      	movs	r2, #64	; 0x40
 8000794:	e7d4      	b.n	8000740 <_vprintf+0x40>
 8000796:	fb08 0303 	mla	r3, r8, r3, r0
 800079a:	2201      	movs	r2, #1
 800079c:	e7d5      	b.n	800074a <_vprintf+0x4a>
 800079e:	f854 3b04 	ldr.w	r3, [r4], #4
 80007a2:	2b00      	cmp	r3, #0
 80007a4:	bfb8      	it	lt
 80007a6:	425b      	neglt	r3, r3
 80007a8:	3502      	adds	r5, #2
 80007aa:	9302      	str	r3, [sp, #8]
 80007ac:	9b01      	ldr	r3, [sp, #4]
 80007ae:	f043 0301 	orr.w	r3, r3, #1
 80007b2:	9301      	str	r3, [sp, #4]
 80007b4:	782b      	ldrb	r3, [r5, #0]
 80007b6:	2b6c      	cmp	r3, #108	; 0x6c
 80007b8:	bf04      	itt	eq
 80007ba:	3501      	addeq	r5, #1
 80007bc:	9b01      	ldreq	r3, [sp, #4]
 80007be:	7829      	ldrb	r1, [r5, #0]
 80007c0:	bf04      	itt	eq
 80007c2:	f043 0304 	orreq.w	r3, r3, #4
 80007c6:	9301      	streq	r3, [sp, #4]
 80007c8:	2958      	cmp	r1, #88	; 0x58
 80007ca:	f000 8143 	beq.w	8000a54 <_vprintf+0x354>
 80007ce:	f1a1 0363 	sub.w	r3, r1, #99	; 0x63
 80007d2:	b2da      	uxtb	r2, r3
 80007d4:	2a15      	cmp	r2, #21
 80007d6:	d8a7      	bhi.n	8000728 <_vprintf+0x28>
 80007d8:	2b15      	cmp	r3, #21
 80007da:	d8a5      	bhi.n	8000728 <_vprintf+0x28>
 80007dc:	a201      	add	r2, pc, #4	; (adr r2, 80007e4 <_vprintf+0xe4>)
 80007de:	f852 f023 	ldr.w	pc, [r2, r3, lsl #2]
 80007e2:	bf00      	nop
 80007e4:	08000845 	stmdaeq	r0, {r0, r2, r6, fp}
 80007e8:	08000853 	stmdaeq	r0, {r0, r1, r4, r6, fp}
 80007ec:	08000729 	stmdaeq	r0, {r0, r3, r5, r8, r9, sl}
 80007f0:	0800086d 	stmdaeq	r0, {r0, r2, r3, r5, r6, fp}
 80007f4:	08000729 	stmdaeq	r0, {r0, r3, r5, r8, r9, sl}
 80007f8:	08000729 	stmdaeq	r0, {r0, r3, r5, r8, r9, sl}
 80007fc:	08000853 	stmdaeq	r0, {r0, r1, r4, r6, fp}
 8000800:	08000729 	stmdaeq	r0, {r0, r3, r5, r8, r9, sl}
 8000804:	08000729 	stmdaeq	r0, {r0, r3, r5, r8, r9, sl}
 8000808:	08000729 	stmdaeq	r0, {r0, r3, r5, r8, r9, sl}
 800080c:	08000729 	stmdaeq	r0, {r0, r3, r5, r8, r9, sl}
 8000810:	08000729 	stmdaeq	r0, {r0, r3, r5, r8, r9, sl}
 8000814:	08000729 	stmdaeq	r0, {r0, r3, r5, r8, r9, sl}
 8000818:	080009b5 	stmdaeq	r0, {r0, r2, r4, r5, r7, r8, fp}
 800081c:	08000729 	stmdaeq	r0, {r0, r3, r5, r8, r9, sl}
 8000820:	08000729 	stmdaeq	r0, {r0, r3, r5, r8, r9, sl}
 8000824:	080009db 	stmdaeq	r0, {r0, r1, r3, r4, r6, r7, r8, fp}
 8000828:	08000729 	stmdaeq	r0, {r0, r3, r5, r8, r9, sl}
 800082c:	08000a4f 	stmdaeq	r0, {r0, r1, r2, r3, r6, r9, fp}
 8000830:	08000729 	stmdaeq	r0, {r0, r3, r5, r8, r9, sl}
 8000834:	08000729 	stmdaeq	r0, {r0, r3, r5, r8, r9, sl}
 8000838:	08000a5d 	stmdaeq	r0, {r0, r2, r3, r4, r6, r9, fp}
 800083c:	fb06 3202 	mla	r2, r6, r2, r3
 8000840:	2101      	movs	r1, #1
 8000842:	e79a      	b.n	800077a <_vprintf+0x7a>
 8000844:	f854 1b04 	ldr.w	r1, [r4], #4
 8000848:	a801      	add	r0, sp, #4
 800084a:	f7ff fe85 	bl	8000558 <_xputch>
 800084e:	3501      	adds	r5, #1
 8000850:	e76d      	b.n	800072e <_vprintf+0x2e>
 8000852:	f854 1b04 	ldr.w	r1, [r4], #4
 8000856:	9b01      	ldr	r3, [sp, #4]
 8000858:	2900      	cmp	r1, #0
 800085a:	da03      	bge.n	8000864 <_vprintf+0x164>
 800085c:	f043 0308 	orr.w	r3, r3, #8
 8000860:	9301      	str	r3, [sp, #4]
 8000862:	4249      	negs	r1, r1
 8000864:	a801      	add	r0, sp, #4
 8000866:	f7ff fe8f 	bl	8000588 <_format_int>
 800086a:	e7f0      	b.n	800084e <_vprintf+0x14e>
 800086c:	3407      	adds	r4, #7
 800086e:	f024 0407 	bic.w	r4, r4, #7
 8000872:	e8f4 0102 	ldrd	r0, r1, [r4], #8
 8000876:	f7ff fc6b 	bl	8000150 <__aeabi_d2f>
 800087a:	9b01      	ldr	r3, [sp, #4]
 800087c:	ee07 0a90 	vmov	s15, r0
 8000880:	07de      	lsls	r6, r3, #31
 8000882:	eef5 7ac0 	vcmpe.f32	s15, #0.0
 8000886:	bf4c      	ite	mi
 8000888:	9e02      	ldrmi	r6, [sp, #8]
 800088a:	2606      	movpl	r6, #6
 800088c:	eef1 fa10 	vmrs	APSR_nzcv, fpscr
 8000890:	bf48      	it	mi
 8000892:	eef1 7a67 	vnegmi.f32	s15, s15
 8000896:	eebd 7ae7 	vcvt.s32.f32	s14, s15
 800089a:	bf4a      	itet	mi
 800089c:	f10d 0a19 	addmi.w	sl, sp, #25
 80008a0:	f10d 0a18 	addpl.w	sl, sp, #24
 80008a4:	232d      	movmi	r3, #45	; 0x2d
 80008a6:	ee17 0a10 	vmov	r0, s14
 80008aa:	f04f 0200 	mov.w	r2, #0
 80008ae:	4651      	mov	r1, sl
 80008b0:	bf48      	it	mi
 80008b2:	f88d 3018 	strbmi.w	r3, [sp, #24]
 80008b6:	f7ff fe13 	bl	80004e0 <_itostr>
 80008ba:	eeb8 7ac7 	vcvt.f32.s32	s14, s14
 80008be:	232e      	movs	r3, #46	; 0x2e
 80008c0:	f80a 3000 	strb.w	r3, [sl, r0]
 80008c4:	eb0a 0900 	add.w	r9, sl, r0
 80008c8:	230a      	movs	r3, #10
 80008ca:	ee77 7ac7 	vsub.f32	s15, s15, s14
 80008ce:	1c72      	adds	r2, r6, #1
 80008d0:	f109 0901 	add.w	r9, r9, #1
 80008d4:	4619      	mov	r1, r3
 80008d6:	2e00      	cmp	r6, #0
 80008d8:	dc41      	bgt.n	800095e <_vprintf+0x25e>
 80008da:	ee07 3a10 	vmov	s14, r3
 80008de:	eeb8 7ac7 	vcvt.f32.s32	s14, s14
 80008e2:	4649      	mov	r1, r9
 80008e4:	ee67 7a27 	vmul.f32	s15, s14, s15
 80008e8:	eefd 7ae7 	vcvt.s32.f32	s15, s15
 80008ec:	ee17 0a90 	vmov	r0, s15
 80008f0:	f7ff fdf6 	bl	80004e0 <_itostr>
 80008f4:	4448      	add	r0, r9
 80008f6:	f10d 0918 	add.w	r9, sp, #24
 80008fa:	eba0 0009 	sub.w	r0, r0, r9
 80008fe:	1e46      	subs	r6, r0, #1
 8000900:	eb09 0206 	add.w	r2, r9, r6
 8000904:	f819 3006 	ldrb.w	r3, [r9, r6]
 8000908:	2b34      	cmp	r3, #52	; 0x34
 800090a:	d911      	bls.n	8000930 <_vprintf+0x230>
 800090c:	f812 1c01 	ldrb.w	r1, [r2, #-1]
 8000910:	292e      	cmp	r1, #46	; 0x2e
 8000912:	f102 33ff 	add.w	r3, r2, #4294967295	; 0xffffffff
 8000916:	d028      	beq.n	800096a <_vprintf+0x26a>
 8000918:	469c      	mov	ip, r3
 800091a:	f04f 0e30 	mov.w	lr, #48	; 0x30
 800091e:	4663      	mov	r3, ip
 8000920:	f81c 1901 	ldrb.w	r1, [ip], #-1
 8000924:	2939      	cmp	r1, #57	; 0x39
 8000926:	d01d      	beq.n	8000964 <_vprintf+0x264>
 8000928:	292e      	cmp	r1, #46	; 0x2e
 800092a:	d01e      	beq.n	800096a <_vprintf+0x26a>
 800092c:	3101      	adds	r1, #1
 800092e:	7019      	strb	r1, [r3, #0]
 8000930:	f106 0358 	add.w	r3, r6, #88	; 0x58
 8000934:	446b      	add	r3, sp
 8000936:	f813 3c41 	ldrb.w	r3, [r3, #-65]
 800093a:	2b2e      	cmp	r3, #46	; 0x2e
 800093c:	bf08      	it	eq
 800093e:	f106 36ff 	addeq.w	r6, r6, #4294967295	; 0xffffffff
 8000942:	46b2      	mov	sl, r6
 8000944:	9b03      	ldr	r3, [sp, #12]
 8000946:	4553      	cmp	r3, sl
 8000948:	dc2d      	bgt.n	80009a6 <_vprintf+0x2a6>
 800094a:	2e00      	cmp	r6, #0
 800094c:	f77f af7f 	ble.w	800084e <_vprintf+0x14e>
 8000950:	f819 1b01 	ldrb.w	r1, [r9], #1
 8000954:	a801      	add	r0, sp, #4
 8000956:	f7ff fdff 	bl	8000558 <_xputch>
 800095a:	3e01      	subs	r6, #1
 800095c:	e7f5      	b.n	800094a <_vprintf+0x24a>
 800095e:	434b      	muls	r3, r1
 8000960:	3e01      	subs	r6, #1
 8000962:	e7b8      	b.n	80008d6 <_vprintf+0x1d6>
 8000964:	f88c e001 	strb.w	lr, [ip, #1]
 8000968:	e7d9      	b.n	800091e <_vprintf+0x21e>
 800096a:	3b01      	subs	r3, #1
 800096c:	f04f 0c30 	mov.w	ip, #48	; 0x30
 8000970:	7819      	ldrb	r1, [r3, #0]
 8000972:	2939      	cmp	r1, #57	; 0x39
 8000974:	d10d      	bne.n	8000992 <_vprintf+0x292>
 8000976:	454b      	cmp	r3, r9
 8000978:	d208      	bcs.n	800098c <_vprintf+0x28c>
 800097a:	1c51      	adds	r1, r2, #1
 800097c:	1c9e      	adds	r6, r3, #2
 800097e:	3202      	adds	r2, #2
 8000980:	4296      	cmp	r6, r2
 8000982:	d10b      	bne.n	800099c <_vprintf+0x29c>
 8000984:	2231      	movs	r2, #49	; 0x31
 8000986:	705a      	strb	r2, [r3, #1]
 8000988:	4606      	mov	r6, r0
 800098a:	e7d1      	b.n	8000930 <_vprintf+0x230>
 800098c:	f803 c901 	strb.w	ip, [r3], #-1
 8000990:	e7ee      	b.n	8000970 <_vprintf+0x270>
 8000992:	454b      	cmp	r3, r9
 8000994:	d3f1      	bcc.n	800097a <_vprintf+0x27a>
 8000996:	292d      	cmp	r1, #45	; 0x2d
 8000998:	d1c8      	bne.n	800092c <_vprintf+0x22c>
 800099a:	e7ee      	b.n	800097a <_vprintf+0x27a>
 800099c:	f811 cd01 	ldrb.w	ip, [r1, #-1]!
 80009a0:	f802 cd01 	strb.w	ip, [r2, #-1]!
 80009a4:	e7ec      	b.n	8000980 <_vprintf+0x280>
 80009a6:	2120      	movs	r1, #32
 80009a8:	a801      	add	r0, sp, #4
 80009aa:	f7ff fdd5 	bl	8000558 <_xputch>
 80009ae:	f10a 0a01 	add.w	sl, sl, #1
 80009b2:	e7c7      	b.n	8000944 <_vprintf+0x244>
 80009b4:	2308      	movs	r3, #8
 80009b6:	f854 6b04 	ldr.w	r6, [r4], #4
 80009ba:	9303      	str	r3, [sp, #12]
 80009bc:	2130      	movs	r1, #48	; 0x30
 80009be:	2320      	movs	r3, #32
 80009c0:	a801      	add	r0, sp, #4
 80009c2:	9301      	str	r3, [sp, #4]
 80009c4:	f7ff fdc8 	bl	8000558 <_xputch>
 80009c8:	2178      	movs	r1, #120	; 0x78
 80009ca:	a801      	add	r0, sp, #4
 80009cc:	f7ff fdc4 	bl	8000558 <_xputch>
 80009d0:	4631      	mov	r1, r6
 80009d2:	a801      	add	r0, sp, #4
 80009d4:	f7ff fe37 	bl	8000646 <_format_hex>
 80009d8:	e739      	b.n	800084e <_vprintf+0x14e>
 80009da:	f854 9b04 	ldr.w	r9, [r4], #4
 80009de:	2600      	movs	r6, #0
 80009e0:	f819 3006 	ldrb.w	r3, [r9, r6]
 80009e4:	b993      	cbnz	r3, 8000a0c <_vprintf+0x30c>
 80009e6:	9b01      	ldr	r3, [sp, #4]
 80009e8:	07d9      	lsls	r1, r3, #31
 80009ea:	d503      	bpl.n	80009f4 <_vprintf+0x2f4>
 80009ec:	9b02      	ldr	r3, [sp, #8]
 80009ee:	429e      	cmp	r6, r3
 80009f0:	bfa8      	it	ge
 80009f2:	461e      	movge	r6, r3
 80009f4:	9b01      	ldr	r3, [sp, #4]
 80009f6:	065a      	lsls	r2, r3, #25
 80009f8:	f106 0a01 	add.w	sl, r6, #1
 80009fc:	d403      	bmi.n	8000a06 <_vprintf+0x306>
 80009fe:	9b03      	ldr	r3, [sp, #12]
 8000a00:	429e      	cmp	r6, r3
 8000a02:	db05      	blt.n	8000a10 <_vprintf+0x310>
 8000a04:	4656      	mov	r6, sl
 8000a06:	f109 39ff 	add.w	r9, r9, #4294967295	; 0xffffffff
 8000a0a:	e00d      	b.n	8000a28 <_vprintf+0x328>
 8000a0c:	3601      	adds	r6, #1
 8000a0e:	e7e7      	b.n	80009e0 <_vprintf+0x2e0>
 8000a10:	2120      	movs	r1, #32
 8000a12:	a801      	add	r0, sp, #4
 8000a14:	f7ff fda0 	bl	8000558 <_xputch>
 8000a18:	4656      	mov	r6, sl
 8000a1a:	e7eb      	b.n	80009f4 <_vprintf+0x2f4>
 8000a1c:	a801      	add	r0, sp, #4
 8000a1e:	f7ff fd9b 	bl	8000558 <_xputch>
 8000a22:	9b02      	ldr	r3, [sp, #8]
 8000a24:	3b01      	subs	r3, #1
 8000a26:	9302      	str	r3, [sp, #8]
 8000a28:	9b01      	ldr	r3, [sp, #4]
 8000a2a:	07db      	lsls	r3, r3, #31
 8000a2c:	d501      	bpl.n	8000a32 <_vprintf+0x332>
 8000a2e:	9b02      	ldr	r3, [sp, #8]
 8000a30:	b11b      	cbz	r3, 8000a3a <_vprintf+0x33a>
 8000a32:	f819 1f01 	ldrb.w	r1, [r9, #1]!
 8000a36:	2900      	cmp	r1, #0
 8000a38:	d1f0      	bne.n	8000a1c <_vprintf+0x31c>
 8000a3a:	9b03      	ldr	r3, [sp, #12]
 8000a3c:	429e      	cmp	r6, r3
 8000a3e:	f6bf af06 	bge.w	800084e <_vprintf+0x14e>
 8000a42:	2120      	movs	r1, #32
 8000a44:	a801      	add	r0, sp, #4
 8000a46:	f7ff fd87 	bl	8000558 <_xputch>
 8000a4a:	3601      	adds	r6, #1
 8000a4c:	e7f5      	b.n	8000a3a <_vprintf+0x33a>
 8000a4e:	f854 1b04 	ldr.w	r1, [r4], #4
 8000a52:	e707      	b.n	8000864 <_vprintf+0x164>
 8000a54:	9b01      	ldr	r3, [sp, #4]
 8000a56:	f043 0302 	orr.w	r3, r3, #2
 8000a5a:	9301      	str	r3, [sp, #4]
 8000a5c:	f854 1b04 	ldr.w	r1, [r4], #4
 8000a60:	e7b7      	b.n	80009d2 <_vprintf+0x2d2>
 8000a62:	bf00      	nop

08000a64 <printf>:
 8000a64:	b40f      	push	{r0, r1, r2, r3}
 8000a66:	b507      	push	{r0, r1, r2, lr}
 8000a68:	aa04      	add	r2, sp, #16
 8000a6a:	f06f 4000 	mvn.w	r0, #2147483648	; 0x80000000
 8000a6e:	f852 1b04 	ldr.w	r1, [r2], #4
 8000a72:	9201      	str	r2, [sp, #4]
 8000a74:	f7ff fe44 	bl	8000700 <_vprintf>
 8000a78:	b003      	add	sp, #12
 8000a7a:	f85d eb04 	ldr.w	lr, [sp], #4
 8000a7e:	b004      	add	sp, #16
 8000a80:	4770      	bx	lr

08000a82 <puts>:
 8000a82:	b508      	push	{r3, lr}
 8000a84:	f000 fb5a 	bl	800113c <console_puts>
 8000a88:	200a      	movs	r0, #10
 8000a8a:	f000 fb55 	bl	8001138 <console_putc>
 8000a8e:	2001      	movs	r0, #1
 8000a90:	bd08      	pop	{r3, pc}
	...

08000a94 <gettimeofday>:
 8000a94:	b538      	push	{r3, r4, r5, lr}
 8000a96:	4604      	mov	r4, r0
 8000a98:	b928      	cbnz	r0, 8000aa6 <gettimeofday+0x12>
 8000a9a:	4b16      	ldr	r3, [pc, #88]	; (8000af4 <gettimeofday+0x60>)
 8000a9c:	4a16      	ldr	r2, [pc, #88]	; (8000af8 <gettimeofday+0x64>)
 8000a9e:	4817      	ldr	r0, [pc, #92]	; (8000afc <gettimeofday+0x68>)
 8000aa0:	212a      	movs	r1, #42	; 0x2a
 8000aa2:	f000 f861 	bl	8000b68 <__assert_func>
 8000aa6:	4b16      	ldr	r3, [pc, #88]	; (8000b00 <gettimeofday+0x6c>)
 8000aa8:	4916      	ldr	r1, [pc, #88]	; (8000b04 <gettimeofday+0x70>)
 8000aaa:	681a      	ldr	r2, [r3, #0]
 8000aac:	680b      	ldr	r3, [r1, #0]
 8000aae:	600a      	str	r2, [r1, #0]
 8000ab0:	4915      	ldr	r1, [pc, #84]	; (8000b08 <gettimeofday+0x74>)
 8000ab2:	4293      	cmp	r3, r2
 8000ab4:	6808      	ldr	r0, [r1, #0]
 8000ab6:	bf2c      	ite	cs
 8000ab8:	1a9b      	subcs	r3, r3, r2
 8000aba:	1ad3      	subcc	r3, r2, r3
 8000abc:	f44f 757a 	mov.w	r5, #1000	; 0x3e8
 8000ac0:	fbb3 f2f5 	udiv	r2, r3, r5
 8000ac4:	4410      	add	r0, r2
 8000ac6:	fb05 3212 	mls	r2, r5, r2, r3
 8000aca:	684b      	ldr	r3, [r1, #4]
 8000acc:	6008      	str	r0, [r1, #0]
 8000ace:	fb05 3302 	mla	r3, r5, r2, r3
 8000ad2:	4a0e      	ldr	r2, [pc, #56]	; (8000b0c <gettimeofday+0x78>)
 8000ad4:	604b      	str	r3, [r1, #4]
 8000ad6:	4293      	cmp	r3, r2
 8000ad8:	dd06      	ble.n	8000ae8 <gettimeofday+0x54>
 8000ada:	f5c3 2374 	rsb	r3, r3, #999424	; 0xf4000
 8000ade:	3001      	adds	r0, #1
 8000ae0:	f503 7310 	add.w	r3, r3, #576	; 0x240
 8000ae4:	6008      	str	r0, [r1, #0]
 8000ae6:	604b      	str	r3, [r1, #4]
 8000ae8:	680b      	ldr	r3, [r1, #0]
 8000aea:	6023      	str	r3, [r4, #0]
 8000aec:	684b      	ldr	r3, [r1, #4]
 8000aee:	6063      	str	r3, [r4, #4]
 8000af0:	2000      	movs	r0, #0
 8000af2:	bd38      	pop	{r3, r4, r5, pc}
 8000af4:	08002680 	stmdaeq	r0, {r7, r9, sl, sp}
 8000af8:	080026a5 	stmdaeq	r0, {r0, r2, r5, r7, r9, sl, sp}
 8000afc:	08002688 	stmdaeq	r0, {r3, r7, r9, sl, sp}
 8000b00:	20001114 	andcs	r1, r0, r4, lsl r1
 8000b04:	2000107c 	andcs	r1, r0, ip, ror r0
 8000b08:	20001074 	andcs	r1, r0, r4, ror r0
 8000b0c:	000f423f 	andeq	r4, pc, pc, lsr r2	; <UNPREDICTABLE>

08000b10 <settimeofday>:
 8000b10:	b510      	push	{r4, lr}
 8000b12:	4604      	mov	r4, r0
 8000b14:	b928      	cbnz	r0, 8000b22 <settimeofday+0x12>
 8000b16:	4b08      	ldr	r3, [pc, #32]	; (8000b38 <settimeofday+0x28>)
 8000b18:	4a08      	ldr	r2, [pc, #32]	; (8000b3c <settimeofday+0x2c>)
 8000b1a:	4809      	ldr	r0, [pc, #36]	; (8000b40 <settimeofday+0x30>)
 8000b1c:	214a      	movs	r1, #74	; 0x4a
 8000b1e:	f000 f823 	bl	8000b68 <__assert_func>
 8000b22:	4b08      	ldr	r3, [pc, #32]	; (8000b44 <settimeofday+0x34>)
 8000b24:	681a      	ldr	r2, [r3, #0]
 8000b26:	4b08      	ldr	r3, [pc, #32]	; (8000b48 <settimeofday+0x38>)
 8000b28:	601a      	str	r2, [r3, #0]
 8000b2a:	4b08      	ldr	r3, [pc, #32]	; (8000b4c <settimeofday+0x3c>)
 8000b2c:	6822      	ldr	r2, [r4, #0]
 8000b2e:	601a      	str	r2, [r3, #0]
 8000b30:	6862      	ldr	r2, [r4, #4]
 8000b32:	605a      	str	r2, [r3, #4]
 8000b34:	2000      	movs	r0, #0
 8000b36:	bd10      	pop	{r4, pc}
 8000b38:	08002680 	stmdaeq	r0, {r7, r9, sl, sp}
 8000b3c:	08002698 	stmdaeq	r0, {r3, r4, r7, r9, sl, sp}
 8000b40:	08002688 	stmdaeq	r0, {r3, r7, r9, sl, sp}
 8000b44:	20001114 	andcs	r1, r0, r4, lsl r1
 8000b48:	2000107c 	andcs	r1, r0, ip, ror r0
 8000b4c:	20001074 	andcs	r1, r0, r4, ror r0

08000b50 <time>:
 8000b50:	b513      	push	{r0, r1, r4, lr}
 8000b52:	4604      	mov	r4, r0
 8000b54:	2100      	movs	r1, #0
 8000b56:	4668      	mov	r0, sp
 8000b58:	f7ff ff9c 	bl	8000a94 <gettimeofday>
 8000b5c:	9800      	ldr	r0, [sp, #0]
 8000b5e:	b104      	cbz	r4, 8000b62 <time+0x12>
 8000b60:	6020      	str	r0, [r4, #0]
 8000b62:	b002      	add	sp, #8
 8000b64:	bd10      	pop	{r4, pc}
	...

08000b68 <__assert_func>:
 8000b68:	b507      	push	{r0, r1, r2, lr}
 8000b6a:	460c      	mov	r4, r1
 8000b6c:	4619      	mov	r1, r3
 8000b6e:	b94a      	cbnz	r2, 8000b84 <__assert_func+0x1c>
 8000b70:	4b05      	ldr	r3, [pc, #20]	; (8000b88 <__assert_func+0x20>)
 8000b72:	461a      	mov	r2, r3
 8000b74:	e9cd 3200 	strd	r3, r2, [sp]
 8000b78:	4602      	mov	r2, r0
 8000b7a:	4623      	mov	r3, r4
 8000b7c:	4803      	ldr	r0, [pc, #12]	; (8000b8c <__assert_func+0x24>)
 8000b7e:	f7ff ff71 	bl	8000a64 <printf>
 8000b82:	e7fe      	b.n	8000b82 <__assert_func+0x1a>
 8000b84:	4b02      	ldr	r3, [pc, #8]	; (8000b90 <__assert_func+0x28>)
 8000b86:	e7f5      	b.n	8000b74 <__assert_func+0xc>
 8000b88:	08002676 	stmdaeq	r0, {r1, r2, r4, r5, r6, r9, sl, sp}
 8000b8c:	080026bf 	stmdaeq	r0, {r0, r1, r2, r3, r4, r5, r7, r9, sl, sp}
 8000b90:	080026b2 	stmdaeq	r0, {r1, r4, r5, r7, r9, sl, sp}

08000b94 <Display::PrintInfo() [clone .isra.0]>:
 8000b94:	b910      	cbnz	r0, 8000b9c <Display::PrintInfo() [clone .isra.0]+0x8>
 8000b96:	4803      	ldr	r0, [pc, #12]	; (8000ba4 <Display::PrintInfo() [clone .isra.0]+0x10>)
 8000b98:	f7ff bf73 	b.w	8000a82 <puts>
 8000b9c:	6803      	ldr	r3, [r0, #0]
 8000b9e:	6b5b      	ldr	r3, [r3, #52]	; 0x34
 8000ba0:	4718      	bx	r3
 8000ba2:	bf00      	nop
 8000ba4:	080026ee 	stmdaeq	r0, {r1, r2, r3, r5, r6, r7, r9, sl, sp}

08000ba8 <gpio_fsel(unsigned long, unsigned long, unsigned long)>:
 8000ba8:	4b27      	ldr	r3, [pc, #156]	; (8000c48 <gpio_fsel(unsigned long, unsigned long, unsigned long)+0xa0>)
 8000baa:	4298      	cmp	r0, r3
 8000bac:	b570      	push	{r4, r5, r6, lr}
 8000bae:	4604      	mov	r4, r0
 8000bb0:	460d      	mov	r5, r1
 8000bb2:	4616      	mov	r6, r2
 8000bb4:	d03a      	beq.n	8000c2c <gpio_fsel(unsigned long, unsigned long, unsigned long)+0x84>
 8000bb6:	d813      	bhi.n	8000be0 <gpio_fsel(unsigned long, unsigned long, unsigned long)+0x38>
 8000bb8:	f5a3 6300 	sub.w	r3, r3, #2048	; 0x800
 8000bbc:	4298      	cmp	r0, r3
 8000bbe:	d02d      	beq.n	8000c1c <gpio_fsel(unsigned long, unsigned long, unsigned long)+0x74>
 8000bc0:	f503 6380 	add.w	r3, r3, #1024	; 0x400
 8000bc4:	4298      	cmp	r0, r3
 8000bc6:	d02e      	beq.n	8000c26 <gpio_fsel(unsigned long, unsigned long, unsigned long)+0x7e>
 8000bc8:	f5a3 6300 	sub.w	r3, r3, #2048	; 0x800
 8000bcc:	4298      	cmp	r0, r3
 8000bce:	d015      	beq.n	8000bfc <gpio_fsel(unsigned long, unsigned long, unsigned long)+0x54>
 8000bd0:	462b      	mov	r3, r5
 8000bd2:	4631      	mov	r1, r6
 8000bd4:	4620      	mov	r0, r4
 8000bd6:	2203      	movs	r2, #3
 8000bd8:	e8bd 4070 	ldmia.w	sp!, {r4, r5, r6, lr}
 8000bdc:	f000 bce4 	b.w	80015a8 <gpio_init>
 8000be0:	4b1a      	ldr	r3, [pc, #104]	; (8000c4c <gpio_fsel(unsigned long, unsigned long, unsigned long)+0xa4>)
 8000be2:	4298      	cmp	r0, r3
 8000be4:	d025      	beq.n	8000c32 <gpio_fsel(unsigned long, unsigned long, unsigned long)+0x8a>
 8000be6:	f503 6380 	add.w	r3, r3, #1024	; 0x400
 8000bea:	4298      	cmp	r0, r3
 8000bec:	d024      	beq.n	8000c38 <gpio_fsel(unsigned long, unsigned long, unsigned long)+0x90>
 8000bee:	f5a3 6300 	sub.w	r3, r3, #2048	; 0x800
 8000bf2:	4298      	cmp	r0, r3
 8000bf4:	d1ec      	bne.n	8000bd0 <gpio_fsel(unsigned long, unsigned long, unsigned long)+0x28>
 8000bf6:	f240 6006 	movw	r0, #1542	; 0x606
 8000bfa:	e011      	b.n	8000c20 <gpio_fsel(unsigned long, unsigned long, unsigned long)+0x78>
 8000bfc:	f240 6002 	movw	r0, #1538	; 0x602
 8000c00:	f000 fd5a 	bl	80016b8 <rcu_periph_clock_enable>
 8000c04:	f5b5 5f00 	cmp.w	r5, #8192	; 0x2000
 8000c08:	d119      	bne.n	8000c3e <gpio_fsel(unsigned long, unsigned long, unsigned long)+0x96>
 8000c0a:	f44f 60c0 	mov.w	r0, #1536	; 0x600
 8000c0e:	f000 fd53 	bl	80016b8 <rcu_periph_clock_enable>
 8000c12:	480f      	ldr	r0, [pc, #60]	; (8000c50 <gpio_fsel(unsigned long, unsigned long, unsigned long)+0xa8>)
 8000c14:	2101      	movs	r1, #1
 8000c16:	f000 fd17 	bl	8001648 <gpio_pin_remap_config>
 8000c1a:	e7d9      	b.n	8000bd0 <gpio_fsel(unsigned long, unsigned long, unsigned long)+0x28>
 8000c1c:	f240 6003 	movw	r0, #1539	; 0x603
 8000c20:	f000 fd4a 	bl	80016b8 <rcu_periph_clock_enable>
 8000c24:	e7d4      	b.n	8000bd0 <gpio_fsel(unsigned long, unsigned long, unsigned long)+0x28>
 8000c26:	f240 6004 	movw	r0, #1540	; 0x604
 8000c2a:	e7f9      	b.n	8000c20 <gpio_fsel(unsigned long, unsigned long, unsigned long)+0x78>
 8000c2c:	f240 6005 	movw	r0, #1541	; 0x605
 8000c30:	e7f6      	b.n	8000c20 <gpio_fsel(unsigned long, unsigned long, unsigned long)+0x78>
 8000c32:	f240 6007 	movw	r0, #1543	; 0x607
 8000c36:	e7f3      	b.n	8000c20 <gpio_fsel(unsigned long, unsigned long, unsigned long)+0x78>
 8000c38:	f44f 60c1 	mov.w	r0, #1544	; 0x608
 8000c3c:	e7f0      	b.n	8000c20 <gpio_fsel(unsigned long, unsigned long, unsigned long)+0x78>
 8000c3e:	f5b5 4f80 	cmp.w	r5, #16384	; 0x4000
 8000c42:	d1c5      	bne.n	8000bd0 <gpio_fsel(unsigned long, unsigned long, unsigned long)+0x28>
 8000c44:	e7e1      	b.n	8000c0a <gpio_fsel(unsigned long, unsigned long, unsigned long)+0x62>
 8000c46:	bf00      	nop
 8000c48:	40011400 	andmi	r1, r1, r0, lsl #8
 8000c4c:	40011c00 	andmi	r1, r1, r0, lsl #24
 8000c50:	00300400 	eorseq	r0, r0, r0, lsl #8

08000c54 <display::timeout::gpio_init()>:
 8000c54:	b510      	push	{r4, lr}
 8000c56:	4c08      	ldr	r4, [pc, #32]	; (8000c78 <display::timeout::gpio_init()+0x24>)
 8000c58:	2248      	movs	r2, #72	; 0x48
 8000c5a:	4620      	mov	r0, r4
 8000c5c:	f44f 5100 	mov.w	r1, #8192	; 0x2000
 8000c60:	f7ff ffa2 	bl	8000ba8 <gpio_fsel(unsigned long, unsigned long, unsigned long)>
 8000c64:	4620      	mov	r0, r4
 8000c66:	f44f 5300 	mov.w	r3, #8192	; 0x2000
 8000c6a:	e8bd 4010 	ldmia.w	sp!, {r4, lr}
 8000c6e:	2203      	movs	r2, #3
 8000c70:	2148      	movs	r1, #72	; 0x48
 8000c72:	f000 bc99 	b.w	80015a8 <gpio_init>
 8000c76:	bf00      	nop
 8000c78:	40011000 	andmi	r1, r1, r0

08000c7c <Display::Detect(display::Type)>:
 8000c7c:	2902      	cmp	r1, #2
 8000c7e:	b538      	push	{r3, r4, r5, lr}
 8000c80:	4604      	mov	r4, r0
 8000c82:	d014      	beq.n	8000cae <Display::Detect(display::Type)+0x32>
 8000c84:	2904      	cmp	r1, #4
 8000c86:	d01b      	beq.n	8000cc0 <Display::Detect(display::Type)+0x44>
 8000c88:	69e0      	ldr	r0, [r4, #28]
 8000c8a:	b168      	cbz	r0, 8000ca8 <Display::Detect(display::Type)+0x2c>
 8000c8c:	6803      	ldr	r3, [r0, #0]
 8000c8e:	689b      	ldr	r3, [r3, #8]
 8000c90:	4798      	blx	r3
 8000c92:	4603      	mov	r3, r0
 8000c94:	69e0      	ldr	r0, [r4, #28]
 8000c96:	b9ab      	cbnz	r3, 8000cc4 <Display::Detect(display::Type)+0x48>
 8000c98:	b110      	cbz	r0, 8000ca0 <Display::Detect(display::Type)+0x24>
 8000c9a:	6803      	ldr	r3, [r0, #0]
 8000c9c:	685b      	ldr	r3, [r3, #4]
 8000c9e:	4798      	blx	r3
 8000ca0:	2300      	movs	r3, #0
 8000ca2:	61e3      	str	r3, [r4, #28]
 8000ca4:	2304      	movs	r3, #4
 8000ca6:	6023      	str	r3, [r4, #0]
 8000ca8:	2300      	movs	r3, #0
 8000caa:	6163      	str	r3, [r4, #20]
 8000cac:	e010      	b.n	8000cd0 <Display::Detect(display::Type)+0x54>
 8000cae:	2020      	movs	r0, #32
 8000cb0:	f000 facc 	bl	800124c <operator new(unsigned int)>
 8000cb4:	2100      	movs	r1, #0
 8000cb6:	4605      	mov	r5, r0
 8000cb8:	f000 f8bc 	bl	8000e34 <Ssd1306::Ssd1306(TOledPanel)>
 8000cbc:	61e5      	str	r5, [r4, #28]
 8000cbe:	e7e3      	b.n	8000c88 <Display::Detect(display::Type)+0xc>
 8000cc0:	6001      	str	r1, [r0, #0]
 8000cc2:	e7e1      	b.n	8000c88 <Display::Detect(display::Type)+0xc>
 8000cc4:	6803      	ldr	r3, [r0, #0]
 8000cc6:	68db      	ldr	r3, [r3, #12]
 8000cc8:	4798      	blx	r3
 8000cca:	69e3      	ldr	r3, [r4, #28]
 8000ccc:	2b00      	cmp	r3, #0
 8000cce:	d0eb      	beq.n	8000ca8 <Display::Detect(display::Type)+0x2c>
 8000cd0:	bd38      	pop	{r3, r4, r5, pc}
	...

08000cd4 <Display::Display()>:
 8000cd4:	2304      	movs	r3, #4
 8000cd6:	b510      	push	{r4, lr}
 8000cd8:	6003      	str	r3, [r0, #0]
 8000cda:	4b0e      	ldr	r3, [pc, #56]	; (8000d14 <Display::Display()+0x40>)
 8000cdc:	4a0e      	ldr	r2, [pc, #56]	; (8000d18 <Display::Display()+0x44>)
 8000cde:	681b      	ldr	r3, [r3, #0]
 8000ce0:	6043      	str	r3, [r0, #4]
 8000ce2:	2321      	movs	r3, #33	; 0x21
 8000ce4:	7203      	strb	r3, [r0, #8]
 8000ce6:	4b0d      	ldr	r3, [pc, #52]	; (8000d1c <Display::Display()+0x48>)
 8000ce8:	60c3      	str	r3, [r0, #12]
 8000cea:	2300      	movs	r3, #0
 8000cec:	4604      	mov	r4, r0
 8000cee:	8203      	strh	r3, [r0, #16]
 8000cf0:	6142      	str	r2, [r0, #20]
 8000cf2:	61c3      	str	r3, [r0, #28]
 8000cf4:	227f      	movs	r2, #127	; 0x7f
 8000cf6:	4b0a      	ldr	r3, [pc, #40]	; (8000d20 <Display::Display()+0x4c>)
 8000cf8:	8302      	strh	r2, [r0, #24]
 8000cfa:	2102      	movs	r1, #2
 8000cfc:	6018      	str	r0, [r3, #0]
 8000cfe:	f7ff ffbd 	bl	8000c7c <Display::Detect(display::Type)>
 8000d02:	69e3      	ldr	r3, [r4, #28]
 8000d04:	b10b      	cbz	r3, 8000d0a <Display::Display()+0x36>
 8000d06:	f7ff ffa5 	bl	8000c54 <display::timeout::gpio_init()>
 8000d0a:	69e0      	ldr	r0, [r4, #28]
 8000d0c:	f7ff ff42 	bl	8000b94 <Display::PrintInfo() [clone .isra.0]>
 8000d10:	4620      	mov	r0, r4
 8000d12:	bd10      	pop	{r4, pc}
 8000d14:	20001114 	andcs	r1, r0, r4, lsl r1
 8000d18:	000493e0 	andeq	r9, r4, r0, ror #7
 8000d1c:	00061a80 	andeq	r1, r6, r0, lsl #21
 8000d20:	20001080 	andcs	r1, r0, r0, lsl #1

08000d24 <Ssd1306::~Ssd1306()>:
 8000d24:	4770      	bx	lr

08000d26 <Ssd1306::SetCursor(unsigned long)>:
 8000d26:	4770      	bx	lr

08000d28 <Ssd1306::PrintInfo()>:
 8000d28:	b410      	push	{r4}
 8000d2a:	e9d0 3201 	ldrd	r3, r2, [r0, #4]
 8000d2e:	7e44      	ldrb	r4, [r0, #25]
 8000d30:	4904      	ldr	r1, [pc, #16]	; (8000d44 <Ssd1306::PrintInfo()+0x1c>)
 8000d32:	4805      	ldr	r0, [pc, #20]	; (8000d48 <Ssd1306::PrintInfo()+0x20>)
 8000d34:	2c00      	cmp	r4, #0
 8000d36:	bf18      	it	ne
 8000d38:	4601      	movne	r1, r0
 8000d3a:	4804      	ldr	r0, [pc, #16]	; (8000d4c <Ssd1306::PrintInfo()+0x24>)
 8000d3c:	f85d 4b04 	ldr.w	r4, [sp], #4
 8000d40:	f7ff be90 	b.w	8000a64 <printf>
 8000d44:	08002706 	stmdaeq	r0, {r1, r2, r8, r9, sl, sp}
 8000d48:	080026ff 	stmdaeq	r0, {r0, r1, r2, r3, r4, r5, r6, r7, r9, sl, sp}
 8000d4c:	0800270e 	stmdaeq	r0, {r1, r2, r3, r8, r9, sl, sp}

08000d50 <Ssd1306::~Ssd1306()>:
 8000d50:	b510      	push	{r4, lr}
 8000d52:	2120      	movs	r1, #32
 8000d54:	4604      	mov	r4, r0
 8000d56:	f000 fa77 	bl	8001248 <operator delete(void*, unsigned int)>
 8000d5a:	4620      	mov	r0, r4
 8000d5c:	bd10      	pop	{r4, pc}

08000d5e <HAL_I2C::Setup()>:
 8000d5e:	b510      	push	{r4, lr}
 8000d60:	4604      	mov	r4, r0
 8000d62:	7800      	ldrb	r0, [r0, #0]
 8000d64:	f000 ff26 	bl	8001bb4 <gd32_i2c_set_address>
 8000d68:	6860      	ldr	r0, [r4, #4]
 8000d6a:	e8bd 4010 	ldmia.w	sp!, {r4, lr}
 8000d6e:	f000 bf19 	b.w	8001ba4 <gd32_i2c_set_baudrate>
	...

08000d74 <Ssd1306::PutChar(int)>:
 8000d74:	b510      	push	{r4, lr}
 8000d76:	f1a1 0420 	sub.w	r4, r1, #32
 8000d7a:	2c5f      	cmp	r4, #95	; 0x5f
 8000d7c:	f100 0010 	add.w	r0, r0, #16
 8000d80:	bf88      	it	hi
 8000d82:	2400      	movhi	r4, #0
 8000d84:	f7ff ffeb 	bl	8000d5e <HAL_I2C::Setup()>
 8000d88:	4804      	ldr	r0, [pc, #16]	; (8000d9c <Ssd1306::PutChar(int)+0x28>)
 8000d8a:	ebc4 04c4 	rsb	r4, r4, r4, lsl #3
 8000d8e:	4420      	add	r0, r4
 8000d90:	2107      	movs	r1, #7
 8000d92:	e8bd 4010 	ldmia.w	sp!, {r4, lr}
 8000d96:	f000 bf13 	b.w	8001bc0 <gd32_i2c_write>
 8000d9a:	bf00      	nop
 8000d9c:	08002790 	stmdaeq	r0, {r4, r7, r8, r9, sl, sp}

08000da0 <Ssd1306::PutString(char const*)>:
 8000da0:	b5f8      	push	{r3, r4, r5, r6, r7, lr}
 8000da2:	4604      	mov	r4, r0
 8000da4:	460e      	mov	r6, r1
 8000da6:	460f      	mov	r7, r1
 8000da8:	463d      	mov	r5, r7
 8000daa:	f817 1b01 	ldrb.w	r1, [r7], #1
 8000dae:	b939      	cbnz	r1, 8000dc0 <Ssd1306::PutString(char const*)+0x20>
 8000db0:	7b23      	ldrb	r3, [r4, #12]
 8000db2:	b123      	cbz	r3, 8000dbe <Ssd1306::PutString(char const*)+0x1e>
 8000db4:	7321      	strb	r1, [r4, #12]
 8000db6:	1bad      	subs	r5, r5, r6
 8000db8:	6863      	ldr	r3, [r4, #4]
 8000dba:	42ab      	cmp	r3, r5
 8000dbc:	d804      	bhi.n	8000dc8 <Ssd1306::PutString(char const*)+0x28>
 8000dbe:	bdf8      	pop	{r3, r4, r5, r6, r7, pc}
 8000dc0:	4620      	mov	r0, r4
 8000dc2:	f7ff ffd7 	bl	8000d74 <Ssd1306::PutChar(int)>
 8000dc6:	e7ef      	b.n	8000da8 <Ssd1306::PutString(char const*)+0x8>
 8000dc8:	2120      	movs	r1, #32
 8000dca:	4620      	mov	r0, r4
 8000dcc:	f7ff ffd2 	bl	8000d74 <Ssd1306::PutChar(int)>
 8000dd0:	3501      	adds	r5, #1
 8000dd2:	e7f1      	b.n	8000db8 <Ssd1306::PutString(char const*)+0x18>

08000dd4 <Ssd1306::Text(char const*, unsigned long)>:
 8000dd4:	b5f8      	push	{r3, r4, r5, r6, r7, lr}
 8000dd6:	6843      	ldr	r3, [r0, #4]
 8000dd8:	429a      	cmp	r2, r3
 8000dda:	bf28      	it	cs
 8000ddc:	461a      	movcs	r2, r3
 8000dde:	4604      	mov	r4, r0
 8000de0:	4615      	mov	r5, r2
 8000de2:	460e      	mov	r6, r1
 8000de4:	188f      	adds	r7, r1, r2
 8000de6:	42be      	cmp	r6, r7
 8000de8:	d107      	bne.n	8000dfa <Ssd1306::Text(char const*, unsigned long)+0x26>
 8000dea:	7b23      	ldrb	r3, [r4, #12]
 8000dec:	b123      	cbz	r3, 8000df8 <Ssd1306::Text(char const*, unsigned long)+0x24>
 8000dee:	2300      	movs	r3, #0
 8000df0:	7323      	strb	r3, [r4, #12]
 8000df2:	6863      	ldr	r3, [r4, #4]
 8000df4:	42ab      	cmp	r3, r5
 8000df6:	d806      	bhi.n	8000e06 <Ssd1306::Text(char const*, unsigned long)+0x32>
 8000df8:	bdf8      	pop	{r3, r4, r5, r6, r7, pc}
 8000dfa:	f816 1b01 	ldrb.w	r1, [r6], #1
 8000dfe:	4620      	mov	r0, r4
 8000e00:	f7ff ffb8 	bl	8000d74 <Ssd1306::PutChar(int)>
 8000e04:	e7ef      	b.n	8000de6 <Ssd1306::Text(char const*, unsigned long)+0x12>
 8000e06:	2120      	movs	r1, #32
 8000e08:	4620      	mov	r0, r4
 8000e0a:	f7ff ffb3 	bl	8000d74 <Ssd1306::PutChar(int)>
 8000e0e:	3501      	adds	r5, #1
 8000e10:	e7ef      	b.n	8000df2 <Ssd1306::Text(char const*, unsigned long)+0x1e>

08000e12 <Ssd1306::InitMembers()>:
 8000e12:	2315      	movs	r3, #21
 8000e14:	6043      	str	r3, [r0, #4]
 8000e16:	7e03      	ldrb	r3, [r0, #24]
 8000e18:	b12b      	cbz	r3, 8000e26 <Ssd1306::InitMembers()+0x14>
 8000e1a:	3b01      	subs	r3, #1
 8000e1c:	2b01      	cmp	r3, #1
 8000e1e:	d807      	bhi.n	8000e30 <Ssd1306::InitMembers()+0x1e>
 8000e20:	2304      	movs	r3, #4
 8000e22:	2204      	movs	r2, #4
 8000e24:	e001      	b.n	8000e2a <Ssd1306::InitMembers()+0x18>
 8000e26:	2308      	movs	r3, #8
 8000e28:	461a      	mov	r2, r3
 8000e2a:	6083      	str	r3, [r0, #8]
 8000e2c:	61c2      	str	r2, [r0, #28]
 8000e2e:	4770      	bx	lr
 8000e30:	2308      	movs	r3, #8
 8000e32:	e7f6      	b.n	8000e22 <Ssd1306::InitMembers()+0x10>

08000e34 <Ssd1306::Ssd1306(TOledPanel)>:
 8000e34:	b510      	push	{r4, lr}
 8000e36:	4c07      	ldr	r4, [pc, #28]	; (8000e54 <Ssd1306::Ssd1306(TOledPanel)+0x20>)
 8000e38:	6004      	str	r4, [r0, #0]
 8000e3a:	2200      	movs	r2, #0
 8000e3c:	243c      	movs	r4, #60	; 0x3c
 8000e3e:	7302      	strb	r2, [r0, #12]
 8000e40:	7404      	strb	r4, [r0, #16]
 8000e42:	7642      	strb	r2, [r0, #25]
 8000e44:	4c04      	ldr	r4, [pc, #16]	; (8000e58 <Ssd1306::Ssd1306(TOledPanel)+0x24>)
 8000e46:	4a05      	ldr	r2, [pc, #20]	; (8000e5c <Ssd1306::Ssd1306(TOledPanel)+0x28>)
 8000e48:	6144      	str	r4, [r0, #20]
 8000e4a:	7601      	strb	r1, [r0, #24]
 8000e4c:	6010      	str	r0, [r2, #0]
 8000e4e:	f7ff ffe0 	bl	8000e12 <Ssd1306::InitMembers()>
 8000e52:	bd10      	pop	{r4, pc}
 8000e54:	08002728 	stmdaeq	r0, {r3, r5, r8, r9, sl, sp}
 8000e58:	00061a80 	andeq	r1, r6, r0, lsl #21
 8000e5c:	20001084 	andcs	r1, r0, r4, lsl #1

08000e60 <Ssd1306::SendCommand(unsigned char)>:
 8000e60:	b507      	push	{r0, r1, r2, lr}
 8000e62:	2300      	movs	r3, #0
 8000e64:	3010      	adds	r0, #16
 8000e66:	f88d 3004 	strb.w	r3, [sp, #4]
 8000e6a:	f88d 1005 	strb.w	r1, [sp, #5]
 8000e6e:	f7ff ff76 	bl	8000d5e <HAL_I2C::Setup()>
 8000e72:	2102      	movs	r1, #2
 8000e74:	a801      	add	r0, sp, #4
 8000e76:	f000 fea3 	bl	8001bc0 <gd32_i2c_write>
 8000e7a:	b003      	add	sp, #12
 8000e7c:	f85d fb04 	ldr.w	pc, [sp], #4

08000e80 <Ssd1306::SetCursorPos(unsigned long, unsigned long)>:
 8000e80:	2914      	cmp	r1, #20
 8000e82:	b570      	push	{r4, r5, r6, lr}
 8000e84:	4605      	mov	r5, r0
 8000e86:	4616      	mov	r6, r2
 8000e88:	d81d      	bhi.n	8000ec6 <Ssd1306::SetCursorPos(unsigned long, unsigned long)+0x46>
 8000e8a:	6883      	ldr	r3, [r0, #8]
 8000e8c:	4293      	cmp	r3, r2
 8000e8e:	d91a      	bls.n	8000ec6 <Ssd1306::SetCursorPos(unsigned long, unsigned long)+0x46>
 8000e90:	eb01 0141 	add.w	r1, r1, r1, lsl #1
 8000e94:	7e43      	ldrb	r3, [r0, #25]
 8000e96:	004c      	lsls	r4, r1, #1
 8000e98:	b2e4      	uxtb	r4, r4
 8000e9a:	b10b      	cbz	r3, 8000ea0 <Ssd1306::SetCursorPos(unsigned long, unsigned long)+0x20>
 8000e9c:	3404      	adds	r4, #4
 8000e9e:	b2e4      	uxtb	r4, r4
 8000ea0:	f004 010e 	and.w	r1, r4, #14
 8000ea4:	4628      	mov	r0, r5
 8000ea6:	f7ff ffdb 	bl	8000e60 <Ssd1306::SendCommand(unsigned char)>
 8000eaa:	0921      	lsrs	r1, r4, #4
 8000eac:	4628      	mov	r0, r5
 8000eae:	f041 0110 	orr.w	r1, r1, #16
 8000eb2:	f7ff ffd5 	bl	8000e60 <Ssd1306::SendCommand(unsigned char)>
 8000eb6:	f066 014f 	orn	r1, r6, #79	; 0x4f
 8000eba:	4628      	mov	r0, r5
 8000ebc:	b2c9      	uxtb	r1, r1
 8000ebe:	e8bd 4070 	ldmia.w	sp!, {r4, r5, r6, lr}
 8000ec2:	f7ff bfcd 	b.w	8000e60 <Ssd1306::SendCommand(unsigned char)>
 8000ec6:	bd70      	pop	{r4, r5, r6, pc}

08000ec8 <Ssd1306::TextLine(unsigned long, char const*, unsigned long)>:
 8000ec8:	b570      	push	{r4, r5, r6, lr}
 8000eca:	461e      	mov	r6, r3
 8000ecc:	6883      	ldr	r3, [r0, #8]
 8000ece:	428b      	cmp	r3, r1
 8000ed0:	4604      	mov	r4, r0
 8000ed2:	4615      	mov	r5, r2
 8000ed4:	d30b      	bcc.n	8000eee <Ssd1306::TextLine(unsigned long, char const*, unsigned long)+0x26>
 8000ed6:	3901      	subs	r1, #1
 8000ed8:	b2ca      	uxtb	r2, r1
 8000eda:	2100      	movs	r1, #0
 8000edc:	f7ff ffd0 	bl	8000e80 <Ssd1306::SetCursorPos(unsigned long, unsigned long)>
 8000ee0:	4632      	mov	r2, r6
 8000ee2:	4629      	mov	r1, r5
 8000ee4:	4620      	mov	r0, r4
 8000ee6:	e8bd 4070 	ldmia.w	sp!, {r4, r5, r6, lr}
 8000eea:	f7ff bf73 	b.w	8000dd4 <Ssd1306::Text(char const*, unsigned long)>
 8000eee:	bd70      	pop	{r4, r5, r6, pc}

08000ef0 <Ssd1306::ClearLine(unsigned long)>:
 8000ef0:	b538      	push	{r3, r4, r5, lr}
 8000ef2:	6883      	ldr	r3, [r0, #8]
 8000ef4:	428b      	cmp	r3, r1
 8000ef6:	4605      	mov	r5, r0
 8000ef8:	d314      	bcc.n	8000f24 <Ssd1306::ClearLine(unsigned long)+0x34>
 8000efa:	3901      	subs	r1, #1
 8000efc:	b2cc      	uxtb	r4, r1
 8000efe:	4622      	mov	r2, r4
 8000f00:	2100      	movs	r1, #0
 8000f02:	f7ff ffbd 	bl	8000e80 <Ssd1306::SetCursorPos(unsigned long, unsigned long)>
 8000f06:	f105 0010 	add.w	r0, r5, #16
 8000f0a:	f7ff ff28 	bl	8000d5e <HAL_I2C::Setup()>
 8000f0e:	2181      	movs	r1, #129	; 0x81
 8000f10:	4805      	ldr	r0, [pc, #20]	; (8000f28 <Ssd1306::ClearLine(unsigned long)+0x38>)
 8000f12:	f000 fe55 	bl	8001bc0 <gd32_i2c_write>
 8000f16:	4622      	mov	r2, r4
 8000f18:	4628      	mov	r0, r5
 8000f1a:	2100      	movs	r1, #0
 8000f1c:	e8bd 4038 	ldmia.w	sp!, {r3, r4, r5, lr}
 8000f20:	f7ff bfae 	b.w	8000e80 <Ssd1306::SetCursorPos(unsigned long, unsigned long)>
 8000f24:	bd38      	pop	{r3, r4, r5, pc}
 8000f26:	bf00      	nop
 8000f28:	20001088 	andcs	r1, r0, r8, lsl #1

08000f2c <Ssd1306::SetSleep(bool)>:
 8000f2c:	b111      	cbz	r1, 8000f34 <Ssd1306::SetSleep(bool)+0x8>
 8000f2e:	21ae      	movs	r1, #174	; 0xae
 8000f30:	f7ff bf96 	b.w	8000e60 <Ssd1306::SendCommand(unsigned char)>
 8000f34:	21af      	movs	r1, #175	; 0xaf
 8000f36:	e7fb      	b.n	8000f30 <Ssd1306::SetSleep(bool)+0x4>

08000f38 <Ssd1306::SetContrast(unsigned char)>:
 8000f38:	b538      	push	{r3, r4, r5, lr}
 8000f3a:	4604      	mov	r4, r0
 8000f3c:	460d      	mov	r5, r1
 8000f3e:	2181      	movs	r1, #129	; 0x81
 8000f40:	f7ff ff8e 	bl	8000e60 <Ssd1306::SendCommand(unsigned char)>
 8000f44:	4629      	mov	r1, r5
 8000f46:	4620      	mov	r0, r4
 8000f48:	e8bd 4038 	ldmia.w	sp!, {r3, r4, r5, lr}
 8000f4c:	f7ff bf88 	b.w	8000e60 <Ssd1306::SendCommand(unsigned char)>

08000f50 <Ssd1306::SetFlipVertically(bool)>:
 8000f50:	b510      	push	{r4, lr}
 8000f52:	4604      	mov	r4, r0
 8000f54:	b141      	cbz	r1, 8000f68 <Ssd1306::SetFlipVertically(bool)+0x18>
 8000f56:	21a0      	movs	r1, #160	; 0xa0
 8000f58:	f7ff ff82 	bl	8000e60 <Ssd1306::SendCommand(unsigned char)>
 8000f5c:	21c0      	movs	r1, #192	; 0xc0
 8000f5e:	4620      	mov	r0, r4
 8000f60:	e8bd 4010 	ldmia.w	sp!, {r4, lr}
 8000f64:	f7ff bf7c 	b.w	8000e60 <Ssd1306::SendCommand(unsigned char)>
 8000f68:	21a1      	movs	r1, #161	; 0xa1
 8000f6a:	f7ff ff79 	bl	8000e60 <Ssd1306::SendCommand(unsigned char)>
 8000f6e:	21c8      	movs	r1, #200	; 0xc8
 8000f70:	e7f5      	b.n	8000f5e <Ssd1306::SetFlipVertically(bool)+0xe>
	...

08000f74 <Ssd1306::CheckSH1106()>:
 8000f74:	b530      	push	{r4, r5, lr}
 8000f76:	2100      	movs	r1, #0
 8000f78:	b087      	sub	sp, #28
 8000f7a:	4604      	mov	r4, r0
 8000f7c:	f7ff ff70 	bl	8000e60 <Ssd1306::SendCommand(unsigned char)>
 8000f80:	2190      	movs	r1, #144	; 0x90
 8000f82:	4620      	mov	r0, r4
 8000f84:	f7ff ff6c 	bl	8000e60 <Ssd1306::SendCommand(unsigned char)>
 8000f88:	21b0      	movs	r1, #176	; 0xb0
 8000f8a:	4620      	mov	r0, r4
 8000f8c:	f7ff ff68 	bl	8000e60 <Ssd1306::SendCommand(unsigned char)>
 8000f90:	4b21      	ldr	r3, [pc, #132]	; (8001018 <Ssd1306::CheckSH1106()+0xa4>)
 8000f92:	f104 0510 	add.w	r5, r4, #16
 8000f96:	6818      	ldr	r0, [r3, #0]
 8000f98:	9002      	str	r0, [sp, #8]
 8000f9a:	791b      	ldrb	r3, [r3, #4]
 8000f9c:	f88d 300c 	strb.w	r3, [sp, #12]
 8000fa0:	4628      	mov	r0, r5
 8000fa2:	f7ff fedc 	bl	8000d5e <HAL_I2C::Setup()>
 8000fa6:	2105      	movs	r1, #5
 8000fa8:	a802      	add	r0, sp, #8
 8000faa:	f000 fe09 	bl	8001bc0 <gd32_i2c_write>
 8000fae:	2100      	movs	r1, #0
 8000fb0:	4620      	mov	r0, r4
 8000fb2:	f7ff ff55 	bl	8000e60 <Ssd1306::SendCommand(unsigned char)>
 8000fb6:	2190      	movs	r1, #144	; 0x90
 8000fb8:	4620      	mov	r0, r4
 8000fba:	f7ff ff51 	bl	8000e60 <Ssd1306::SendCommand(unsigned char)>
 8000fbe:	21b0      	movs	r1, #176	; 0xb0
 8000fc0:	4620      	mov	r0, r4
 8000fc2:	f7ff ff4d 	bl	8000e60 <Ssd1306::SendCommand(unsigned char)>
 8000fc6:	2300      	movs	r3, #0
 8000fc8:	4628      	mov	r0, r5
 8000fca:	9304      	str	r3, [sp, #16]
 8000fcc:	f88d 3014 	strb.w	r3, [sp, #20]
 8000fd0:	f7ff fec5 	bl	8000d5e <HAL_I2C::Setup()>
 8000fd4:	2340      	movs	r3, #64	; 0x40
 8000fd6:	2101      	movs	r1, #1
 8000fd8:	a801      	add	r0, sp, #4
 8000fda:	f88d 3004 	strb.w	r3, [sp, #4]
 8000fde:	f000 fdef 	bl	8001bc0 <gd32_i2c_write>
 8000fe2:	4628      	mov	r0, r5
 8000fe4:	f7ff febb 	bl	8000d5e <HAL_I2C::Setup()>
 8000fe8:	2105      	movs	r1, #5
 8000fea:	a804      	add	r0, sp, #16
 8000fec:	f000 fe4e 	bl	8001c8c <gd32_i2c_read>
 8000ff0:	aa02      	add	r2, sp, #8
 8000ff2:	a904      	add	r1, sp, #16
 8000ff4:	2304      	movs	r3, #4
 8000ff6:	f812 5f01 	ldrb.w	r5, [r2, #1]!
 8000ffa:	f811 0f01 	ldrb.w	r0, [r1, #1]!
 8000ffe:	4285      	cmp	r5, r0
 8001000:	d006      	beq.n	8001010 <Ssd1306::CheckSH1106()+0x9c>
 8001002:	1a2b      	subs	r3, r5, r0
 8001004:	fab3 f383 	clz	r3, r3
 8001008:	095b      	lsrs	r3, r3, #5
 800100a:	7663      	strb	r3, [r4, #25]
 800100c:	b007      	add	sp, #28
 800100e:	bd30      	pop	{r4, r5, pc}
 8001010:	3b01      	subs	r3, #1
 8001012:	d1f0      	bne.n	8000ff6 <Ssd1306::CheckSH1106()+0x82>
 8001014:	e7f6      	b.n	8001004 <Ssd1306::CheckSH1106()+0x90>
 8001016:	bf00      	nop
 8001018:	0800271a 	stmdaeq	r0, {r1, r3, r4, r8, r9, sl, sp}

0800101c <Ssd1306::Cls()>:
 800101c:	e92d 43f8 	stmdb	sp!, {r3, r4, r5, r6, r7, r8, r9, lr}
 8001020:	7e46      	ldrb	r6, [r0, #25]
 8001022:	f8df 9060 	ldr.w	r9, [pc, #96]	; 8001084 <Ssd1306::Cls()+0x68>
 8001026:	00b6      	lsls	r6, r6, #2
 8001028:	b2f7      	uxtb	r7, r6
 800102a:	4604      	mov	r4, r0
 800102c:	2500      	movs	r5, #0
 800102e:	f047 0810 	orr.w	r8, r7, #16
 8001032:	69e3      	ldr	r3, [r4, #28]
 8001034:	42ab      	cmp	r3, r5
 8001036:	4639      	mov	r1, r7
 8001038:	4620      	mov	r0, r4
 800103a:	d80b      	bhi.n	8001054 <Ssd1306::Cls()+0x38>
 800103c:	f7ff ff10 	bl	8000e60 <Ssd1306::SendCommand(unsigned char)>
 8001040:	4641      	mov	r1, r8
 8001042:	4620      	mov	r0, r4
 8001044:	f7ff ff0c 	bl	8000e60 <Ssd1306::SendCommand(unsigned char)>
 8001048:	4620      	mov	r0, r4
 800104a:	21b0      	movs	r1, #176	; 0xb0
 800104c:	e8bd 43f8 	ldmia.w	sp!, {r3, r4, r5, r6, r7, r8, r9, lr}
 8001050:	f7ff bf06 	b.w	8000e60 <Ssd1306::SendCommand(unsigned char)>
 8001054:	f7ff ff04 	bl	8000e60 <Ssd1306::SendCommand(unsigned char)>
 8001058:	4641      	mov	r1, r8
 800105a:	4620      	mov	r0, r4
 800105c:	f7ff ff00 	bl	8000e60 <Ssd1306::SendCommand(unsigned char)>
 8001060:	f065 014f 	orn	r1, r5, #79	; 0x4f
 8001064:	b2c9      	uxtb	r1, r1
 8001066:	4620      	mov	r0, r4
 8001068:	f7ff fefa 	bl	8000e60 <Ssd1306::SendCommand(unsigned char)>
 800106c:	f104 0010 	add.w	r0, r4, #16
 8001070:	f7ff fe75 	bl	8000d5e <HAL_I2C::Setup()>
 8001074:	f106 0181 	add.w	r1, r6, #129	; 0x81
 8001078:	4648      	mov	r0, r9
 800107a:	f000 fda1 	bl	8001bc0 <gd32_i2c_write>
 800107e:	3501      	adds	r5, #1
 8001080:	e7d7      	b.n	8001032 <Ssd1306::Cls()+0x16>
 8001082:	bf00      	nop
 8001084:	20001088 	andcs	r1, r0, r8, lsl #1

08001088 <Ssd1306::Start()>:
 8001088:	b5f7      	push	{r0, r1, r2, r4, r5, r6, r7, lr}
 800108a:	7c04      	ldrb	r4, [r0, #16]
 800108c:	6946      	ldr	r6, [r0, #20]
 800108e:	4605      	mov	r5, r0
 8001090:	4620      	mov	r0, r4
 8001092:	f000 fd8f 	bl	8001bb4 <gd32_i2c_set_address>
 8001096:	4630      	mov	r0, r6
 8001098:	f000 fd84 	bl	8001ba4 <gd32_i2c_set_baudrate>
 800109c:	f1a4 0330 	sub.w	r3, r4, #48	; 0x30
 80010a0:	2b07      	cmp	r3, #7
 80010a2:	d902      	bls.n	80010aa <Ssd1306::Start()+0x22>
 80010a4:	3c50      	subs	r4, #80	; 0x50
 80010a6:	2c0f      	cmp	r4, #15
 80010a8:	d80f      	bhi.n	80010ca <Ssd1306::Start()+0x42>
 80010aa:	2101      	movs	r1, #1
 80010ac:	f10d 0007 	add.w	r0, sp, #7
 80010b0:	f000 fdec 	bl	8001c8c <gd32_i2c_read>
 80010b4:	fab0 f480 	clz	r4, r0
 80010b8:	0964      	lsrs	r4, r4, #5
 80010ba:	b34c      	cbz	r4, 8001110 <Ssd1306::Start()+0x88>
 80010bc:	7e2e      	ldrb	r6, [r5, #24]
 80010be:	b14e      	cbz	r6, 80010d4 <Ssd1306::Start()+0x4c>
 80010c0:	3e01      	subs	r6, #1
 80010c2:	2e01      	cmp	r6, #1
 80010c4:	d927      	bls.n	8001116 <Ssd1306::Start()+0x8e>
 80010c6:	2400      	movs	r4, #0
 80010c8:	e022      	b.n	8001110 <Ssd1306::Start()+0x88>
 80010ca:	2100      	movs	r1, #0
 80010cc:	4608      	mov	r0, r1
 80010ce:	f000 fd77 	bl	8001bc0 <gd32_i2c_write>
 80010d2:	e7ef      	b.n	80010b4 <Ssd1306::Start()+0x2c>
 80010d4:	4f15      	ldr	r7, [pc, #84]	; (800112c <Ssd1306::Start()+0xa4>)
 80010d6:	f817 1b01 	ldrb.w	r1, [r7], #1
 80010da:	4628      	mov	r0, r5
 80010dc:	3601      	adds	r6, #1
 80010de:	f7ff febf 	bl	8000e60 <Ssd1306::SendCommand(unsigned char)>
 80010e2:	2e18      	cmp	r6, #24
 80010e4:	d1f7      	bne.n	80010d6 <Ssd1306::Start()+0x4e>
 80010e6:	4a12      	ldr	r2, [pc, #72]	; (8001130 <Ssd1306::Start()+0xa8>)
 80010e8:	2300      	movs	r3, #0
 80010ea:	4611      	mov	r1, r2
 80010ec:	4618      	mov	r0, r3
 80010ee:	3301      	adds	r3, #1
 80010f0:	2b86      	cmp	r3, #134	; 0x86
 80010f2:	f802 0b01 	strb.w	r0, [r2], #1
 80010f6:	d1fa      	bne.n	80010ee <Ssd1306::Start()+0x66>
 80010f8:	2340      	movs	r3, #64	; 0x40
 80010fa:	4628      	mov	r0, r5
 80010fc:	700b      	strb	r3, [r1, #0]
 80010fe:	f7ff ff39 	bl	8000f74 <Ssd1306::CheckSH1106()>
 8001102:	4628      	mov	r0, r5
 8001104:	f7ff ff8a 	bl	800101c <Ssd1306::Cls()>
 8001108:	21af      	movs	r1, #175	; 0xaf
 800110a:	4628      	mov	r0, r5
 800110c:	f7ff fea8 	bl	8000e60 <Ssd1306::SendCommand(unsigned char)>
 8001110:	4620      	mov	r0, r4
 8001112:	b003      	add	sp, #12
 8001114:	bdf0      	pop	{r4, r5, r6, r7, pc}
 8001116:	4f07      	ldr	r7, [pc, #28]	; (8001134 <Ssd1306::Start()+0xac>)
 8001118:	2600      	movs	r6, #0
 800111a:	f817 1b01 	ldrb.w	r1, [r7], #1
 800111e:	4628      	mov	r0, r5
 8001120:	3601      	adds	r6, #1
 8001122:	f7ff fe9d 	bl	8000e60 <Ssd1306::SendCommand(unsigned char)>
 8001126:	2e18      	cmp	r6, #24
 8001128:	d1f7      	bne.n	800111a <Ssd1306::Start()+0x92>
 800112a:	e7dc      	b.n	80010e6 <Ssd1306::Start()+0x5e>
 800112c:	08002778 	stmdaeq	r0, {r3, r4, r5, r6, r8, r9, sl, sp}
 8001130:	20001088 	andcs	r1, r0, r8, lsl #1
 8001134:	08002760 	stmdaeq	r0, {r5, r6, r8, r9, sl, sp}

08001138 <console_putc>:
 8001138:	f000 be5e 	b.w	8001df8 <uart0_putc>

0800113c <console_puts>:
 800113c:	f000 bc2b 	b.w	8001996 <uart0_puts>

08001140 <Hardware::Hardware()>:
 8001140:	b570      	push	{r4, r5, r6, lr}
 8001142:	2306      	movs	r3, #6
 8001144:	2500      	movs	r5, #0
 8001146:	6143      	str	r3, [r0, #20]
 8001148:	f44f 73fa 	mov.w	r3, #500	; 0x1f4
 800114c:	e9c0 3507 	strd	r3, r5, [r0, #28]
 8001150:	4b2d      	ldr	r3, [pc, #180]	; (8001208 <Hardware::Hardware()+0xc8>)
 8001152:	7405      	strb	r5, [r0, #16]
 8001154:	b090      	sub	sp, #64	; 0x40
 8001156:	4604      	mov	r4, r0
 8001158:	7605      	strb	r5, [r0, #24]
 800115a:	6245      	str	r5, [r0, #36]	; 0x24
 800115c:	6018      	str	r0, [r3, #0]
 800115e:	4e2b      	ldr	r6, [pc, #172]	; (800120c <Hardware::Hardware()+0xcc>)
 8001160:	f7fe ffe6 	bl	8000130 <console_init>
 8001164:	f000 fc26 	bl	80019b4 <systick_config>
 8001168:	f000 fc4a 	bl	8001a00 <udelay_init()>
 800116c:	4620      	mov	r0, r4
 800116e:	f000 f84f 	bl	8001210 <hal::uuid_init(unsigned char*)>
 8001172:	f000 fc87 	bl	8001a84 <gd32_adc_init()>
 8001176:	f000 fcdf 	bl	8001b38 <gd32_i2c_begin>
 800117a:	f240 7004 	movw	r0, #1796	; 0x704
 800117e:	f000 fa9b 	bl	80016b8 <rcu_periph_clock_enable>
 8001182:	4630      	mov	r0, r6
 8001184:	f000 fb62 	bl	800184c <timer_deinit>
 8001188:	2377      	movs	r3, #119	; 0x77
 800118a:	a903      	add	r1, sp, #12
 800118c:	f8ad 300c 	strh.w	r3, [sp, #12]
 8001190:	4630      	mov	r0, r6
 8001192:	f04f 33ff 	mov.w	r3, #4294967295	; 0xffffffff
 8001196:	9305      	str	r3, [sp, #20]
 8001198:	f000 fbba 	bl	8001910 <timer_init>
 800119c:	4630      	mov	r0, r6
 800119e:	f000 fbf5 	bl	800198c <timer_enable>
 80011a2:	f240 701b 	movw	r0, #1819	; 0x71b
 80011a6:	f000 fa87 	bl	80016b8 <rcu_periph_clock_enable>
 80011aa:	f240 701c 	movw	r0, #1820	; 0x71c
 80011ae:	f000 fa83 	bl	80016b8 <rcu_periph_clock_enable>
 80011b2:	f000 fa79 	bl	80016a8 <pmu_backup_write_enable>
 80011b6:	4629      	mov	r1, r5
 80011b8:	2002      	movs	r0, #2
 80011ba:	f000 f9df 	bl	800157c <bkp_write_data>
 80011be:	2601      	movs	r6, #1
 80011c0:	230d      	movs	r3, #13
 80011c2:	e9cd 360a 	strd	r3, r6, [sp, #40]	; 0x28
 80011c6:	a807      	add	r0, sp, #28
 80011c8:	237c      	movs	r3, #124	; 0x7c
 80011ca:	930c      	str	r3, [sp, #48]	; 0x30
 80011cc:	e9cd 5508 	strd	r5, r5, [sp, #32]
 80011d0:	9507      	str	r5, [sp, #28]
 80011d2:	950f      	str	r5, [sp, #60]	; 0x3c
 80011d4:	f000 f8ec 	bl	80013b0 <mktime>
 80011d8:	4629      	mov	r1, r5
 80011da:	e9cd 0501 	strd	r0, r5, [sp, #4]
 80011de:	a801      	add	r0, sp, #4
 80011e0:	f105 4580 	add.w	r5, r5, #1073741824	; 0x40000000
 80011e4:	f7ff fc94 	bl	8000b10 <settimeofday>
 80011e8:	f505 3588 	add.w	r5, r5, #69632	; 0x11000
 80011ec:	f240 6004 	movw	r0, #1540	; 0x604
 80011f0:	f000 fa62 	bl	80016b8 <rcu_periph_clock_enable>
 80011f4:	4628      	mov	r0, r5
 80011f6:	4633      	mov	r3, r6
 80011f8:	2203      	movs	r2, #3
 80011fa:	2110      	movs	r1, #16
 80011fc:	f000 f9d4 	bl	80015a8 <gpio_init>
 8001200:	4620      	mov	r0, r4
 8001202:	616e      	str	r6, [r5, #20]
 8001204:	b010      	add	sp, #64	; 0x40
 8001206:	bd70      	pop	{r4, r5, r6, pc}
 8001208:	20001110 	andcs	r1, r0, r0, lsl r1
 800120c:	40001000 	andmi	r1, r0, r0

08001210 <hal::uuid_init(unsigned char*)>:
 8001210:	4a0c      	ldr	r2, [pc, #48]	; (8001244 <hal::uuid_init(unsigned char*)+0x34>)
 8001212:	b084      	sub	sp, #16
 8001214:	f8d2 37e8 	ldr.w	r3, [r2, #2024]	; 0x7e8
 8001218:	9300      	str	r3, [sp, #0]
 800121a:	f8d2 17ec 	ldr.w	r1, [r2, #2028]	; 0x7ec
 800121e:	9101      	str	r1, [sp, #4]
 8001220:	f8d2 27f0 	ldr.w	r2, [r2, #2032]	; 0x7f0
 8001224:	9202      	str	r2, [sp, #8]
 8001226:	440b      	add	r3, r1
 8001228:	4413      	add	r3, r2
 800122a:	9303      	str	r3, [sp, #12]
 800122c:	f100 0210 	add.w	r2, r0, #16
 8001230:	466b      	mov	r3, sp
 8001232:	f813 1b01 	ldrb.w	r1, [r3], #1
 8001236:	f800 1b01 	strb.w	r1, [r0], #1
 800123a:	4282      	cmp	r2, r0
 800123c:	d1f9      	bne.n	8001232 <hal::uuid_init(unsigned char*)+0x22>
 800123e:	b004      	add	sp, #16
 8001240:	4770      	bx	lr
 8001242:	bf00      	nop
 8001244:	1ffff000 	svcne	0x00fff000

08001248 <operator delete(void*, unsigned int)>:
 8001248:	f000 b860 	b.w	800130c <free>

0800124c <operator new(unsigned int)>:
 800124c:	f000 b800 	b.w	8001250 <malloc>

08001250 <malloc>:
 8001250:	b5f8      	push	{r3, r4, r5, r6, r7, lr}
 8001252:	bb40      	cbnz	r0, 80012a6 <malloc+0x56>
 8001254:	2500      	movs	r5, #0
 8001256:	4628      	mov	r0, r5
 8001258:	bdf8      	pop	{r3, r4, r5, r6, r7, pc}
 800125a:	4286      	cmp	r6, r0
 800125c:	d225      	bcs.n	80012aa <malloc+0x5a>
 800125e:	3508      	adds	r5, #8
 8001260:	682e      	ldr	r6, [r5, #0]
 8001262:	2e00      	cmp	r6, #0
 8001264:	d1f9      	bne.n	800125a <malloc+0xa>
 8001266:	4606      	mov	r6, r0
 8001268:	4f1e      	ldr	r7, [pc, #120]	; (80012e4 <malloc+0x94>)
 800126a:	683c      	ldr	r4, [r7, #0]
 800126c:	f106 051b 	add.w	r5, r6, #27
 8001270:	f025 050f 	bic.w	r5, r5, #15
 8001274:	07a1      	lsls	r1, r4, #30
 8001276:	4425      	add	r5, r4
 8001278:	d005      	beq.n	8001286 <malloc+0x36>
 800127a:	4b1b      	ldr	r3, [pc, #108]	; (80012e8 <malloc+0x98>)
 800127c:	4a1b      	ldr	r2, [pc, #108]	; (80012ec <malloc+0x9c>)
 800127e:	481c      	ldr	r0, [pc, #112]	; (80012f0 <malloc+0xa0>)
 8001280:	2177      	movs	r1, #119	; 0x77
 8001282:	f7ff fc71 	bl	8000b68 <__assert_func>
 8001286:	07aa      	lsls	r2, r5, #30
 8001288:	d005      	beq.n	8001296 <malloc+0x46>
 800128a:	4b1a      	ldr	r3, [pc, #104]	; (80012f4 <malloc+0xa4>)
 800128c:	4a17      	ldr	r2, [pc, #92]	; (80012ec <malloc+0x9c>)
 800128e:	4818      	ldr	r0, [pc, #96]	; (80012f0 <malloc+0xa0>)
 8001290:	2178      	movs	r1, #120	; 0x78
 8001292:	f7ff fc69 	bl	8000b68 <__assert_func>
 8001296:	4b18      	ldr	r3, [pc, #96]	; (80012f8 <malloc+0xa8>)
 8001298:	429d      	cmp	r5, r3
 800129a:	d8db      	bhi.n	8001254 <malloc+0x4>
 800129c:	4b17      	ldr	r3, [pc, #92]	; (80012fc <malloc+0xac>)
 800129e:	603d      	str	r5, [r7, #0]
 80012a0:	e9c4 3600 	strd	r3, r6, [r4]
 80012a4:	e010      	b.n	80012c8 <malloc+0x78>
 80012a6:	4d16      	ldr	r5, [pc, #88]	; (8001300 <malloc+0xb0>)
 80012a8:	e7da      	b.n	8001260 <malloc+0x10>
 80012aa:	686c      	ldr	r4, [r5, #4]
 80012ac:	2c00      	cmp	r4, #0
 80012ae:	d0db      	beq.n	8001268 <malloc+0x18>
 80012b0:	6822      	ldr	r2, [r4, #0]
 80012b2:	4b12      	ldr	r3, [pc, #72]	; (80012fc <malloc+0xac>)
 80012b4:	429a      	cmp	r2, r3
 80012b6:	d005      	beq.n	80012c4 <malloc+0x74>
 80012b8:	4b12      	ldr	r3, [pc, #72]	; (8001304 <malloc+0xb4>)
 80012ba:	4a0c      	ldr	r2, [pc, #48]	; (80012ec <malloc+0x9c>)
 80012bc:	480c      	ldr	r0, [pc, #48]	; (80012f0 <malloc+0xa0>)
 80012be:	216d      	movs	r1, #109	; 0x6d
 80012c0:	f7ff fc52 	bl	8000b68 <__assert_func>
 80012c4:	68a3      	ldr	r3, [r4, #8]
 80012c6:	606b      	str	r3, [r5, #4]
 80012c8:	2300      	movs	r3, #0
 80012ca:	60a3      	str	r3, [r4, #8]
 80012cc:	07a3      	lsls	r3, r4, #30
 80012ce:	f104 050c 	add.w	r5, r4, #12
 80012d2:	d0c0      	beq.n	8001256 <malloc+0x6>
 80012d4:	4b0c      	ldr	r3, [pc, #48]	; (8001308 <malloc+0xb8>)
 80012d6:	4a05      	ldr	r2, [pc, #20]	; (80012ec <malloc+0x9c>)
 80012d8:	4805      	ldr	r0, [pc, #20]	; (80012f0 <malloc+0xa0>)
 80012da:	218c      	movs	r1, #140	; 0x8c
 80012dc:	f7ff fc44 	bl	8000b68 <__assert_func>
 80012e0:	e7b9      	b.n	8001256 <malloc+0x6>
 80012e2:	bf00      	nop
 80012e4:	20001068 	andcs	r1, r0, r8, rrx
 80012e8:	08002a89 	stmdaeq	r0, {r0, r3, r7, r9, fp, sp}
 80012ec:	08002b04 	stmdaeq	r0, {r2, r8, r9, fp, sp}
 80012f0:	08002a5f 	stmdaeq	r0, {r0, r1, r2, r3, r4, r6, r9, fp, sp}
 80012f4:	08002aaf 	stmdaeq	r0, {r0, r1, r2, r3, r5, r7, r9, fp, sp}
 80012f8:	2000211c 	andcs	r2, r0, ip, lsl r1
 80012fc:	424c4d43 	submi	r4, ip, #4288	; 0x10c0
 8001300:	20001000 	andcs	r1, r0, r0
 8001304:	08002a6c 	stmdaeq	r0, {r2, r3, r5, r6, r9, fp, sp}
 8001308:	08002ad3 	stmdaeq	r0, {r0, r1, r4, r6, r7, r9, fp, sp}

0800130c <free>:
 800130c:	b538      	push	{r3, r4, r5, lr}
 800130e:	4604      	mov	r4, r0
 8001310:	b1e0      	cbz	r0, 800134c <free+0x40>
 8001312:	4d0f      	ldr	r5, [pc, #60]	; (8001350 <free+0x44>)
 8001314:	f850 3c0c 	ldr.w	r3, [r0, #-12]
 8001318:	42ab      	cmp	r3, r5
 800131a:	d009      	beq.n	8001330 <free+0x24>
 800131c:	4b0d      	ldr	r3, [pc, #52]	; (8001354 <free+0x48>)
 800131e:	4a0e      	ldr	r2, [pc, #56]	; (8001358 <free+0x4c>)
 8001320:	480e      	ldr	r0, [pc, #56]	; (800135c <free+0x50>)
 8001322:	219d      	movs	r1, #157	; 0x9d
 8001324:	f7ff fc20 	bl	8000b68 <__assert_func>
 8001328:	f854 3c0c 	ldr.w	r3, [r4, #-12]
 800132c:	42ab      	cmp	r3, r5
 800132e:	d10d      	bne.n	800134c <free+0x40>
 8001330:	4b0b      	ldr	r3, [pc, #44]	; (8001360 <free+0x54>)
 8001332:	e000      	b.n	8001336 <free+0x2a>
 8001334:	3308      	adds	r3, #8
 8001336:	681a      	ldr	r2, [r3, #0]
 8001338:	b142      	cbz	r2, 800134c <free+0x40>
 800133a:	f854 1c08 	ldr.w	r1, [r4, #-8]
 800133e:	4291      	cmp	r1, r2
 8001340:	d1f8      	bne.n	8001334 <free+0x28>
 8001342:	685a      	ldr	r2, [r3, #4]
 8001344:	f844 2c04 	str.w	r2, [r4, #-4]
 8001348:	3c0c      	subs	r4, #12
 800134a:	605c      	str	r4, [r3, #4]
 800134c:	bd38      	pop	{r3, r4, r5, pc}
 800134e:	bf00      	nop
 8001350:	424c4d43 	submi	r4, ip, #4288	; 0x10c0
 8001354:	08002a6c 	stmdaeq	r0, {r2, r3, r5, r6, r9, fp, sp}
 8001358:	08002aff 	stmdaeq	r0, {r0, r1, r2, r3, r4, r5, r6, r7, r9, fp, sp}
 800135c:	08002a5f 	stmdaeq	r0, {r0, r1, r2, r3, r4, r6, r9, fp, sp}
 8001360:	20001000 	andcs	r1, r0, r0

08001364 <isleapyear>:
 8001364:	2264      	movs	r2, #100	; 0x64
 8001366:	fb90 f3f2 	sdiv	r3, r0, r2
 800136a:	fb02 0313 	mls	r3, r2, r3, r0
 800136e:	b94b      	cbnz	r3, 8001384 <isleapyear+0x20>
 8001370:	f44f 73c8 	mov.w	r3, #400	; 0x190
 8001374:	fb90 f2f3 	sdiv	r2, r0, r3
 8001378:	fb03 0012 	mls	r0, r3, r2, r0
 800137c:	fab0 f080 	clz	r0, r0
 8001380:	0940      	lsrs	r0, r0, #5
 8001382:	4770      	bx	lr
 8001384:	f010 0f03 	tst.w	r0, #3
 8001388:	bf0c      	ite	eq
 800138a:	2001      	moveq	r0, #1
 800138c:	2000      	movne	r0, #0
 800138e:	4770      	bx	lr

08001390 <getdaysofmonth>:
 8001390:	b510      	push	{r4, lr}
 8001392:	4604      	mov	r4, r0
 8001394:	2c01      	cmp	r4, #1
 8001396:	4608      	mov	r0, r1
 8001398:	d102      	bne.n	80013a0 <getdaysofmonth+0x10>
 800139a:	f7ff ffe3 	bl	8001364 <isleapyear>
 800139e:	b918      	cbnz	r0, 80013a8 <getdaysofmonth+0x18>
 80013a0:	4b02      	ldr	r3, [pc, #8]	; (80013ac <getdaysofmonth+0x1c>)
 80013a2:	f853 0024 	ldr.w	r0, [r3, r4, lsl #2]
 80013a6:	bd10      	pop	{r4, pc}
 80013a8:	201d      	movs	r0, #29
 80013aa:	e7fc      	b.n	80013a6 <getdaysofmonth+0x16>
 80013ac:	08002b0c 	stmdaeq	r0, {r2, r3, r8, r9, fp, sp}

080013b0 <mktime>:
 80013b0:	e92d 41f0 	stmdb	sp!, {r4, r5, r6, r7, r8, lr}
 80013b4:	4604      	mov	r4, r0
 80013b6:	2800      	cmp	r0, #0
 80013b8:	d043      	beq.n	8001442 <mktime+0x92>
 80013ba:	6941      	ldr	r1, [r0, #20]
 80013bc:	f1a1 0346 	sub.w	r3, r1, #70	; 0x46
 80013c0:	2b45      	cmp	r3, #69	; 0x45
 80013c2:	d83e      	bhi.n	8001442 <mktime+0x92>
 80013c4:	2600      	movs	r6, #0
 80013c6:	f240 75b2 	movw	r5, #1970	; 0x7b2
 80013ca:	f201 776b 	addw	r7, r1, #1899	; 0x76b
 80013ce:	f240 186d 	movw	r8, #365	; 0x16d
 80013d2:	42af      	cmp	r7, r5
 80013d4:	da24      	bge.n	8001420 <mktime+0x70>
 80013d6:	6927      	ldr	r7, [r4, #16]
 80013d8:	2f0b      	cmp	r7, #11
 80013da:	d832      	bhi.n	8001442 <mktime+0x92>
 80013dc:	2500      	movs	r5, #0
 80013de:	42af      	cmp	r7, r5
 80013e0:	d129      	bne.n	8001436 <mktime+0x86>
 80013e2:	68e5      	ldr	r5, [r4, #12]
 80013e4:	2d00      	cmp	r5, #0
 80013e6:	dd2c      	ble.n	8001442 <mktime+0x92>
 80013e8:	4638      	mov	r0, r7
 80013ea:	f7ff ffd1 	bl	8001390 <getdaysofmonth>
 80013ee:	4285      	cmp	r5, r0
 80013f0:	dc27      	bgt.n	8001442 <mktime+0x92>
 80013f2:	3d01      	subs	r5, #1
 80013f4:	2318      	movs	r3, #24
 80013f6:	4435      	add	r5, r6
 80013f8:	435d      	muls	r5, r3
 80013fa:	68a3      	ldr	r3, [r4, #8]
 80013fc:	2b17      	cmp	r3, #23
 80013fe:	d820      	bhi.n	8001442 <mktime+0x92>
 8001400:	442b      	add	r3, r5
 8001402:	213c      	movs	r1, #60	; 0x3c
 8001404:	fb01 f203 	mul.w	r2, r1, r3
 8001408:	6863      	ldr	r3, [r4, #4]
 800140a:	2b3b      	cmp	r3, #59	; 0x3b
 800140c:	d819      	bhi.n	8001442 <mktime+0x92>
 800140e:	6820      	ldr	r0, [r4, #0]
 8001410:	4413      	add	r3, r2
 8001412:	283b      	cmp	r0, #59	; 0x3b
 8001414:	fb01 f303 	mul.w	r3, r1, r3
 8001418:	d813      	bhi.n	8001442 <mktime+0x92>
 800141a:	4418      	add	r0, r3
 800141c:	e8bd 81f0 	ldmia.w	sp!, {r4, r5, r6, r7, r8, pc}
 8001420:	4628      	mov	r0, r5
 8001422:	f7ff ff9f 	bl	8001364 <isleapyear>
 8001426:	2800      	cmp	r0, #0
 8001428:	bf0c      	ite	eq
 800142a:	4643      	moveq	r3, r8
 800142c:	f44f 73b7 	movne.w	r3, #366	; 0x16e
 8001430:	441e      	add	r6, r3
 8001432:	3501      	adds	r5, #1
 8001434:	e7cd      	b.n	80013d2 <mktime+0x22>
 8001436:	4628      	mov	r0, r5
 8001438:	f7ff ffaa 	bl	8001390 <getdaysofmonth>
 800143c:	3501      	adds	r5, #1
 800143e:	4406      	add	r6, r0
 8001440:	e7cd      	b.n	80013de <mktime+0x2e>
 8001442:	f04f 30ff 	mov.w	r0, #4294967295	; 0xffffffff
 8001446:	e7e9      	b.n	800141c <mktime+0x6c>

08001448 <SystemInit>:
 8001448:	4a49      	ldr	r2, [pc, #292]	; (8001570 <SystemInit+0x128>)
 800144a:	f8d2 3088 	ldr.w	r3, [r2, #136]	; 0x88
 800144e:	f443 0370 	orr.w	r3, r3, #15728640	; 0xf00000
 8001452:	f8c2 3088 	str.w	r3, [r2, #136]	; 0x88
 8001456:	4b47      	ldr	r3, [pc, #284]	; (8001574 <SystemInit+0x12c>)
 8001458:	681a      	ldr	r2, [r3, #0]
 800145a:	f042 0201 	orr.w	r2, r2, #1
 800145e:	b082      	sub	sp, #8
 8001460:	601a      	str	r2, [r3, #0]
 8001462:	681a      	ldr	r2, [r3, #0]
 8001464:	0792      	lsls	r2, r2, #30
 8001466:	d5fc      	bpl.n	8001462 <SystemInit+0x1a>
 8001468:	685a      	ldr	r2, [r3, #4]
 800146a:	f042 0280 	orr.w	r2, r2, #128	; 0x80
 800146e:	605a      	str	r2, [r3, #4]
 8001470:	2200      	movs	r2, #0
 8001472:	9201      	str	r2, [sp, #4]
 8001474:	9a01      	ldr	r2, [sp, #4]
 8001476:	2a4f      	cmp	r2, #79	; 0x4f
 8001478:	d92b      	bls.n	80014d2 <SystemInit+0x8a>
 800147a:	685a      	ldr	r2, [r3, #4]
 800147c:	f042 0290 	orr.w	r2, r2, #144	; 0x90
 8001480:	605a      	str	r2, [r3, #4]
 8001482:	2200      	movs	r2, #0
 8001484:	9201      	str	r2, [sp, #4]
 8001486:	9a01      	ldr	r2, [sp, #4]
 8001488:	2a4f      	cmp	r2, #79	; 0x4f
 800148a:	d925      	bls.n	80014d8 <SystemInit+0x90>
 800148c:	685a      	ldr	r2, [r3, #4]
 800148e:	f022 0203 	bic.w	r2, r2, #3
 8001492:	605a      	str	r2, [r3, #4]
 8001494:	681a      	ldr	r2, [r3, #0]
 8001496:	f022 7284 	bic.w	r2, r2, #17301504	; 0x1080000
 800149a:	f422 3280 	bic.w	r2, r2, #65536	; 0x10000
 800149e:	601a      	str	r2, [r3, #0]
 80014a0:	f44f 021f 	mov.w	r2, #10420224	; 0x9f0000
 80014a4:	609a      	str	r2, [r3, #8]
 80014a6:	681a      	ldr	r2, [r3, #0]
 80014a8:	f422 2280 	bic.w	r2, r2, #262144	; 0x40000
 80014ac:	601a      	str	r2, [r3, #0]
 80014ae:	2200      	movs	r2, #0
 80014b0:	605a      	str	r2, [r3, #4]
 80014b2:	62da      	str	r2, [r3, #44]	; 0x2c
 80014b4:	681a      	ldr	r2, [r3, #0]
 80014b6:	f442 3280 	orr.w	r2, r2, #65536	; 0x10000
 80014ba:	601a      	str	r2, [r3, #0]
 80014bc:	f64f 72ff 	movw	r2, #65535	; 0xffff
 80014c0:	6819      	ldr	r1, [r3, #0]
 80014c2:	0388      	lsls	r0, r1, #14
 80014c4:	d401      	bmi.n	80014ca <SystemInit+0x82>
 80014c6:	3a01      	subs	r2, #1
 80014c8:	d1fa      	bne.n	80014c0 <SystemInit+0x78>
 80014ca:	681a      	ldr	r2, [r3, #0]
 80014cc:	0391      	lsls	r1, r2, #14
 80014ce:	d406      	bmi.n	80014de <SystemInit+0x96>
 80014d0:	e7fe      	b.n	80014d0 <SystemInit+0x88>
 80014d2:	9a01      	ldr	r2, [sp, #4]
 80014d4:	3201      	adds	r2, #1
 80014d6:	e7cc      	b.n	8001472 <SystemInit+0x2a>
 80014d8:	9a01      	ldr	r2, [sp, #4]
 80014da:	3201      	adds	r2, #1
 80014dc:	e7d2      	b.n	8001484 <SystemInit+0x3c>
 80014de:	69da      	ldr	r2, [r3, #28]
 80014e0:	4925      	ldr	r1, [pc, #148]	; (8001578 <SystemInit+0x130>)
 80014e2:	f042 5280 	orr.w	r2, r2, #268435456	; 0x10000000
 80014e6:	61da      	str	r2, [r3, #28]
 80014e8:	680a      	ldr	r2, [r1, #0]
 80014ea:	f442 4240 	orr.w	r2, r2, #49152	; 0xc000
 80014ee:	600a      	str	r2, [r1, #0]
 80014f0:	685a      	ldr	r2, [r3, #4]
 80014f2:	605a      	str	r2, [r3, #4]
 80014f4:	685a      	ldr	r2, [r3, #4]
 80014f6:	605a      	str	r2, [r3, #4]
 80014f8:	685a      	ldr	r2, [r3, #4]
 80014fa:	f442 6280 	orr.w	r2, r2, #1024	; 0x400
 80014fe:	605a      	str	r2, [r3, #4]
 8001500:	685a      	ldr	r2, [r3, #4]
 8001502:	f422 3240 	bic.w	r2, r2, #196608	; 0x30000
 8001506:	605a      	str	r2, [r3, #4]
 8001508:	685a      	ldr	r2, [r3, #4]
 800150a:	f442 3240 	orr.w	r2, r2, #196608	; 0x30000
 800150e:	605a      	str	r2, [r3, #4]
 8001510:	685a      	ldr	r2, [r3, #4]
 8001512:	f022 4290 	bic.w	r2, r2, #1207959552	; 0x48000000
 8001516:	f422 1270 	bic.w	r2, r2, #3932160	; 0x3c0000
 800151a:	605a      	str	r2, [r3, #4]
 800151c:	685a      	ldr	r2, [r3, #4]
 800151e:	f042 6203 	orr.w	r2, r2, #137363456	; 0x8300000
 8001522:	f442 2280 	orr.w	r2, r2, #262144	; 0x40000
 8001526:	605a      	str	r2, [r3, #4]
 8001528:	681a      	ldr	r2, [r3, #0]
 800152a:	f042 7280 	orr.w	r2, r2, #16777216	; 0x1000000
 800152e:	601a      	str	r2, [r3, #0]
 8001530:	681a      	ldr	r2, [r3, #0]
 8001532:	0192      	lsls	r2, r2, #6
 8001534:	d5fc      	bpl.n	8001530 <SystemInit+0xe8>
 8001536:	680a      	ldr	r2, [r1, #0]
 8001538:	f442 3280 	orr.w	r2, r2, #65536	; 0x10000
 800153c:	600a      	str	r2, [r1, #0]
 800153e:	4a0e      	ldr	r2, [pc, #56]	; (8001578 <SystemInit+0x130>)
 8001540:	6851      	ldr	r1, [r2, #4]
 8001542:	03c8      	lsls	r0, r1, #15
 8001544:	d5fc      	bpl.n	8001540 <SystemInit+0xf8>
 8001546:	6811      	ldr	r1, [r2, #0]
 8001548:	f441 3100 	orr.w	r1, r1, #131072	; 0x20000
 800154c:	6011      	str	r1, [r2, #0]
 800154e:	6851      	ldr	r1, [r2, #4]
 8001550:	0389      	lsls	r1, r1, #14
 8001552:	d5fc      	bpl.n	800154e <SystemInit+0x106>
 8001554:	685a      	ldr	r2, [r3, #4]
 8001556:	f022 0203 	bic.w	r2, r2, #3
 800155a:	605a      	str	r2, [r3, #4]
 800155c:	685a      	ldr	r2, [r3, #4]
 800155e:	f042 0202 	orr.w	r2, r2, #2
 8001562:	605a      	str	r2, [r3, #4]
 8001564:	685a      	ldr	r2, [r3, #4]
 8001566:	0712      	lsls	r2, r2, #28
 8001568:	d5fc      	bpl.n	8001564 <SystemInit+0x11c>
 800156a:	b002      	add	sp, #8
 800156c:	4770      	bx	lr
 800156e:	bf00      	nop
 8001570:	e000ed00 	and	lr, r0, r0, lsl #26
 8001574:	40021000 	andmi	r1, r2, r0
 8001578:	40007000 	andmi	r7, r0, r0

0800157c <bkp_write_data>:
 800157c:	f1a0 030b 	sub.w	r3, r0, #11
 8001580:	2b1f      	cmp	r3, #31
 8001582:	d804      	bhi.n	800158e <bkp_write_data+0x12>
 8001584:	4b07      	ldr	r3, [pc, #28]	; (80015a4 <bkp_write_data+0x28>)
 8001586:	4403      	add	r3, r0
 8001588:	009b      	lsls	r3, r3, #2
 800158a:	8019      	strh	r1, [r3, #0]
 800158c:	4770      	bx	lr
 800158e:	1e43      	subs	r3, r0, #1
 8001590:	2b09      	cmp	r3, #9
 8001592:	bf9f      	itttt	ls
 8001594:	f100 5080 	addls.w	r0, r0, #268435456	; 0x10000000
 8001598:	f500 50d8 	addls.w	r0, r0, #6912	; 0x1b00
 800159c:	0080      	lslls	r0, r0, #2
 800159e:	8001      	strhls	r1, [r0, #0]
 80015a0:	4770      	bx	lr
 80015a2:	bf00      	nop
 80015a4:	10001b05 	andne	r1, r0, r5, lsl #22

080015a8 <gpio_init>:
 80015a8:	e92d 41f0 	stmdb	sp!, {r4, r5, r6, r7, r8, lr}
 80015ac:	06cd      	lsls	r5, r1, #27
 80015ae:	f001 040f 	and.w	r4, r1, #15
 80015b2:	d508      	bpl.n	80015c6 <gpio_init+0x1e>
 80015b4:	2a04      	cmp	r2, #4
 80015b6:	bf01      	itttt	eq
 80015b8:	6bc2      	ldreq	r2, [r0, #60]	; 0x3c
 80015ba:	431a      	orreq	r2, r3
 80015bc:	f044 0403 	orreq.w	r4, r4, #3
 80015c0:	63c2      	streq	r2, [r0, #60]	; 0x3c
 80015c2:	bf18      	it	ne
 80015c4:	4314      	orrne	r4, r2
 80015c6:	2500      	movs	r5, #0
 80015c8:	f04f 0c01 	mov.w	ip, #1
 80015cc:	f04f 0e0f 	mov.w	lr, #15
 80015d0:	fa0c f605 	lsl.w	r6, ip, r5
 80015d4:	401e      	ands	r6, r3
 80015d6:	d00d      	beq.n	80015f4 <gpio_init+0x4c>
 80015d8:	00aa      	lsls	r2, r5, #2
 80015da:	6807      	ldr	r7, [r0, #0]
 80015dc:	fa0e f802 	lsl.w	r8, lr, r2
 80015e0:	ea27 0708 	bic.w	r7, r7, r8
 80015e4:	fa04 f202 	lsl.w	r2, r4, r2
 80015e8:	2928      	cmp	r1, #40	; 0x28
 80015ea:	ea42 0207 	orr.w	r2, r2, r7
 80015ee:	d122      	bne.n	8001636 <gpio_init+0x8e>
 80015f0:	6146      	str	r6, [r0, #20]
 80015f2:	6002      	str	r2, [r0, #0]
 80015f4:	3501      	adds	r5, #1
 80015f6:	2d08      	cmp	r5, #8
 80015f8:	d1ea      	bne.n	80015d0 <gpio_init+0x28>
 80015fa:	2600      	movs	r6, #0
 80015fc:	f04f 0c01 	mov.w	ip, #1
 8001600:	f04f 0e0f 	mov.w	lr, #15
 8001604:	f106 0208 	add.w	r2, r6, #8
 8001608:	fa0c f202 	lsl.w	r2, ip, r2
 800160c:	401a      	ands	r2, r3
 800160e:	d00d      	beq.n	800162c <gpio_init+0x84>
 8001610:	00b5      	lsls	r5, r6, #2
 8001612:	6847      	ldr	r7, [r0, #4]
 8001614:	fa0e f805 	lsl.w	r8, lr, r5
 8001618:	ea27 0708 	bic.w	r7, r7, r8
 800161c:	fa04 f505 	lsl.w	r5, r4, r5
 8001620:	2928      	cmp	r1, #40	; 0x28
 8001622:	ea45 0507 	orr.w	r5, r5, r7
 8001626:	d10a      	bne.n	800163e <gpio_init+0x96>
 8001628:	6142      	str	r2, [r0, #20]
 800162a:	6045      	str	r5, [r0, #4]
 800162c:	3601      	adds	r6, #1
 800162e:	2e08      	cmp	r6, #8
 8001630:	d1e8      	bne.n	8001604 <gpio_init+0x5c>
 8001632:	e8bd 81f0 	ldmia.w	sp!, {r4, r5, r6, r7, r8, pc}
 8001636:	2948      	cmp	r1, #72	; 0x48
 8001638:	bf08      	it	eq
 800163a:	6106      	streq	r6, [r0, #16]
 800163c:	e7d9      	b.n	80015f2 <gpio_init+0x4a>
 800163e:	2948      	cmp	r1, #72	; 0x48
 8001640:	bf08      	it	eq
 8001642:	6102      	streq	r2, [r0, #16]
 8001644:	e7f1      	b.n	800162a <gpio_init+0x82>
	...

08001648 <gpio_pin_remap_config>:
 8001648:	2800      	cmp	r0, #0
 800164a:	4a16      	ldr	r2, [pc, #88]	; (80016a4 <gpio_pin_remap_config+0x5c>)
 800164c:	b530      	push	{r4, r5, lr}
 800164e:	f400 1540 	and.w	r5, r0, #3145728	; 0x300000
 8001652:	bfb4      	ite	lt
 8001654:	69d3      	ldrlt	r3, [r2, #28]
 8001656:	6853      	ldrge	r3, [r2, #4]
 8001658:	f5b5 1f40 	cmp.w	r5, #3145728	; 0x300000
 800165c:	b284      	uxth	r4, r0
 800165e:	d110      	bne.n	8001682 <gpio_pin_remap_config+0x3a>
 8001660:	6855      	ldr	r5, [r2, #4]
 8001662:	f025 65e0 	bic.w	r5, r5, #117440512	; 0x7000000
 8001666:	f023 63e0 	bic.w	r3, r3, #117440512	; 0x7000000
 800166a:	6055      	str	r5, [r2, #4]
 800166c:	b119      	cbz	r1, 8001676 <gpio_pin_remap_config+0x2e>
 800166e:	0d42      	lsrs	r2, r0, #21
 8001670:	0112      	lsls	r2, r2, #4
 8001672:	4094      	lsls	r4, r2
 8001674:	4323      	orrs	r3, r4
 8001676:	4a0b      	ldr	r2, [pc, #44]	; (80016a4 <gpio_pin_remap_config+0x5c>)
 8001678:	2800      	cmp	r0, #0
 800167a:	bfb4      	ite	lt
 800167c:	61d3      	strlt	r3, [r2, #28]
 800167e:	6053      	strge	r3, [r2, #4]
 8001680:	bd30      	pop	{r4, r5, pc}
 8001682:	02c2      	lsls	r2, r0, #11
 8001684:	bf55      	itete	pl
 8001686:	0d42      	lsrpl	r2, r0, #21
 8001688:	2203      	movmi	r2, #3
 800168a:	0112      	lslpl	r2, r2, #4
 800168c:	f3c0 4503 	ubfxmi	r5, r0, #16, #4
 8001690:	bf4c      	ite	mi
 8001692:	40aa      	lslmi	r2, r5
 8001694:	fa04 f202 	lslpl.w	r2, r4, r2
 8001698:	ea23 0302 	bic.w	r3, r3, r2
 800169c:	f043 63e0 	orr.w	r3, r3, #117440512	; 0x7000000
 80016a0:	e7e4      	b.n	800166c <gpio_pin_remap_config+0x24>
 80016a2:	bf00      	nop
 80016a4:	40010000 	andmi	r0, r1, r0

080016a8 <pmu_backup_write_enable>:
 80016a8:	4a02      	ldr	r2, [pc, #8]	; (80016b4 <pmu_backup_write_enable+0xc>)
 80016aa:	6813      	ldr	r3, [r2, #0]
 80016ac:	f443 7380 	orr.w	r3, r3, #256	; 0x100
 80016b0:	6013      	str	r3, [r2, #0]
 80016b2:	4770      	bx	lr
 80016b4:	40007000 	andmi	r7, r0, r0

080016b8 <rcu_periph_clock_enable>:
 80016b8:	0983      	lsrs	r3, r0, #6
 80016ba:	f103 4380 	add.w	r3, r3, #1073741824	; 0x40000000
 80016be:	f503 3304 	add.w	r3, r3, #135168	; 0x21000
 80016c2:	f000 001f 	and.w	r0, r0, #31
 80016c6:	6819      	ldr	r1, [r3, #0]
 80016c8:	2201      	movs	r2, #1
 80016ca:	4082      	lsls	r2, r0
 80016cc:	430a      	orrs	r2, r1
 80016ce:	601a      	str	r2, [r3, #0]
 80016d0:	4770      	bx	lr

080016d2 <rcu_periph_clock_disable>:
 80016d2:	0983      	lsrs	r3, r0, #6
 80016d4:	f103 4380 	add.w	r3, r3, #1073741824	; 0x40000000
 80016d8:	f503 3304 	add.w	r3, r3, #135168	; 0x21000
 80016dc:	f000 001f 	and.w	r0, r0, #31
 80016e0:	681a      	ldr	r2, [r3, #0]
 80016e2:	2101      	movs	r1, #1
 80016e4:	4081      	lsls	r1, r0
 80016e6:	ea22 0201 	bic.w	r2, r2, r1
 80016ea:	601a      	str	r2, [r3, #0]
 80016ec:	4770      	bx	lr

080016ee <rcu_periph_reset_enable>:
 80016ee:	f7ff bfe3 	b.w	80016b8 <rcu_periph_clock_enable>

080016f2 <rcu_periph_reset_disable>:
 80016f2:	f7ff bfee 	b.w	80016d2 <rcu_periph_clock_disable>
	...

080016f8 <rcu_adc_clock_config>:
 80016f8:	4913      	ldr	r1, [pc, #76]	; (8001748 <rcu_adc_clock_config+0x50>)
 80016fa:	684b      	ldr	r3, [r1, #4]
 80016fc:	6aca      	ldr	r2, [r1, #44]	; 0x2c
 80016fe:	f023 5380 	bic.w	r3, r3, #268435456	; 0x10000000
 8001702:	b510      	push	{r4, lr}
 8001704:	f423 4340 	bic.w	r3, r3, #49152	; 0xc000
 8001708:	f022 5200 	bic.w	r2, r2, #536870912	; 0x20000000
 800170c:	280b      	cmp	r0, #11
 800170e:	d809      	bhi.n	8001724 <rcu_adc_clock_config+0x2c>
 8001710:	e8df f000 	tbb	[pc, r0]
 8001714:	06060606 	streq	r0, [r6], -r6, lsl #12
 8001718:	0b080b08 	bleq	8204340 <_sidata+0x20179c>
 800171c:	12121212 	andsne	r1, r2, #536870913	; 0x20000001
 8001720:	ea43 3380 	orr.w	r3, r3, r0, lsl #14
 8001724:	604b      	str	r3, [r1, #4]
 8001726:	62ca      	str	r2, [r1, #44]	; 0x2c
 8001728:	bd10      	pop	{r4, pc}
 800172a:	4c08      	ldr	r4, [pc, #32]	; (800174c <rcu_adc_clock_config+0x54>)
 800172c:	ea04 3080 	and.w	r0, r4, r0, lsl #14
 8001730:	4303      	orrs	r3, r0
 8001732:	f043 5380 	orr.w	r3, r3, #268435456	; 0x10000000
 8001736:	e7f5      	b.n	8001724 <rcu_adc_clock_config+0x2c>
 8001738:	4c05      	ldr	r4, [pc, #20]	; (8001750 <rcu_adc_clock_config+0x58>)
 800173a:	ea04 3080 	and.w	r0, r4, r0, lsl #14
 800173e:	4303      	orrs	r3, r0
 8001740:	f042 5200 	orr.w	r2, r2, #536870912	; 0x20000000
 8001744:	e7ee      	b.n	8001724 <rcu_adc_clock_config+0x2c>
 8001746:	bf00      	nop
 8001748:	40021000 	andmi	r1, r2, r0
 800174c:	fffec000 			; <UNDEFINED> instruction: 0xfffec000
 8001750:	fffcc000 			; <UNDEFINED> instruction: 0xfffcc000

08001754 <rcu_clock_freq_get>:
 8001754:	b5f0      	push	{r4, r5, r6, r7, lr}
 8001756:	4b38      	ldr	r3, [pc, #224]	; (8001838 <rcu_clock_freq_get+0xe4>)
 8001758:	b089      	sub	sp, #36	; 0x24
 800175a:	4604      	mov	r4, r0
 800175c:	ad04      	add	r5, sp, #16
 800175e:	f103 0610 	add.w	r6, r3, #16
 8001762:	461f      	mov	r7, r3
 8001764:	6818      	ldr	r0, [r3, #0]
 8001766:	6859      	ldr	r1, [r3, #4]
 8001768:	462a      	mov	r2, r5
 800176a:	c203      	stmia	r2!, {r0, r1}
 800176c:	3308      	adds	r3, #8
 800176e:	42b3      	cmp	r3, r6
 8001770:	4615      	mov	r5, r2
 8001772:	d1f7      	bne.n	8001764 <rcu_clock_freq_get+0x10>
 8001774:	6938      	ldr	r0, [r7, #16]
 8001776:	6871      	ldr	r1, [r6, #4]
 8001778:	4a30      	ldr	r2, [pc, #192]	; (800183c <rcu_clock_freq_get+0xe8>)
 800177a:	466b      	mov	r3, sp
 800177c:	c303      	stmia	r3!, {r0, r1}
 800177e:	c303      	stmia	r3!, {r0, r1}
 8001780:	6853      	ldr	r3, [r2, #4]
 8001782:	f3c3 0381 	ubfx	r3, r3, #2, #2
 8001786:	2b02      	cmp	r3, #2
 8001788:	d149      	bne.n	800181e <rcu_clock_freq_get+0xca>
 800178a:	6853      	ldr	r3, [r2, #4]
 800178c:	03df      	lsls	r7, r3, #15
 800178e:	d517      	bpl.n	80017c0 <rcu_clock_freq_get+0x6c>
 8001790:	6ad3      	ldr	r3, [r2, #44]	; 0x2c
 8001792:	492b      	ldr	r1, [pc, #172]	; (8001840 <rcu_clock_freq_get+0xec>)
 8001794:	f013 4f80 	tst.w	r3, #1073741824	; 0x40000000
 8001798:	4b2a      	ldr	r3, [pc, #168]	; (8001844 <rcu_clock_freq_get+0xf0>)
 800179a:	bf08      	it	eq
 800179c:	4619      	moveq	r1, r3
 800179e:	6853      	ldr	r3, [r2, #4]
 80017a0:	039e      	lsls	r6, r3, #14
 80017a2:	d500      	bpl.n	80017a6 <rcu_clock_freq_get+0x52>
 80017a4:	0849      	lsrs	r1, r1, #1
 80017a6:	6853      	ldr	r3, [r2, #4]
 80017a8:	6850      	ldr	r0, [r2, #4]
 80017aa:	f010 6f00 	tst.w	r0, #134217728	; 0x8000000
 80017ae:	f3c3 4383 	ubfx	r3, r3, #18, #4
 80017b2:	6850      	ldr	r0, [r2, #4]
 80017b4:	d006      	beq.n	80017c4 <rcu_clock_freq_get+0x70>
 80017b6:	0045      	lsls	r5, r0, #1
 80017b8:	d40a      	bmi.n	80017d0 <rcu_clock_freq_get+0x7c>
 80017ba:	f043 0310 	orr.w	r3, r3, #16
 80017be:	e005      	b.n	80017cc <rcu_clock_freq_get+0x78>
 80017c0:	4921      	ldr	r1, [pc, #132]	; (8001848 <rcu_clock_freq_get+0xf4>)
 80017c2:	e7f0      	b.n	80017a6 <rcu_clock_freq_get+0x52>
 80017c4:	0040      	lsls	r0, r0, #1
 80017c6:	d526      	bpl.n	8001816 <rcu_clock_freq_get+0xc2>
 80017c8:	f043 0320 	orr.w	r3, r3, #32
 80017cc:	3301      	adds	r3, #1
 80017ce:	e003      	b.n	80017d8 <rcu_clock_freq_get+0x84>
 80017d0:	f043 0330 	orr.w	r3, r3, #48	; 0x30
 80017d4:	2b3f      	cmp	r3, #63	; 0x3f
 80017d6:	d1f9      	bne.n	80017cc <rcu_clock_freq_get+0x78>
 80017d8:	fb01 f003 	mul.w	r0, r1, r3
 80017dc:	6853      	ldr	r3, [r2, #4]
 80017de:	6851      	ldr	r1, [r2, #4]
 80017e0:	6852      	ldr	r2, [r2, #4]
 80017e2:	f3c3 1303 	ubfx	r3, r3, #4, #4
 80017e6:	3320      	adds	r3, #32
 80017e8:	446b      	add	r3, sp
 80017ea:	f3c1 2102 	ubfx	r1, r1, #8, #3
 80017ee:	f3c2 22c2 	ubfx	r2, r2, #11, #3
 80017f2:	3120      	adds	r1, #32
 80017f4:	3220      	adds	r2, #32
 80017f6:	f813 3c10 	ldrb.w	r3, [r3, #-16]
 80017fa:	4469      	add	r1, sp
 80017fc:	446a      	add	r2, sp
 80017fe:	f811 1c20 	ldrb.w	r1, [r1, #-32]
 8001802:	f812 2c18 	ldrb.w	r2, [r2, #-24]
 8001806:	fa20 f303 	lsr.w	r3, r0, r3
 800180a:	2c03      	cmp	r4, #3
 800180c:	d809      	bhi.n	8001822 <rcu_clock_freq_get+0xce>
 800180e:	e8df f004 	tbb	[pc, r4]
 8001812:	100d0b09 	andne	r0, sp, r9, lsl #22
 8001816:	2b0f      	cmp	r3, #15
 8001818:	d0d8      	beq.n	80017cc <rcu_clock_freq_get+0x78>
 800181a:	3302      	adds	r3, #2
 800181c:	e7dc      	b.n	80017d8 <rcu_clock_freq_get+0x84>
 800181e:	4809      	ldr	r0, [pc, #36]	; (8001844 <rcu_clock_freq_get+0xf0>)
 8001820:	e7dc      	b.n	80017dc <rcu_clock_freq_get+0x88>
 8001822:	2000      	movs	r0, #0
 8001824:	b009      	add	sp, #36	; 0x24
 8001826:	bdf0      	pop	{r4, r5, r6, r7, pc}
 8001828:	4618      	mov	r0, r3
 800182a:	e7fb      	b.n	8001824 <rcu_clock_freq_get+0xd0>
 800182c:	fa23 f001 	lsr.w	r0, r3, r1
 8001830:	e7f8      	b.n	8001824 <rcu_clock_freq_get+0xd0>
 8001832:	fa23 f002 	lsr.w	r0, r3, r2
 8001836:	e7f5      	b.n	8001824 <rcu_clock_freq_get+0xd0>
 8001838:	080024f0 	stmdaeq	r0, {r4, r5, r6, r7, sl, sp}
 800183c:	40021000 	andmi	r1, r2, r0
 8001840:	02dc6c00 	sbcseq	r6, ip, #0, 24
 8001844:	007a1200 	rsbseq	r1, sl, r0, lsl #4
 8001848:	003d0900 	eorseq	r0, sp, r0, lsl #18

0800184c <timer_deinit>:
 800184c:	b508      	push	{r3, lr}
 800184e:	4b2d      	ldr	r3, [pc, #180]	; (8001904 <timer_deinit+0xb8>)
 8001850:	4298      	cmp	r0, r3
 8001852:	d048      	beq.n	80018e6 <timer_deinit+0x9a>
 8001854:	d816      	bhi.n	8001884 <timer_deinit+0x38>
 8001856:	f5a3 6300 	sub.w	r3, r3, #2048	; 0x800
 800185a:	4298      	cmp	r0, r3
 800185c:	d03c      	beq.n	80018d8 <timer_deinit+0x8c>
 800185e:	d807      	bhi.n	8001870 <timer_deinit+0x24>
 8001860:	f1b0 4f80 	cmp.w	r0, #1073741824	; 0x40000000
 8001864:	d02a      	beq.n	80018bc <timer_deinit+0x70>
 8001866:	f5a3 6380 	sub.w	r3, r3, #1024	; 0x400
 800186a:	4298      	cmp	r0, r3
 800186c:	d02d      	beq.n	80018ca <timer_deinit+0x7e>
 800186e:	bd08      	pop	{r3, pc}
 8001870:	4b25      	ldr	r3, [pc, #148]	; (8001908 <timer_deinit+0xbc>)
 8001872:	4298      	cmp	r0, r3
 8001874:	d1fb      	bne.n	800186e <timer_deinit+0x22>
 8001876:	f240 4003 	movw	r0, #1027	; 0x403
 800187a:	f7ff ff38 	bl	80016ee <rcu_periph_reset_enable>
 800187e:	f240 4003 	movw	r0, #1027	; 0x403
 8001882:	e017      	b.n	80018b4 <timer_deinit+0x68>
 8001884:	4b21      	ldr	r3, [pc, #132]	; (800190c <timer_deinit+0xc0>)
 8001886:	4298      	cmp	r0, r3
 8001888:	d00e      	beq.n	80018a8 <timer_deinit+0x5c>
 800188a:	f503 6300 	add.w	r3, r3, #2048	; 0x800
 800188e:	4298      	cmp	r0, r3
 8001890:	d030      	beq.n	80018f4 <timer_deinit+0xa8>
 8001892:	f5a3 3390 	sub.w	r3, r3, #73728	; 0x12000
 8001896:	4298      	cmp	r0, r3
 8001898:	d1e9      	bne.n	800186e <timer_deinit+0x22>
 800189a:	f240 4005 	movw	r0, #1029	; 0x405
 800189e:	f7ff ff26 	bl	80016ee <rcu_periph_reset_enable>
 80018a2:	f240 4005 	movw	r0, #1029	; 0x405
 80018a6:	e005      	b.n	80018b4 <timer_deinit+0x68>
 80018a8:	f240 300b 	movw	r0, #779	; 0x30b
 80018ac:	f7ff ff1f 	bl	80016ee <rcu_periph_reset_enable>
 80018b0:	f240 300b 	movw	r0, #779	; 0x30b
 80018b4:	e8bd 4008 	ldmia.w	sp!, {r3, lr}
 80018b8:	f7ff bf1b 	b.w	80016f2 <rcu_periph_reset_disable>
 80018bc:	f44f 6080 	mov.w	r0, #1024	; 0x400
 80018c0:	f7ff ff15 	bl	80016ee <rcu_periph_reset_enable>
 80018c4:	f44f 6080 	mov.w	r0, #1024	; 0x400
 80018c8:	e7f4      	b.n	80018b4 <timer_deinit+0x68>
 80018ca:	f240 4001 	movw	r0, #1025	; 0x401
 80018ce:	f7ff ff0e 	bl	80016ee <rcu_periph_reset_enable>
 80018d2:	f240 4001 	movw	r0, #1025	; 0x401
 80018d6:	e7ed      	b.n	80018b4 <timer_deinit+0x68>
 80018d8:	f240 4002 	movw	r0, #1026	; 0x402
 80018dc:	f7ff ff07 	bl	80016ee <rcu_periph_reset_enable>
 80018e0:	f240 4002 	movw	r0, #1026	; 0x402
 80018e4:	e7e6      	b.n	80018b4 <timer_deinit+0x68>
 80018e6:	f240 4004 	movw	r0, #1028	; 0x404
 80018ea:	f7ff ff00 	bl	80016ee <rcu_periph_reset_enable>
 80018ee:	f240 4004 	movw	r0, #1028	; 0x404
 80018f2:	e7df      	b.n	80018b4 <timer_deinit+0x68>
 80018f4:	f240 300d 	movw	r0, #781	; 0x30d
 80018f8:	f7ff fef9 	bl	80016ee <rcu_periph_reset_enable>
 80018fc:	f240 300d 	movw	r0, #781	; 0x30d
 8001900:	e7d8      	b.n	80018b4 <timer_deinit+0x68>
 8001902:	bf00      	nop
 8001904:	40001000 	andmi	r1, r0, r0
 8001908:	40000c00 	andmi	r0, r0, r0, lsl #24
 800190c:	40012c00 	andmi	r2, r1, r0, lsl #24

08001910 <timer_init>:
 8001910:	880b      	ldrh	r3, [r1, #0]
 8001912:	b510      	push	{r4, lr}
 8001914:	6283      	str	r3, [r0, #40]	; 0x28
 8001916:	4b1a      	ldr	r3, [pc, #104]	; (8001980 <timer_init+0x70>)
 8001918:	4298      	cmp	r0, r3
 800191a:	f420 6280 	bic.w	r2, r0, #1024	; 0x400
 800191e:	d007      	beq.n	8001930 <timer_init+0x20>
 8001920:	f420 6340 	bic.w	r3, r0, #3072	; 0xc00
 8001924:	f1b3 4f80 	cmp.w	r3, #1073741824	; 0x40000000
 8001928:	d002      	beq.n	8001930 <timer_init+0x20>
 800192a:	4b16      	ldr	r3, [pc, #88]	; (8001984 <timer_init+0x74>)
 800192c:	4298      	cmp	r0, r3
 800192e:	d10b      	bne.n	8001948 <timer_init+0x38>
 8001930:	6803      	ldr	r3, [r0, #0]
 8001932:	f023 0370 	bic.w	r3, r3, #112	; 0x70
 8001936:	6003      	str	r3, [r0, #0]
 8001938:	6804      	ldr	r4, [r0, #0]
 800193a:	884b      	ldrh	r3, [r1, #2]
 800193c:	4323      	orrs	r3, r4
 800193e:	6003      	str	r3, [r0, #0]
 8001940:	6804      	ldr	r4, [r0, #0]
 8001942:	888b      	ldrh	r3, [r1, #4]
 8001944:	4323      	orrs	r3, r4
 8001946:	6003      	str	r3, [r0, #0]
 8001948:	688b      	ldr	r3, [r1, #8]
 800194a:	62c3      	str	r3, [r0, #44]	; 0x2c
 800194c:	4b0e      	ldr	r3, [pc, #56]	; (8001988 <timer_init+0x78>)
 800194e:	429a      	cmp	r2, r3
 8001950:	d010      	beq.n	8001974 <timer_init+0x64>
 8001952:	6803      	ldr	r3, [r0, #0]
 8001954:	f423 7340 	bic.w	r3, r3, #768	; 0x300
 8001958:	6003      	str	r3, [r0, #0]
 800195a:	6802      	ldr	r2, [r0, #0]
 800195c:	88cb      	ldrh	r3, [r1, #6]
 800195e:	4313      	orrs	r3, r2
 8001960:	6003      	str	r3, [r0, #0]
 8001962:	4b07      	ldr	r3, [pc, #28]	; (8001980 <timer_init+0x70>)
 8001964:	4298      	cmp	r0, r3
 8001966:	d003      	beq.n	8001970 <timer_init+0x60>
 8001968:	f503 6300 	add.w	r3, r3, #2048	; 0x800
 800196c:	4298      	cmp	r0, r3
 800196e:	d101      	bne.n	8001974 <timer_init+0x64>
 8001970:	7b0b      	ldrb	r3, [r1, #12]
 8001972:	6303      	str	r3, [r0, #48]	; 0x30
 8001974:	6943      	ldr	r3, [r0, #20]
 8001976:	f043 0301 	orr.w	r3, r3, #1
 800197a:	6143      	str	r3, [r0, #20]
 800197c:	bd10      	pop	{r4, pc}
 800197e:	bf00      	nop
 8001980:	40012c00 	andmi	r2, r1, r0, lsl #24
 8001984:	40013400 	andmi	r3, r1, r0, lsl #8
 8001988:	40001000 	andmi	r1, r0, r0

0800198c <timer_enable>:
 800198c:	6803      	ldr	r3, [r0, #0]
 800198e:	f043 0301 	orr.w	r3, r3, #1
 8001992:	6003      	str	r3, [r0, #0]
 8001994:	4770      	bx	lr

08001996 <uart0_puts>:
 8001996:	b510      	push	{r4, lr}
 8001998:	1e44      	subs	r4, r0, #1
 800199a:	f814 3f01 	ldrb.w	r3, [r4, #1]!
 800199e:	b903      	cbnz	r3, 80019a2 <uart0_puts+0xc>
 80019a0:	bd10      	pop	{r4, pc}
 80019a2:	2b0a      	cmp	r3, #10
 80019a4:	d102      	bne.n	80019ac <uart0_puts+0x16>
 80019a6:	200d      	movs	r0, #13
 80019a8:	f000 fa26 	bl	8001df8 <uart0_putc>
 80019ac:	7820      	ldrb	r0, [r4, #0]
 80019ae:	f000 fa23 	bl	8001df8 <uart0_putc>
 80019b2:	e7f2      	b.n	800199a <uart0_puts+0x4>

080019b4 <systick_config>:
 80019b4:	4b0c      	ldr	r3, [pc, #48]	; (80019e8 <systick_config+0x34>)
 80019b6:	f44f 727a 	mov.w	r2, #1000	; 0x3e8
 80019ba:	681b      	ldr	r3, [r3, #0]
 80019bc:	fbb3 f3f2 	udiv	r3, r3, r2
 80019c0:	3b01      	subs	r3, #1
 80019c2:	f1b3 7f80 	cmp.w	r3, #16777216	; 0x1000000
 80019c6:	d20d      	bcs.n	80019e4 <systick_config+0x30>
 80019c8:	f04f 22e0 	mov.w	r2, #3758153728	; 0xe000e000
 80019cc:	21f0      	movs	r1, #240	; 0xf0
 80019ce:	6153      	str	r3, [r2, #20]
 80019d0:	4b06      	ldr	r3, [pc, #24]	; (80019ec <systick_config+0x38>)
 80019d2:	2007      	movs	r0, #7
 80019d4:	f883 1023 	strb.w	r1, [r3, #35]	; 0x23
 80019d8:	2100      	movs	r1, #0
 80019da:	6191      	str	r1, [r2, #24]
 80019dc:	6110      	str	r0, [r2, #16]
 80019de:	f883 1023 	strb.w	r1, [r3, #35]	; 0x23
 80019e2:	4770      	bx	lr
 80019e4:	e7fe      	b.n	80019e4 <systick_config+0x30>
 80019e6:	bf00      	nop
 80019e8:	2000106c 	andcs	r1, r0, ip, rrx
 80019ec:	e000ed00 	and	lr, r0, r0, lsl #26

080019f0 <SysTick_Handler>:
 80019f0:	4a02      	ldr	r2, [pc, #8]	; (80019fc <SysTick_Handler+0xc>)
 80019f2:	6813      	ldr	r3, [r2, #0]
 80019f4:	3301      	adds	r3, #1
 80019f6:	6013      	str	r3, [r2, #0]
 80019f8:	4770      	bx	lr
 80019fa:	bf00      	nop
 80019fc:	20001114 	andcs	r1, r0, r4, lsl r1

08001a00 <udelay_init()>:
 8001a00:	b508      	push	{r3, lr}
 8001a02:	4b0d      	ldr	r3, [pc, #52]	; (8001a38 <udelay_init()+0x38>)
 8001a04:	681a      	ldr	r2, [r3, #0]
 8001a06:	4b0d      	ldr	r3, [pc, #52]	; (8001a3c <udelay_init()+0x3c>)
 8001a08:	429a      	cmp	r2, r3
 8001a0a:	d005      	beq.n	8001a18 <udelay_init()+0x18>
 8001a0c:	4b0c      	ldr	r3, [pc, #48]	; (8001a40 <udelay_init()+0x40>)
 8001a0e:	4a0d      	ldr	r2, [pc, #52]	; (8001a44 <udelay_init()+0x44>)
 8001a10:	480d      	ldr	r0, [pc, #52]	; (8001a48 <udelay_init()+0x48>)
 8001a12:	2122      	movs	r1, #34	; 0x22
 8001a14:	f7ff f8a8 	bl	8000b68 <__assert_func>
 8001a18:	4a0c      	ldr	r2, [pc, #48]	; (8001a4c <udelay_init()+0x4c>)
 8001a1a:	f8d2 30fc 	ldr.w	r3, [r2, #252]	; 0xfc
 8001a1e:	f043 7380 	orr.w	r3, r3, #16777216	; 0x1000000
 8001a22:	f8c2 30fc 	str.w	r3, [r2, #252]	; 0xfc
 8001a26:	4b0a      	ldr	r3, [pc, #40]	; (8001a50 <udelay_init()+0x50>)
 8001a28:	2200      	movs	r2, #0
 8001a2a:	605a      	str	r2, [r3, #4]
 8001a2c:	681a      	ldr	r2, [r3, #0]
 8001a2e:	f042 0201 	orr.w	r2, r2, #1
 8001a32:	601a      	str	r2, [r3, #0]
 8001a34:	bd08      	pop	{r3, pc}
 8001a36:	bf00      	nop
 8001a38:	2000106c 	andcs	r1, r0, ip, rrx
 8001a3c:	07270e00 	streq	r0, [r7, -r0, lsl #28]!
 8001a40:	08002b3c 	stmdaeq	r0, {r2, r3, r4, r5, r8, r9, fp, sp}
 8001a44:	08002b5e 	stmdaeq	r0, {r1, r2, r3, r4, r6, r8, r9, fp, sp}
 8001a48:	08002b6a 	stmdaeq	r0, {r1, r3, r5, r6, r8, r9, fp, sp}
 8001a4c:	e000ed00 	and	lr, r0, r0, lsl #26
 8001a50:	e0001000 	and	r1, r0, r0

08001a54 <udelay(unsigned long, unsigned long)>:
 8001a54:	2378      	movs	r3, #120	; 0x78
 8001a56:	b530      	push	{r4, r5, lr}
 8001a58:	4358      	muls	r0, r3
 8001a5a:	b909      	cbnz	r1, 8001a60 <udelay(unsigned long, unsigned long)+0xc>
 8001a5c:	4b08      	ldr	r3, [pc, #32]	; (8001a80 <udelay(unsigned long, unsigned long)+0x2c>)
 8001a5e:	6859      	ldr	r1, [r3, #4]
 8001a60:	4c07      	ldr	r4, [pc, #28]	; (8001a80 <udelay(unsigned long, unsigned long)+0x2c>)
 8001a62:	2300      	movs	r3, #0
 8001a64:	6862      	ldr	r2, [r4, #4]
 8001a66:	4291      	cmp	r1, r2
 8001a68:	d0fc      	beq.n	8001a64 <udelay(unsigned long, unsigned long)+0x10>
 8001a6a:	bf2a      	itet	cs
 8001a6c:	f102 35ff 	addcs.w	r5, r2, #4294967295	; 0xffffffff
 8001a70:	189b      	addcc	r3, r3, r2
 8001a72:	195b      	addcs	r3, r3, r5
 8001a74:	1a5b      	subs	r3, r3, r1
 8001a76:	4283      	cmp	r3, r0
 8001a78:	d300      	bcc.n	8001a7c <udelay(unsigned long, unsigned long)+0x28>
 8001a7a:	bd30      	pop	{r4, r5, pc}
 8001a7c:	4611      	mov	r1, r2
 8001a7e:	e7f1      	b.n	8001a64 <udelay(unsigned long, unsigned long)+0x10>
 8001a80:	e0001000 	and	r1, r0, r0

08001a84 <gd32_adc_init()>:
 8001a84:	b510      	push	{r4, lr}
 8001a86:	f240 6009 	movw	r0, #1545	; 0x609
 8001a8a:	4c21      	ldr	r4, [pc, #132]	; (8001b10 <gd32_adc_init()+0x8c>)
 8001a8c:	f7ff fe14 	bl	80016b8 <rcu_periph_clock_enable>
 8001a90:	2005      	movs	r0, #5
 8001a92:	f7ff fe31 	bl	80016f8 <rcu_adc_clock_config>
 8001a96:	4620      	mov	r0, r4
 8001a98:	2201      	movs	r2, #1
 8001a9a:	f44f 7180 	mov.w	r1, #256	; 0x100
 8001a9e:	f000 f9ff 	bl	8001ea0 <adc_special_function_config>
 8001aa2:	f44f 42e0 	mov.w	r2, #28672	; 0x7000
 8001aa6:	4620      	mov	r0, r4
 8001aa8:	2102      	movs	r1, #2
 8001aaa:	f000 fa91 	bl	8001fd0 <adc_external_trigger_source_config>
 8001aae:	2100      	movs	r1, #0
 8001ab0:	4620      	mov	r0, r4
 8001ab2:	f000 fa1d 	bl	8001ef0 <adc_data_alignment_config>
 8001ab6:	2000      	movs	r0, #0
 8001ab8:	f000 f9e2 	bl	8001e80 <adc_mode_config>
 8001abc:	2202      	movs	r2, #2
 8001abe:	4611      	mov	r1, r2
 8001ac0:	4620      	mov	r0, r4
 8001ac2:	f000 fa1e 	bl	8001f02 <adc_channel_length_config>
 8001ac6:	4620      	mov	r0, r4
 8001ac8:	2307      	movs	r3, #7
 8001aca:	2210      	movs	r2, #16
 8001acc:	2100      	movs	r1, #0
 8001ace:	f000 fa35 	bl	8001f3c <adc_inserted_channel_config>
 8001ad2:	2307      	movs	r3, #7
 8001ad4:	4620      	mov	r0, r4
 8001ad6:	2211      	movs	r2, #17
 8001ad8:	2101      	movs	r1, #1
 8001ada:	f000 fa2f 	bl	8001f3c <adc_inserted_channel_config>
 8001ade:	2201      	movs	r2, #1
 8001ae0:	2102      	movs	r1, #2
 8001ae2:	4620      	mov	r0, r4
 8001ae4:	f000 fa59 	bl	8001f9a <adc_external_trigger_config>
 8001ae8:	f000 f9c0 	bl	8001e6c <adc_tempsensor_vrefint_enable>
 8001aec:	4620      	mov	r0, r4
 8001aee:	f000 f9a3 	bl	8001e38 <adc_enable>
 8001af2:	2100      	movs	r1, #0
 8001af4:	f44f 707a 	mov.w	r0, #1000	; 0x3e8
 8001af8:	f7ff ffac 	bl	8001a54 <udelay(unsigned long, unsigned long)>
 8001afc:	4620      	mov	r0, r4
 8001afe:	f000 f9a3 	bl	8001e48 <adc_calibration_enable>
 8001b02:	4620      	mov	r0, r4
 8001b04:	2102      	movs	r1, #2
 8001b06:	e8bd 4010 	ldmia.w	sp!, {r4, lr}
 8001b0a:	f000 ba72 	b.w	8001ff2 <adc_software_trigger_enable>
 8001b0e:	bf00      	nop
 8001b10:	40012400 	andmi	r2, r1, r0, lsl #8

08001b14 <send_stop() [clone .isra.0]>:
 8001b14:	b508      	push	{r3, lr}
 8001b16:	4806      	ldr	r0, [pc, #24]	; (8001b30 <send_stop() [clone .isra.0]+0x1c>)
 8001b18:	f000 fb1a 	bl	8002150 <i2c_stop_on_bus>
 8001b1c:	4905      	ldr	r1, [pc, #20]	; (8001b34 <send_stop() [clone .isra.0]+0x20>)
 8001b1e:	f640 73ff 	movw	r3, #4095	; 0xfff
 8001b22:	f8d1 2400 	ldr.w	r2, [r1, #1024]	; 0x400
 8001b26:	0592      	lsls	r2, r2, #22
 8001b28:	d501      	bpl.n	8001b2e <send_stop() [clone .isra.0]+0x1a>
 8001b2a:	3b01      	subs	r3, #1
 8001b2c:	d1f9      	bne.n	8001b22 <send_stop() [clone .isra.0]+0xe>
 8001b2e:	bd08      	pop	{r3, pc}
 8001b30:	40005400 	andmi	r5, r0, r0, lsl #8
 8001b34:	40005000 	andmi	r5, r0, r0

08001b38 <gd32_i2c_begin>:
 8001b38:	b510      	push	{r4, lr}
 8001b3a:	f240 7015 	movw	r0, #1813	; 0x715
 8001b3e:	f7ff fdbb 	bl	80016b8 <rcu_periph_clock_enable>
 8001b42:	4c16      	ldr	r4, [pc, #88]	; (8001b9c <gd32_i2c_begin+0x64>)
 8001b44:	f240 6003 	movw	r0, #1539	; 0x603
 8001b48:	f7ff fdb6 	bl	80016b8 <rcu_periph_clock_enable>
 8001b4c:	f240 6003 	movw	r0, #1539	; 0x603
 8001b50:	f7ff fdb2 	bl	80016b8 <rcu_periph_clock_enable>
 8001b54:	4620      	mov	r0, r4
 8001b56:	f44f 7380 	mov.w	r3, #256	; 0x100
 8001b5a:	2203      	movs	r2, #3
 8001b5c:	211c      	movs	r1, #28
 8001b5e:	f7ff fd23 	bl	80015a8 <gpio_init>
 8001b62:	f44f 7300 	mov.w	r3, #512	; 0x200
 8001b66:	2203      	movs	r2, #3
 8001b68:	4620      	mov	r0, r4
 8001b6a:	211c      	movs	r1, #28
 8001b6c:	f7ff fd1c 	bl	80015a8 <gpio_init>
 8001b70:	f5a4 4438 	sub.w	r4, r4, #47104	; 0xb800
 8001b74:	2101      	movs	r1, #1
 8001b76:	2002      	movs	r0, #2
 8001b78:	f7ff fd66 	bl	8001648 <gpio_pin_remap_config>
 8001b7c:	4908      	ldr	r1, [pc, #32]	; (8001ba0 <gd32_i2c_begin+0x68>)
 8001b7e:	4620      	mov	r0, r4
 8001b80:	2200      	movs	r2, #0
 8001b82:	f000 fa43 	bl	800200c <i2c_clock_config>
 8001b86:	4620      	mov	r0, r4
 8001b88:	f000 fad8 	bl	800213c <i2c_enable>
 8001b8c:	4620      	mov	r0, r4
 8001b8e:	f44f 6180 	mov.w	r1, #1024	; 0x400
 8001b92:	e8bd 4010 	ldmia.w	sp!, {r4, lr}
 8001b96:	f000 babd 	b.w	8002114 <i2c_ack_config>
 8001b9a:	bf00      	nop
 8001b9c:	40010c00 	andmi	r0, r1, r0, lsl #24
 8001ba0:	00061a80 	andeq	r1, r6, r0, lsl #21

08001ba4 <gd32_i2c_set_baudrate>:
 8001ba4:	4601      	mov	r1, r0
 8001ba6:	2200      	movs	r2, #0
 8001ba8:	4801      	ldr	r0, [pc, #4]	; (8001bb0 <gd32_i2c_set_baudrate+0xc>)
 8001baa:	f000 ba2f 	b.w	800200c <i2c_clock_config>
 8001bae:	bf00      	nop
 8001bb0:	40005400 	andmi	r5, r0, r0, lsl #8

08001bb4 <gd32_i2c_set_address>:
 8001bb4:	4b01      	ldr	r3, [pc, #4]	; (8001bbc <gd32_i2c_set_address+0x8>)
 8001bb6:	0040      	lsls	r0, r0, #1
 8001bb8:	7018      	strb	r0, [r3, #0]
 8001bba:	4770      	bx	lr
 8001bbc:	20001118 	andcs	r1, r0, r8, lsl r1

08001bc0 <gd32_i2c_write>:
 8001bc0:	b5f8      	push	{r3, r4, r5, r6, r7, lr}
 8001bc2:	4f30      	ldr	r7, [pc, #192]	; (8001c84 <gd32_i2c_write+0xc4>)
 8001bc4:	4604      	mov	r4, r0
 8001bc6:	460d      	mov	r5, r1
 8001bc8:	f640 76ff 	movw	r6, #4095	; 0xfff
 8001bcc:	f240 6101 	movw	r1, #1537	; 0x601
 8001bd0:	4638      	mov	r0, r7
 8001bd2:	f000 fac7 	bl	8002164 <i2c_flag_get>
 8001bd6:	bb90      	cbnz	r0, 8001c3e <gd32_i2c_write+0x7e>
 8001bd8:	482a      	ldr	r0, [pc, #168]	; (8001c84 <gd32_i2c_write+0xc4>)
 8001bda:	4f2a      	ldr	r7, [pc, #168]	; (8001c84 <gd32_i2c_write+0xc4>)
 8001bdc:	f000 fab3 	bl	8002146 <i2c_start_on_bus>
 8001be0:	f640 76ff 	movw	r6, #4095	; 0xfff
 8001be4:	f44f 61a0 	mov.w	r1, #1280	; 0x500
 8001be8:	4638      	mov	r0, r7
 8001bea:	f000 fabb 	bl	8002164 <i2c_flag_get>
 8001bee:	b370      	cbz	r0, 8001c4e <gd32_i2c_write+0x8e>
 8001bf0:	4b25      	ldr	r3, [pc, #148]	; (8001c88 <gd32_i2c_write+0xc8>)
 8001bf2:	4824      	ldr	r0, [pc, #144]	; (8001c84 <gd32_i2c_write+0xc4>)
 8001bf4:	7819      	ldrb	r1, [r3, #0]
 8001bf6:	4f23      	ldr	r7, [pc, #140]	; (8001c84 <gd32_i2c_write+0xc4>)
 8001bf8:	f06f 0201 	mvn.w	r2, #1
 8001bfc:	f000 fa96 	bl	800212c <i2c_master_addressing>
 8001c00:	f640 76ff 	movw	r6, #4095	; 0xfff
 8001c04:	f240 5101 	movw	r1, #1281	; 0x501
 8001c08:	4638      	mov	r0, r7
 8001c0a:	f000 faab 	bl	8002164 <i2c_flag_get>
 8001c0e:	b308      	cbz	r0, 8001c54 <gd32_i2c_write+0x94>
 8001c10:	481c      	ldr	r0, [pc, #112]	; (8001c84 <gd32_i2c_write+0xc4>)
 8001c12:	4f1c      	ldr	r7, [pc, #112]	; (8001c84 <gd32_i2c_write+0xc4>)
 8001c14:	f240 5101 	movw	r1, #1281	; 0x501
 8001c18:	f000 faac 	bl	8002174 <i2c_flag_clear>
 8001c1c:	f640 76ff 	movw	r6, #4095	; 0xfff
 8001c20:	f240 5107 	movw	r1, #1287	; 0x507
 8001c24:	4638      	mov	r0, r7
 8001c26:	f000 fa9d 	bl	8002164 <i2c_flag_get>
 8001c2a:	2801      	cmp	r0, #1
 8001c2c:	d115      	bne.n	8001c5a <gd32_i2c_write+0x9a>
 8001c2e:	4f15      	ldr	r7, [pc, #84]	; (8001c84 <gd32_i2c_write+0xc4>)
 8001c30:	4425      	add	r5, r4
 8001c32:	42a5      	cmp	r5, r4
 8001c34:	d114      	bne.n	8001c60 <gd32_i2c_write+0xa0>
 8001c36:	f7ff ff6d 	bl	8001b14 <send_stop() [clone .isra.0]>
 8001c3a:	2000      	movs	r0, #0
 8001c3c:	e005      	b.n	8001c4a <gd32_i2c_write+0x8a>
 8001c3e:	3e01      	subs	r6, #1
 8001c40:	d1c4      	bne.n	8001bcc <gd32_i2c_write+0xc>
 8001c42:	f7ff ff67 	bl	8001b14 <send_stop() [clone .isra.0]>
 8001c46:	f04f 30ff 	mov.w	r0, #4294967295	; 0xffffffff
 8001c4a:	4240      	negs	r0, r0
 8001c4c:	bdf8      	pop	{r3, r4, r5, r6, r7, pc}
 8001c4e:	3e01      	subs	r6, #1
 8001c50:	d1c8      	bne.n	8001be4 <gd32_i2c_write+0x24>
 8001c52:	e7f6      	b.n	8001c42 <gd32_i2c_write+0x82>
 8001c54:	3e01      	subs	r6, #1
 8001c56:	d1d5      	bne.n	8001c04 <gd32_i2c_write+0x44>
 8001c58:	e7f3      	b.n	8001c42 <gd32_i2c_write+0x82>
 8001c5a:	3e01      	subs	r6, #1
 8001c5c:	d1e0      	bne.n	8001c20 <gd32_i2c_write+0x60>
 8001c5e:	e7f0      	b.n	8001c42 <gd32_i2c_write+0x82>
 8001c60:	f814 1b01 	ldrb.w	r1, [r4], #1
 8001c64:	4638      	mov	r0, r7
 8001c66:	f000 fa78 	bl	800215a <i2c_data_transmit>
 8001c6a:	f640 76ff 	movw	r6, #4095	; 0xfff
 8001c6e:	f240 5102 	movw	r1, #1282	; 0x502
 8001c72:	4638      	mov	r0, r7
 8001c74:	f000 fa76 	bl	8002164 <i2c_flag_get>
 8001c78:	2800      	cmp	r0, #0
 8001c7a:	d1da      	bne.n	8001c32 <gd32_i2c_write+0x72>
 8001c7c:	3e01      	subs	r6, #1
 8001c7e:	d1f6      	bne.n	8001c6e <gd32_i2c_write+0xae>
 8001c80:	e7df      	b.n	8001c42 <gd32_i2c_write+0x82>
 8001c82:	bf00      	nop
 8001c84:	40005400 	andmi	r5, r0, r0, lsl #8
 8001c88:	20001118 	andcs	r1, r0, r8, lsl r1

08001c8c <gd32_i2c_read>:
 8001c8c:	e92d 43f8 	stmdb	sp!, {r3, r4, r5, r6, r7, r8, r9, lr}
 8001c90:	4f4e      	ldr	r7, [pc, #312]	; (8001dcc <gd32_i2c_read+0x140>)
 8001c92:	4680      	mov	r8, r0
 8001c94:	460c      	mov	r4, r1
 8001c96:	f640 75ff 	movw	r5, #4095	; 0xfff
 8001c9a:	f240 6101 	movw	r1, #1537	; 0x601
 8001c9e:	4638      	mov	r0, r7
 8001ca0:	f000 fa60 	bl	8002164 <i2c_flag_get>
 8001ca4:	4606      	mov	r6, r0
 8001ca6:	bb10      	cbnz	r0, 8001cee <gd32_i2c_read+0x62>
 8001ca8:	2c02      	cmp	r4, #2
 8001caa:	d104      	bne.n	8001cb6 <gd32_i2c_read+0x2a>
 8001cac:	4847      	ldr	r0, [pc, #284]	; (8001dcc <gd32_i2c_read+0x140>)
 8001cae:	f44f 6100 	mov.w	r1, #2048	; 0x800
 8001cb2:	f000 fa35 	bl	8002120 <i2c_ackpos_config>
 8001cb6:	4845      	ldr	r0, [pc, #276]	; (8001dcc <gd32_i2c_read+0x140>)
 8001cb8:	4f44      	ldr	r7, [pc, #272]	; (8001dcc <gd32_i2c_read+0x140>)
 8001cba:	f000 fa44 	bl	8002146 <i2c_start_on_bus>
 8001cbe:	f640 75ff 	movw	r5, #4095	; 0xfff
 8001cc2:	f44f 61a0 	mov.w	r1, #1280	; 0x500
 8001cc6:	4638      	mov	r0, r7
 8001cc8:	f000 fa4c 	bl	8002164 <i2c_flag_get>
 8001ccc:	b1b8      	cbz	r0, 8001cfe <gd32_i2c_read+0x72>
 8001cce:	4b40      	ldr	r3, [pc, #256]	; (8001dd0 <gd32_i2c_read+0x144>)
 8001cd0:	483e      	ldr	r0, [pc, #248]	; (8001dcc <gd32_i2c_read+0x140>)
 8001cd2:	7819      	ldrb	r1, [r3, #0]
 8001cd4:	2201      	movs	r2, #1
 8001cd6:	f000 fa29 	bl	800212c <i2c_master_addressing>
 8001cda:	2c02      	cmp	r4, #2
 8001cdc:	d803      	bhi.n	8001ce6 <gd32_i2c_read+0x5a>
 8001cde:	483b      	ldr	r0, [pc, #236]	; (8001dcc <gd32_i2c_read+0x140>)
 8001ce0:	2100      	movs	r1, #0
 8001ce2:	f000 fa17 	bl	8002114 <i2c_ack_config>
 8001ce6:	4f39      	ldr	r7, [pc, #228]	; (8001dcc <gd32_i2c_read+0x140>)
 8001ce8:	f640 75ff 	movw	r5, #4095	; 0xfff
 8001cec:	e00c      	b.n	8001d08 <gd32_i2c_read+0x7c>
 8001cee:	3d01      	subs	r5, #1
 8001cf0:	d1d3      	bne.n	8001c9a <gd32_i2c_read+0xe>
 8001cf2:	f7ff ff0f 	bl	8001b14 <send_stop() [clone .isra.0]>
 8001cf6:	2604      	movs	r6, #4
 8001cf8:	4630      	mov	r0, r6
 8001cfa:	e8bd 83f8 	ldmia.w	sp!, {r3, r4, r5, r6, r7, r8, r9, pc}
 8001cfe:	3d01      	subs	r5, #1
 8001d00:	d1df      	bne.n	8001cc2 <gd32_i2c_read+0x36>
 8001d02:	e7f6      	b.n	8001cf2 <gd32_i2c_read+0x66>
 8001d04:	3d01      	subs	r5, #1
 8001d06:	d0f4      	beq.n	8001cf2 <gd32_i2c_read+0x66>
 8001d08:	f240 5101 	movw	r1, #1281	; 0x501
 8001d0c:	4638      	mov	r0, r7
 8001d0e:	f000 fa29 	bl	8002164 <i2c_flag_get>
 8001d12:	2800      	cmp	r0, #0
 8001d14:	d0f6      	beq.n	8001d04 <gd32_i2c_read+0x78>
 8001d16:	482d      	ldr	r0, [pc, #180]	; (8001dcc <gd32_i2c_read+0x140>)
 8001d18:	f240 5101 	movw	r1, #1281	; 0x501
 8001d1c:	f000 fa2a 	bl	8002174 <i2c_flag_clear>
 8001d20:	2c01      	cmp	r4, #1
 8001d22:	d102      	bne.n	8001d2a <gd32_i2c_read+0x9e>
 8001d24:	4829      	ldr	r0, [pc, #164]	; (8001dcc <gd32_i2c_read+0x140>)
 8001d26:	f000 fa13 	bl	8002150 <i2c_stop_on_bus>
 8001d2a:	4d28      	ldr	r5, [pc, #160]	; (8001dcc <gd32_i2c_read+0x140>)
 8001d2c:	f640 77ff 	movw	r7, #4095	; 0xfff
 8001d30:	e01b      	b.n	8001d6a <gd32_i2c_read+0xde>
 8001d32:	f1b9 0901 	subs.w	r9, r9, #1
 8001d36:	d0dc      	beq.n	8001cf2 <gd32_i2c_read+0x66>
 8001d38:	f240 5102 	movw	r1, #1282	; 0x502
 8001d3c:	4628      	mov	r0, r5
 8001d3e:	f000 fa11 	bl	8002164 <i2c_flag_get>
 8001d42:	2800      	cmp	r0, #0
 8001d44:	d0f5      	beq.n	8001d32 <gd32_i2c_read+0xa6>
 8001d46:	2100      	movs	r1, #0
 8001d48:	4628      	mov	r0, r5
 8001d4a:	f000 f9e3 	bl	8002114 <i2c_ack_config>
 8001d4e:	f240 5106 	movw	r1, #1286	; 0x506
 8001d52:	4628      	mov	r0, r5
 8001d54:	f000 fa06 	bl	8002164 <i2c_flag_get>
 8001d58:	b368      	cbz	r0, 8001db6 <gd32_i2c_read+0x12a>
 8001d5a:	4628      	mov	r0, r5
 8001d5c:	f000 f9ff 	bl	800215e <i2c_data_receive>
 8001d60:	f808 0b01 	strb.w	r0, [r8], #1
 8001d64:	3c01      	subs	r4, #1
 8001d66:	f640 77fe 	movw	r7, #4094	; 0xffe
 8001d6a:	bb34      	cbnz	r4, 8001dba <gd32_i2c_read+0x12e>
 8001d6c:	4a19      	ldr	r2, [pc, #100]	; (8001dd4 <gd32_i2c_read+0x148>)
 8001d6e:	f640 73ff 	movw	r3, #4095	; 0xfff
 8001d72:	f8d2 4400 	ldr.w	r4, [r2, #1024]	; 0x400
 8001d76:	f414 7400 	ands.w	r4, r4, #512	; 0x200
 8001d7a:	d123      	bne.n	8001dc4 <gd32_i2c_read+0x138>
 8001d7c:	4813      	ldr	r0, [pc, #76]	; (8001dcc <gd32_i2c_read+0x140>)
 8001d7e:	f44f 6180 	mov.w	r1, #1024	; 0x400
 8001d82:	f000 f9c7 	bl	8002114 <i2c_ack_config>
 8001d86:	4811      	ldr	r0, [pc, #68]	; (8001dcc <gd32_i2c_read+0x140>)
 8001d88:	4621      	mov	r1, r4
 8001d8a:	f000 f9c9 	bl	8002120 <i2c_ackpos_config>
 8001d8e:	e7b3      	b.n	8001cf8 <gd32_i2c_read+0x6c>
 8001d90:	2c02      	cmp	r4, #2
 8001d92:	d1dc      	bne.n	8001d4e <gd32_i2c_read+0xc2>
 8001d94:	f640 79ff 	movw	r9, #4095	; 0xfff
 8001d98:	e002      	b.n	8001da0 <gd32_i2c_read+0x114>
 8001d9a:	f1b9 0901 	subs.w	r9, r9, #1
 8001d9e:	d0a8      	beq.n	8001cf2 <gd32_i2c_read+0x66>
 8001da0:	f240 5102 	movw	r1, #1282	; 0x502
 8001da4:	4628      	mov	r0, r5
 8001da6:	f000 f9dd 	bl	8002164 <i2c_flag_get>
 8001daa:	2800      	cmp	r0, #0
 8001dac:	d0f5      	beq.n	8001d9a <gd32_i2c_read+0x10e>
 8001dae:	4628      	mov	r0, r5
 8001db0:	f000 f9ce 	bl	8002150 <i2c_stop_on_bus>
 8001db4:	e7cb      	b.n	8001d4e <gd32_i2c_read+0xc2>
 8001db6:	3f01      	subs	r7, #1
 8001db8:	d09b      	beq.n	8001cf2 <gd32_i2c_read+0x66>
 8001dba:	2c03      	cmp	r4, #3
 8001dbc:	d1e8      	bne.n	8001d90 <gd32_i2c_read+0x104>
 8001dbe:	f640 79ff 	movw	r9, #4095	; 0xfff
 8001dc2:	e7b9      	b.n	8001d38 <gd32_i2c_read+0xac>
 8001dc4:	3b01      	subs	r3, #1
 8001dc6:	d1d4      	bne.n	8001d72 <gd32_i2c_read+0xe6>
 8001dc8:	e795      	b.n	8001cf6 <gd32_i2c_read+0x6a>
 8001dca:	bf00      	nop
 8001dcc:	40005400 	andmi	r5, r0, r0, lsl #8
 8001dd0:	20001118 	andcs	r1, r0, r8, lsl r1
 8001dd4:	40005000 	andmi	r5, r0, r0

08001dd8 <uart0_init>:
 8001dd8:	b507      	push	{r0, r1, r2, lr}
 8001dda:	2301      	movs	r3, #1
 8001ddc:	9300      	str	r3, [sp, #0]
 8001dde:	4805      	ldr	r0, [pc, #20]	; (8001df4 <uart0_init+0x1c>)
 8001de0:	2300      	movs	r3, #0
 8001de2:	2208      	movs	r2, #8
 8001de4:	f44f 31e1 	mov.w	r1, #115200	; 0x1c200
 8001de8:	f000 fa86 	bl	80022f8 <gd32_uart_begin>
 8001dec:	b003      	add	sp, #12
 8001dee:	f85d fb04 	ldr.w	pc, [sp], #4
 8001df2:	bf00      	nop
 8001df4:	40013800 	andmi	r3, r1, r0, lsl #16

08001df8 <uart0_putc>:
 8001df8:	280a      	cmp	r0, #10
 8001dfa:	b538      	push	{r3, r4, r5, lr}
 8001dfc:	4604      	mov	r4, r0
 8001dfe:	d10a      	bne.n	8001e16 <uart0_putc+0x1e>
 8001e00:	4d0b      	ldr	r5, [pc, #44]	; (8001e30 <uart0_putc+0x38>)
 8001e02:	2107      	movs	r1, #7
 8001e04:	4628      	mov	r0, r5
 8001e06:	f000 fa6f 	bl	80022e8 <usart_flag_get>
 8001e0a:	2800      	cmp	r0, #0
 8001e0c:	d0f9      	beq.n	8001e02 <uart0_putc+0xa>
 8001e0e:	4b09      	ldr	r3, [pc, #36]	; (8001e34 <uart0_putc+0x3c>)
 8001e10:	220d      	movs	r2, #13
 8001e12:	f8c3 2804 	str.w	r2, [r3, #2052]	; 0x804
 8001e16:	4d06      	ldr	r5, [pc, #24]	; (8001e30 <uart0_putc+0x38>)
 8001e18:	2107      	movs	r1, #7
 8001e1a:	4628      	mov	r0, r5
 8001e1c:	f000 fa64 	bl	80022e8 <usart_flag_get>
 8001e20:	2800      	cmp	r0, #0
 8001e22:	d0f9      	beq.n	8001e18 <uart0_putc+0x20>
 8001e24:	4b03      	ldr	r3, [pc, #12]	; (8001e34 <uart0_putc+0x3c>)
 8001e26:	b2e4      	uxtb	r4, r4
 8001e28:	f8c3 4804 	str.w	r4, [r3, #2052]	; 0x804
 8001e2c:	bd38      	pop	{r3, r4, r5, pc}
 8001e2e:	bf00      	nop
 8001e30:	40013800 	andmi	r3, r1, r0, lsl #16
 8001e34:	40013000 	andmi	r3, r1, r0

08001e38 <adc_enable>:
 8001e38:	6883      	ldr	r3, [r0, #8]
 8001e3a:	07db      	lsls	r3, r3, #31
 8001e3c:	bf5e      	ittt	pl
 8001e3e:	6883      	ldrpl	r3, [r0, #8]
 8001e40:	f043 0301 	orrpl.w	r3, r3, #1
 8001e44:	6083      	strpl	r3, [r0, #8]
 8001e46:	4770      	bx	lr

08001e48 <adc_calibration_enable>:
 8001e48:	6883      	ldr	r3, [r0, #8]
 8001e4a:	f043 0308 	orr.w	r3, r3, #8
 8001e4e:	f100 0208 	add.w	r2, r0, #8
 8001e52:	6083      	str	r3, [r0, #8]
 8001e54:	6813      	ldr	r3, [r2, #0]
 8001e56:	0719      	lsls	r1, r3, #28
 8001e58:	d4fc      	bmi.n	8001e54 <adc_calibration_enable+0xc>
 8001e5a:	6883      	ldr	r3, [r0, #8]
 8001e5c:	f043 0304 	orr.w	r3, r3, #4
 8001e60:	6083      	str	r3, [r0, #8]
 8001e62:	6813      	ldr	r3, [r2, #0]
 8001e64:	075b      	lsls	r3, r3, #29
 8001e66:	d4fc      	bmi.n	8001e62 <adc_calibration_enable+0x1a>
 8001e68:	4770      	bx	lr
	...

08001e6c <adc_tempsensor_vrefint_enable>:
 8001e6c:	4a03      	ldr	r2, [pc, #12]	; (8001e7c <adc_tempsensor_vrefint_enable+0x10>)
 8001e6e:	f8d2 3408 	ldr.w	r3, [r2, #1032]	; 0x408
 8001e72:	f443 0300 	orr.w	r3, r3, #8388608	; 0x800000
 8001e76:	f8c2 3408 	str.w	r3, [r2, #1032]	; 0x408
 8001e7a:	4770      	bx	lr
 8001e7c:	40012000 	andmi	r2, r1, r0

08001e80 <adc_mode_config>:
 8001e80:	4b06      	ldr	r3, [pc, #24]	; (8001e9c <adc_mode_config+0x1c>)
 8001e82:	f8d3 2404 	ldr.w	r2, [r3, #1028]	; 0x404
 8001e86:	f422 2270 	bic.w	r2, r2, #983040	; 0xf0000
 8001e8a:	f8c3 2404 	str.w	r2, [r3, #1028]	; 0x404
 8001e8e:	f8d3 2404 	ldr.w	r2, [r3, #1028]	; 0x404
 8001e92:	4302      	orrs	r2, r0
 8001e94:	f8c3 2404 	str.w	r2, [r3, #1028]	; 0x404
 8001e98:	4770      	bx	lr
 8001e9a:	bf00      	nop
 8001e9c:	40012000 	andmi	r2, r1, r0

08001ea0 <adc_special_function_config>:
 8001ea0:	b510      	push	{r4, lr}
 8001ea2:	f401 7380 	and.w	r3, r1, #256	; 0x100
 8001ea6:	f401 6480 	and.w	r4, r1, #1024	; 0x400
 8001eaa:	f001 0102 	and.w	r1, r1, #2
 8001eae:	b17a      	cbz	r2, 8001ed0 <adc_special_function_config+0x30>
 8001eb0:	b11b      	cbz	r3, 8001eba <adc_special_function_config+0x1a>
 8001eb2:	6843      	ldr	r3, [r0, #4]
 8001eb4:	f443 7380 	orr.w	r3, r3, #256	; 0x100
 8001eb8:	6043      	str	r3, [r0, #4]
 8001eba:	b11c      	cbz	r4, 8001ec4 <adc_special_function_config+0x24>
 8001ebc:	6843      	ldr	r3, [r0, #4]
 8001ebe:	f443 6380 	orr.w	r3, r3, #1024	; 0x400
 8001ec2:	6043      	str	r3, [r0, #4]
 8001ec4:	b119      	cbz	r1, 8001ece <adc_special_function_config+0x2e>
 8001ec6:	6883      	ldr	r3, [r0, #8]
 8001ec8:	f043 0302 	orr.w	r3, r3, #2
 8001ecc:	6083      	str	r3, [r0, #8]
 8001ece:	bd10      	pop	{r4, pc}
 8001ed0:	b11b      	cbz	r3, 8001eda <adc_special_function_config+0x3a>
 8001ed2:	6843      	ldr	r3, [r0, #4]
 8001ed4:	f423 7380 	bic.w	r3, r3, #256	; 0x100
 8001ed8:	6043      	str	r3, [r0, #4]
 8001eda:	b11c      	cbz	r4, 8001ee4 <adc_special_function_config+0x44>
 8001edc:	6843      	ldr	r3, [r0, #4]
 8001ede:	f423 6380 	bic.w	r3, r3, #1024	; 0x400
 8001ee2:	6043      	str	r3, [r0, #4]
 8001ee4:	2900      	cmp	r1, #0
 8001ee6:	d0f2      	beq.n	8001ece <adc_special_function_config+0x2e>
 8001ee8:	6883      	ldr	r3, [r0, #8]
 8001eea:	f023 0302 	bic.w	r3, r3, #2
 8001eee:	e7ed      	b.n	8001ecc <adc_special_function_config+0x2c>

08001ef0 <adc_data_alignment_config>:
 8001ef0:	6883      	ldr	r3, [r0, #8]
 8001ef2:	b119      	cbz	r1, 8001efc <adc_data_alignment_config+0xc>
 8001ef4:	f443 6300 	orr.w	r3, r3, #2048	; 0x800
 8001ef8:	6083      	str	r3, [r0, #8]
 8001efa:	4770      	bx	lr
 8001efc:	f423 6300 	bic.w	r3, r3, #2048	; 0x800
 8001f00:	e7fa      	b.n	8001ef8 <adc_data_alignment_config+0x8>

08001f02 <adc_channel_length_config>:
 8001f02:	2901      	cmp	r1, #1
 8001f04:	d002      	beq.n	8001f0c <adc_channel_length_config+0xa>
 8001f06:	2902      	cmp	r1, #2
 8001f08:	d00c      	beq.n	8001f24 <adc_channel_length_config+0x22>
 8001f0a:	4770      	bx	lr
 8001f0c:	6ac3      	ldr	r3, [r0, #44]	; 0x2c
 8001f0e:	f423 0370 	bic.w	r3, r3, #15728640	; 0xf00000
 8001f12:	62c3      	str	r3, [r0, #44]	; 0x2c
 8001f14:	3a01      	subs	r2, #1
 8001f16:	6ac3      	ldr	r3, [r0, #44]	; 0x2c
 8001f18:	0512      	lsls	r2, r2, #20
 8001f1a:	f402 0270 	and.w	r2, r2, #15728640	; 0xf00000
 8001f1e:	431a      	orrs	r2, r3
 8001f20:	62c2      	str	r2, [r0, #44]	; 0x2c
 8001f22:	4770      	bx	lr
 8001f24:	6b83      	ldr	r3, [r0, #56]	; 0x38
 8001f26:	f423 1340 	bic.w	r3, r3, #3145728	; 0x300000
 8001f2a:	6383      	str	r3, [r0, #56]	; 0x38
 8001f2c:	3a01      	subs	r2, #1
 8001f2e:	6b83      	ldr	r3, [r0, #56]	; 0x38
 8001f30:	0512      	lsls	r2, r2, #20
 8001f32:	f402 1240 	and.w	r2, r2, #3145728	; 0x300000
 8001f36:	431a      	orrs	r2, r3
 8001f38:	6382      	str	r2, [r0, #56]	; 0x38
 8001f3a:	4770      	bx	lr

08001f3c <adc_inserted_channel_config>:
 8001f3c:	b530      	push	{r4, r5, lr}
 8001f3e:	6b85      	ldr	r5, [r0, #56]	; 0x38
 8001f40:	6b84      	ldr	r4, [r0, #56]	; 0x38
 8001f42:	f3c5 5501 	ubfx	r5, r5, #20, #2
 8001f46:	3103      	adds	r1, #3
 8001f48:	1b49      	subs	r1, r1, r5
 8001f4a:	eb01 0181 	add.w	r1, r1, r1, lsl #2
 8001f4e:	251f      	movs	r5, #31
 8001f50:	408d      	lsls	r5, r1
 8001f52:	ea24 0405 	bic.w	r4, r4, r5
 8001f56:	fa02 f101 	lsl.w	r1, r2, r1
 8001f5a:	4321      	orrs	r1, r4
 8001f5c:	2a09      	cmp	r2, #9
 8001f5e:	6381      	str	r1, [r0, #56]	; 0x38
 8001f60:	d80b      	bhi.n	8001f7a <adc_inserted_channel_config+0x3e>
 8001f62:	6901      	ldr	r1, [r0, #16]
 8001f64:	eb02 0242 	add.w	r2, r2, r2, lsl #1
 8001f68:	2407      	movs	r4, #7
 8001f6a:	4094      	lsls	r4, r2
 8001f6c:	ea21 0104 	bic.w	r1, r1, r4
 8001f70:	fa03 f202 	lsl.w	r2, r3, r2
 8001f74:	430a      	orrs	r2, r1
 8001f76:	6102      	str	r2, [r0, #16]
 8001f78:	bd30      	pop	{r4, r5, pc}
 8001f7a:	2a11      	cmp	r2, #17
 8001f7c:	d8fc      	bhi.n	8001f78 <adc_inserted_channel_config+0x3c>
 8001f7e:	2103      	movs	r1, #3
 8001f80:	f06f 051d 	mvn.w	r5, #29
 8001f84:	fb11 5202 	smlabb	r2, r1, r2, r5
 8001f88:	68c4      	ldr	r4, [r0, #12]
 8001f8a:	2107      	movs	r1, #7
 8001f8c:	4091      	lsls	r1, r2
 8001f8e:	ea24 0101 	bic.w	r1, r4, r1
 8001f92:	4093      	lsls	r3, r2
 8001f94:	430b      	orrs	r3, r1
 8001f96:	60c3      	str	r3, [r0, #12]
 8001f98:	e7ee      	b.n	8001f78 <adc_inserted_channel_config+0x3c>

08001f9a <adc_external_trigger_config>:
 8001f9a:	f001 0301 	and.w	r3, r1, #1
 8001f9e:	f001 0102 	and.w	r1, r1, #2
 8001fa2:	b152      	cbz	r2, 8001fba <adc_external_trigger_config+0x20>
 8001fa4:	b11b      	cbz	r3, 8001fae <adc_external_trigger_config+0x14>
 8001fa6:	6883      	ldr	r3, [r0, #8]
 8001fa8:	f443 1380 	orr.w	r3, r3, #1048576	; 0x100000
 8001fac:	6083      	str	r3, [r0, #8]
 8001fae:	b119      	cbz	r1, 8001fb8 <adc_external_trigger_config+0x1e>
 8001fb0:	6883      	ldr	r3, [r0, #8]
 8001fb2:	f443 4300 	orr.w	r3, r3, #32768	; 0x8000
 8001fb6:	6083      	str	r3, [r0, #8]
 8001fb8:	4770      	bx	lr
 8001fba:	b11b      	cbz	r3, 8001fc4 <adc_external_trigger_config+0x2a>
 8001fbc:	6883      	ldr	r3, [r0, #8]
 8001fbe:	f423 1380 	bic.w	r3, r3, #1048576	; 0x100000
 8001fc2:	6083      	str	r3, [r0, #8]
 8001fc4:	2900      	cmp	r1, #0
 8001fc6:	d0f7      	beq.n	8001fb8 <adc_external_trigger_config+0x1e>
 8001fc8:	6883      	ldr	r3, [r0, #8]
 8001fca:	f423 4300 	bic.w	r3, r3, #32768	; 0x8000
 8001fce:	e7f2      	b.n	8001fb6 <adc_external_trigger_config+0x1c>

08001fd0 <adc_external_trigger_source_config>:
 8001fd0:	2901      	cmp	r1, #1
 8001fd2:	d002      	beq.n	8001fda <adc_external_trigger_source_config+0xa>
 8001fd4:	2902      	cmp	r1, #2
 8001fd6:	d008      	beq.n	8001fea <adc_external_trigger_source_config+0x1a>
 8001fd8:	4770      	bx	lr
 8001fda:	6883      	ldr	r3, [r0, #8]
 8001fdc:	f423 2360 	bic.w	r3, r3, #917504	; 0xe0000
 8001fe0:	6083      	str	r3, [r0, #8]
 8001fe2:	6883      	ldr	r3, [r0, #8]
 8001fe4:	4313      	orrs	r3, r2
 8001fe6:	6083      	str	r3, [r0, #8]
 8001fe8:	4770      	bx	lr
 8001fea:	6883      	ldr	r3, [r0, #8]
 8001fec:	f423 43e0 	bic.w	r3, r3, #28672	; 0x7000
 8001ff0:	e7f6      	b.n	8001fe0 <adc_external_trigger_source_config+0x10>

08001ff2 <adc_software_trigger_enable>:
 8001ff2:	07ca      	lsls	r2, r1, #31
 8001ff4:	bf42      	ittt	mi
 8001ff6:	6883      	ldrmi	r3, [r0, #8]
 8001ff8:	f443 0380 	orrmi.w	r3, r3, #4194304	; 0x400000
 8001ffc:	6083      	strmi	r3, [r0, #8]
 8001ffe:	078b      	lsls	r3, r1, #30
 8002000:	bf42      	ittt	mi
 8002002:	6883      	ldrmi	r3, [r0, #8]
 8002004:	f443 1300 	orrmi.w	r3, r3, #2097152	; 0x200000
 8002008:	6083      	strmi	r3, [r0, #8]
 800200a:	4770      	bx	lr

0800200c <i2c_clock_config>:
 800200c:	b570      	push	{r4, r5, r6, lr}
 800200e:	4604      	mov	r4, r0
 8002010:	4616      	mov	r6, r2
 8002012:	460d      	mov	r5, r1
 8002014:	b901      	cbnz	r1, 8002018 <i2c_clock_config+0xc>
 8002016:	e7fe      	b.n	8002016 <i2c_clock_config+0xa>
 8002018:	2002      	movs	r0, #2
 800201a:	f7ff fb9b 	bl	8001754 <rcu_clock_freq_get>
 800201e:	4a39      	ldr	r2, [pc, #228]	; (8002104 <i2c_clock_config+0xf8>)
 8002020:	4939      	ldr	r1, [pc, #228]	; (8002108 <i2c_clock_config+0xfc>)
 8002022:	fbb0 f1f1 	udiv	r1, r0, r1
 8002026:	4290      	cmp	r0, r2
 8002028:	bf34      	ite	cc
 800202a:	460b      	movcc	r3, r1
 800202c:	233c      	movcs	r3, #60	; 0x3c
 800202e:	6862      	ldr	r2, [r4, #4]
 8002030:	f022 027f 	bic.w	r2, r2, #127	; 0x7f
 8002034:	431a      	orrs	r2, r3
 8002036:	6062      	str	r2, [r4, #4]
 8002038:	4a34      	ldr	r2, [pc, #208]	; (800210c <i2c_clock_config+0x100>)
 800203a:	4295      	cmp	r5, r2
 800203c:	d816      	bhi.n	800206c <i2c_clock_config+0x60>
 800203e:	3101      	adds	r1, #1
 8002040:	293b      	cmp	r1, #59	; 0x3b
 8002042:	d90d      	bls.n	8002060 <i2c_clock_config+0x54>
 8002044:	233c      	movs	r3, #60	; 0x3c
 8002046:	6223      	str	r3, [r4, #32]
 8002048:	006d      	lsls	r5, r5, #1
 800204a:	fbb0 f0f5 	udiv	r0, r0, r5
 800204e:	2804      	cmp	r0, #4
 8002050:	69e3      	ldr	r3, [r4, #28]
 8002052:	bf38      	it	cc
 8002054:	2004      	movcc	r0, #4
 8002056:	f3c0 000b 	ubfx	r0, r0, #0, #12
 800205a:	4318      	orrs	r0, r3
 800205c:	61e0      	str	r0, [r4, #28]
 800205e:	bd70      	pop	{r4, r5, r6, pc}
 8002060:	2902      	cmp	r1, #2
 8002062:	d801      	bhi.n	8002068 <i2c_clock_config+0x5c>
 8002064:	2302      	movs	r3, #2
 8002066:	e7ee      	b.n	8002046 <i2c_clock_config+0x3a>
 8002068:	6221      	str	r1, [r4, #32]
 800206a:	e7ed      	b.n	8002048 <i2c_clock_config+0x3c>
 800206c:	4a28      	ldr	r2, [pc, #160]	; (8002110 <i2c_clock_config+0x104>)
 800206e:	4295      	cmp	r5, r2
 8002070:	f44f 717a 	mov.w	r1, #1000	; 0x3e8
 8002074:	d824      	bhi.n	80020c0 <i2c_clock_config+0xb4>
 8002076:	f44f 7296 	mov.w	r2, #300	; 0x12c
 800207a:	4353      	muls	r3, r2
 800207c:	fbb3 f3f1 	udiv	r3, r3, r1
 8002080:	3301      	adds	r3, #1
 8002082:	6223      	str	r3, [r4, #32]
 8002084:	b9a6      	cbnz	r6, 80020b0 <i2c_clock_config+0xa4>
 8002086:	eb05 0345 	add.w	r3, r5, r5, lsl #1
 800208a:	fbb0 f0f3 	udiv	r0, r0, r3
 800208e:	69e3      	ldr	r3, [r4, #28]
 8002090:	f423 4380 	bic.w	r3, r3, #16384	; 0x4000
 8002094:	61e3      	str	r3, [r4, #28]
 8002096:	f3c0 030b 	ubfx	r3, r0, #0, #12
 800209a:	b90b      	cbnz	r3, 80020a0 <i2c_clock_config+0x94>
 800209c:	f040 0001 	orr.w	r0, r0, #1
 80020a0:	69e3      	ldr	r3, [r4, #28]
 80020a2:	f443 4300 	orr.w	r3, r3, #32768	; 0x8000
 80020a6:	61e3      	str	r3, [r4, #28]
 80020a8:	69e3      	ldr	r3, [r4, #28]
 80020aa:	4303      	orrs	r3, r0
 80020ac:	61e3      	str	r3, [r4, #28]
 80020ae:	e7d6      	b.n	800205e <i2c_clock_config+0x52>
 80020b0:	2319      	movs	r3, #25
 80020b2:	436b      	muls	r3, r5
 80020b4:	fbb0 f0f3 	udiv	r0, r0, r3
 80020b8:	69e3      	ldr	r3, [r4, #28]
 80020ba:	f443 4380 	orr.w	r3, r3, #16384	; 0x4000
 80020be:	e7e9      	b.n	8002094 <i2c_clock_config+0x88>
 80020c0:	2278      	movs	r2, #120	; 0x78
 80020c2:	4353      	muls	r3, r2
 80020c4:	fbb3 f3f1 	udiv	r3, r3, r1
 80020c8:	3301      	adds	r3, #1
 80020ca:	6223      	str	r3, [r4, #32]
 80020cc:	b996      	cbnz	r6, 80020f4 <i2c_clock_config+0xe8>
 80020ce:	69e3      	ldr	r3, [r4, #28]
 80020d0:	f423 4380 	bic.w	r3, r3, #16384	; 0x4000
 80020d4:	eb05 0545 	add.w	r5, r5, r5, lsl #1
 80020d8:	fbb0 f0f5 	udiv	r0, r0, r5
 80020dc:	61e3      	str	r3, [r4, #28]
 80020de:	69e3      	ldr	r3, [r4, #28]
 80020e0:	f443 4300 	orr.w	r3, r3, #32768	; 0x8000
 80020e4:	61e3      	str	r3, [r4, #28]
 80020e6:	69e3      	ldr	r3, [r4, #28]
 80020e8:	4303      	orrs	r3, r0
 80020ea:	61e3      	str	r3, [r4, #28]
 80020ec:	2301      	movs	r3, #1
 80020ee:	f8c4 3090 	str.w	r3, [r4, #144]	; 0x90
 80020f2:	e7b4      	b.n	800205e <i2c_clock_config+0x52>
 80020f4:	2319      	movs	r3, #25
 80020f6:	435d      	muls	r5, r3
 80020f8:	69e3      	ldr	r3, [r4, #28]
 80020fa:	fbb0 f0f5 	udiv	r0, r0, r5
 80020fe:	f443 4380 	orr.w	r3, r3, #16384	; 0x4000
 8002102:	e7eb      	b.n	80020dc <i2c_clock_config+0xd0>
 8002104:	03938700 	orrseq	r8, r3, #0, 14
 8002108:	000f4240 	andeq	r4, pc, r0, asr #4
 800210c:	000186a0 	andeq	r8, r1, r0, lsr #13
 8002110:	00061a80 	andeq	r1, r6, r0, lsl #21

08002114 <i2c_ack_config>:
 8002114:	6803      	ldr	r3, [r0, #0]
 8002116:	f423 6380 	bic.w	r3, r3, #1024	; 0x400
 800211a:	430b      	orrs	r3, r1
 800211c:	6003      	str	r3, [r0, #0]
 800211e:	4770      	bx	lr

08002120 <i2c_ackpos_config>:
 8002120:	6803      	ldr	r3, [r0, #0]
 8002122:	f423 6300 	bic.w	r3, r3, #2048	; 0x800
 8002126:	430b      	orrs	r3, r1
 8002128:	6003      	str	r3, [r0, #0]
 800212a:	4770      	bx	lr

0800212c <i2c_master_addressing>:
 800212c:	3202      	adds	r2, #2
 800212e:	bf0c      	ite	eq
 8002130:	f021 0101 	biceq.w	r1, r1, #1
 8002134:	f041 0101 	orrne.w	r1, r1, #1
 8002138:	6101      	str	r1, [r0, #16]
 800213a:	4770      	bx	lr

0800213c <i2c_enable>:
 800213c:	6803      	ldr	r3, [r0, #0]
 800213e:	f043 0301 	orr.w	r3, r3, #1
 8002142:	6003      	str	r3, [r0, #0]
 8002144:	4770      	bx	lr

08002146 <i2c_start_on_bus>:
 8002146:	6803      	ldr	r3, [r0, #0]
 8002148:	f443 7380 	orr.w	r3, r3, #256	; 0x100
 800214c:	6003      	str	r3, [r0, #0]
 800214e:	4770      	bx	lr

08002150 <i2c_stop_on_bus>:
 8002150:	6803      	ldr	r3, [r0, #0]
 8002152:	f443 7300 	orr.w	r3, r3, #512	; 0x200
 8002156:	6003      	str	r3, [r0, #0]
 8002158:	4770      	bx	lr

0800215a <i2c_data_transmit>:
 800215a:	6101      	str	r1, [r0, #16]
 800215c:	4770      	bx	lr

0800215e <i2c_data_receive>:
 800215e:	6900      	ldr	r0, [r0, #16]
 8002160:	b2c0      	uxtb	r0, r0
 8002162:	4770      	bx	lr

08002164 <i2c_flag_get>:
 8002164:	098b      	lsrs	r3, r1, #6
 8002166:	f001 011f 	and.w	r1, r1, #31
 800216a:	5818      	ldr	r0, [r3, r0]
 800216c:	40c8      	lsrs	r0, r1
 800216e:	f000 0001 	and.w	r0, r0, #1
 8002172:	4770      	bx	lr

08002174 <i2c_flag_clear>:
 8002174:	f240 5301 	movw	r3, #1281	; 0x501
 8002178:	4299      	cmp	r1, r3
 800217a:	b510      	push	{r4, lr}
 800217c:	d102      	bne.n	8002184 <i2c_flag_clear+0x10>
 800217e:	6943      	ldr	r3, [r0, #20]
 8002180:	6983      	ldr	r3, [r0, #24]
 8002182:	bd10      	pop	{r4, pc}
 8002184:	098c      	lsrs	r4, r1, #6
 8002186:	2201      	movs	r2, #1
 8002188:	5823      	ldr	r3, [r4, r0]
 800218a:	f001 011f 	and.w	r1, r1, #31
 800218e:	408a      	lsls	r2, r1
 8002190:	ea23 0302 	bic.w	r3, r3, r2
 8002194:	5023      	str	r3, [r4, r0]
 8002196:	e7f4      	b.n	8002182 <i2c_flag_clear+0xe>

08002198 <usart_deinit>:
 8002198:	b508      	push	{r3, lr}
 800219a:	4b1d      	ldr	r3, [pc, #116]	; (8002210 <usart_deinit+0x78>)
 800219c:	4298      	cmp	r0, r3
 800219e:	d028      	beq.n	80021f2 <usart_deinit+0x5a>
 80021a0:	d808      	bhi.n	80021b4 <usart_deinit+0x1c>
 80021a2:	f5a3 6300 	sub.w	r3, r3, #2048	; 0x800
 80021a6:	4298      	cmp	r0, r3
 80021a8:	d015      	beq.n	80021d6 <usart_deinit+0x3e>
 80021aa:	f503 6380 	add.w	r3, r3, #1024	; 0x400
 80021ae:	4298      	cmp	r0, r3
 80021b0:	d018      	beq.n	80021e4 <usart_deinit+0x4c>
 80021b2:	bd08      	pop	{r3, pc}
 80021b4:	4b17      	ldr	r3, [pc, #92]	; (8002214 <usart_deinit+0x7c>)
 80021b6:	4298      	cmp	r0, r3
 80021b8:	d022      	beq.n	8002200 <usart_deinit+0x68>
 80021ba:	f503 4368 	add.w	r3, r3, #59392	; 0xe800
 80021be:	4298      	cmp	r0, r3
 80021c0:	d1f7      	bne.n	80021b2 <usart_deinit+0x1a>
 80021c2:	f240 300e 	movw	r0, #782	; 0x30e
 80021c6:	f7ff fa92 	bl	80016ee <rcu_periph_reset_enable>
 80021ca:	f240 300e 	movw	r0, #782	; 0x30e
 80021ce:	e8bd 4008 	ldmia.w	sp!, {r3, lr}
 80021d2:	f7ff ba8e 	b.w	80016f2 <rcu_periph_reset_disable>
 80021d6:	f240 4011 	movw	r0, #1041	; 0x411
 80021da:	f7ff fa88 	bl	80016ee <rcu_periph_reset_enable>
 80021de:	f240 4011 	movw	r0, #1041	; 0x411
 80021e2:	e7f4      	b.n	80021ce <usart_deinit+0x36>
 80021e4:	f240 4012 	movw	r0, #1042	; 0x412
 80021e8:	f7ff fa81 	bl	80016ee <rcu_periph_reset_enable>
 80021ec:	f240 4012 	movw	r0, #1042	; 0x412
 80021f0:	e7ed      	b.n	80021ce <usart_deinit+0x36>
 80021f2:	f240 4013 	movw	r0, #1043	; 0x413
 80021f6:	f7ff fa7a 	bl	80016ee <rcu_periph_reset_enable>
 80021fa:	f240 4013 	movw	r0, #1043	; 0x413
 80021fe:	e7e6      	b.n	80021ce <usart_deinit+0x36>
 8002200:	f240 4014 	movw	r0, #1044	; 0x414
 8002204:	f7ff fa73 	bl	80016ee <rcu_periph_reset_enable>
 8002208:	f240 4014 	movw	r0, #1044	; 0x414
 800220c:	e7df      	b.n	80021ce <usart_deinit+0x36>
 800220e:	bf00      	nop
 8002210:	40004c00 	andmi	r4, r0, r0, lsl #24
 8002214:	40005000 	andmi	r5, r0, r0

08002218 <usart_baudrate_set>:
 8002218:	b538      	push	{r3, r4, r5, lr}
 800221a:	4b11      	ldr	r3, [pc, #68]	; (8002260 <usart_baudrate_set+0x48>)
 800221c:	4298      	cmp	r0, r3
 800221e:	4604      	mov	r4, r0
 8002220:	460d      	mov	r5, r1
 8002222:	d01b      	beq.n	800225c <usart_baudrate_set+0x44>
 8002224:	d809      	bhi.n	800223a <usart_baudrate_set+0x22>
 8002226:	f5a3 6300 	sub.w	r3, r3, #2048	; 0x800
 800222a:	4298      	cmp	r0, r3
 800222c:	d016      	beq.n	800225c <usart_baudrate_set+0x44>
 800222e:	f503 6380 	add.w	r3, r3, #1024	; 0x400
 8002232:	4298      	cmp	r0, r3
 8002234:	d012      	beq.n	800225c <usart_baudrate_set+0x44>
 8002236:	2000      	movs	r0, #0
 8002238:	e009      	b.n	800224e <usart_baudrate_set+0x36>
 800223a:	4b0a      	ldr	r3, [pc, #40]	; (8002264 <usart_baudrate_set+0x4c>)
 800223c:	4298      	cmp	r0, r3
 800223e:	d00d      	beq.n	800225c <usart_baudrate_set+0x44>
 8002240:	f503 4368 	add.w	r3, r3, #59392	; 0xe800
 8002244:	4298      	cmp	r0, r3
 8002246:	d1f6      	bne.n	8002236 <usart_baudrate_set+0x1e>
 8002248:	2003      	movs	r0, #3
 800224a:	f7ff fa83 	bl	8001754 <rcu_clock_freq_get>
 800224e:	eb00 0155 	add.w	r1, r0, r5, lsr #1
 8002252:	fbb1 f1f5 	udiv	r1, r1, r5
 8002256:	b289      	uxth	r1, r1
 8002258:	60a1      	str	r1, [r4, #8]
 800225a:	bd38      	pop	{r3, r4, r5, pc}
 800225c:	2002      	movs	r0, #2
 800225e:	e7f4      	b.n	800224a <usart_baudrate_set+0x32>
 8002260:	40004c00 	andmi	r4, r0, r0, lsl #24
 8002264:	40005000 	andmi	r5, r0, r0

08002268 <usart_parity_config>:
 8002268:	68c3      	ldr	r3, [r0, #12]
 800226a:	f423 63c0 	bic.w	r3, r3, #1536	; 0x600
 800226e:	60c3      	str	r3, [r0, #12]
 8002270:	68c3      	ldr	r3, [r0, #12]
 8002272:	430b      	orrs	r3, r1
 8002274:	60c3      	str	r3, [r0, #12]
 8002276:	4770      	bx	lr

08002278 <usart_word_length_set>:
 8002278:	68c3      	ldr	r3, [r0, #12]
 800227a:	f423 5380 	bic.w	r3, r3, #4096	; 0x1000
 800227e:	60c3      	str	r3, [r0, #12]
 8002280:	68c3      	ldr	r3, [r0, #12]
 8002282:	430b      	orrs	r3, r1
 8002284:	60c3      	str	r3, [r0, #12]
 8002286:	4770      	bx	lr

08002288 <usart_stop_bit_set>:
 8002288:	6903      	ldr	r3, [r0, #16]
 800228a:	f423 5340 	bic.w	r3, r3, #12288	; 0x3000
 800228e:	6103      	str	r3, [r0, #16]
 8002290:	6903      	ldr	r3, [r0, #16]
 8002292:	430b      	orrs	r3, r1
 8002294:	6103      	str	r3, [r0, #16]
 8002296:	4770      	bx	lr

08002298 <usart_transmit_config>:
 8002298:	68c3      	ldr	r3, [r0, #12]
 800229a:	f023 0308 	bic.w	r3, r3, #8
 800229e:	60c3      	str	r3, [r0, #12]
 80022a0:	68c3      	ldr	r3, [r0, #12]
 80022a2:	f001 0108 	and.w	r1, r1, #8
 80022a6:	4319      	orrs	r1, r3
 80022a8:	60c1      	str	r1, [r0, #12]
 80022aa:	4770      	bx	lr

080022ac <usart_receive_config>:
 80022ac:	68c3      	ldr	r3, [r0, #12]
 80022ae:	f023 0304 	bic.w	r3, r3, #4
 80022b2:	60c3      	str	r3, [r0, #12]
 80022b4:	68c3      	ldr	r3, [r0, #12]
 80022b6:	f001 0104 	and.w	r1, r1, #4
 80022ba:	4319      	orrs	r1, r3
 80022bc:	60c1      	str	r1, [r0, #12]
 80022be:	4770      	bx	lr

080022c0 <usart_hardware_flow_rts_config>:
 80022c0:	6943      	ldr	r3, [r0, #20]
 80022c2:	f423 7380 	bic.w	r3, r3, #256	; 0x100
 80022c6:	6143      	str	r3, [r0, #20]
 80022c8:	6943      	ldr	r3, [r0, #20]
 80022ca:	f401 7180 	and.w	r1, r1, #256	; 0x100
 80022ce:	4319      	orrs	r1, r3
 80022d0:	6141      	str	r1, [r0, #20]
 80022d2:	4770      	bx	lr

080022d4 <usart_hardware_flow_cts_config>:
 80022d4:	6943      	ldr	r3, [r0, #20]
 80022d6:	f423 7300 	bic.w	r3, r3, #512	; 0x200
 80022da:	6143      	str	r3, [r0, #20]
 80022dc:	6943      	ldr	r3, [r0, #20]
 80022de:	f401 7100 	and.w	r1, r1, #512	; 0x200
 80022e2:	4319      	orrs	r1, r3
 80022e4:	6141      	str	r1, [r0, #20]
 80022e6:	4770      	bx	lr

080022e8 <usart_flag_get>:
 80022e8:	098b      	lsrs	r3, r1, #6
 80022ea:	f001 011f 	and.w	r1, r1, #31
 80022ee:	5818      	ldr	r0, [r3, r0]
 80022f0:	40c8      	lsrs	r0, r1
 80022f2:	f000 0001 	and.w	r0, r0, #1
 80022f6:	4770      	bx	lr

080022f8 <gd32_uart_begin>:
 80022f8:	b5f8      	push	{r3, r4, r5, r6, r7, lr}
 80022fa:	461e      	mov	r6, r3
 80022fc:	4b72      	ldr	r3, [pc, #456]	; (80024c8 <gd32_uart_begin+0x1d0>)
 80022fe:	4298      	cmp	r0, r3
 8002300:	4604      	mov	r4, r0
 8002302:	460f      	mov	r7, r1
 8002304:	4615      	mov	r5, r2
 8002306:	f000 80a4 	beq.w	8002452 <gd32_uart_begin+0x15a>
 800230a:	d80d      	bhi.n	8002328 <gd32_uart_begin+0x30>
 800230c:	f5a3 6300 	sub.w	r3, r3, #2048	; 0x800
 8002310:	4298      	cmp	r0, r3
 8002312:	d068      	beq.n	80023e6 <gd32_uart_begin+0xee>
 8002314:	f503 6380 	add.w	r3, r3, #1024	; 0x400
 8002318:	4298      	cmp	r0, r3
 800231a:	d07d      	beq.n	8002418 <gd32_uart_begin+0x120>
 800231c:	4b6b      	ldr	r3, [pc, #428]	; (80024cc <gd32_uart_begin+0x1d4>)
 800231e:	4a6c      	ldr	r2, [pc, #432]	; (80024d0 <gd32_uart_begin+0x1d8>)
 8002320:	486c      	ldr	r0, [pc, #432]	; (80024d4 <gd32_uart_begin+0x1dc>)
 8002322:	2165      	movs	r1, #101	; 0x65
 8002324:	f7fe fc20 	bl	8000b68 <__assert_func>
 8002328:	4b6b      	ldr	r3, [pc, #428]	; (80024d8 <gd32_uart_begin+0x1e0>)
 800232a:	4298      	cmp	r0, r3
 800232c:	f000 80aa 	beq.w	8002484 <gd32_uart_begin+0x18c>
 8002330:	f503 4368 	add.w	r3, r3, #59392	; 0xe800
 8002334:	4298      	cmp	r0, r3
 8002336:	d1f1      	bne.n	800231c <gd32_uart_begin+0x24>
 8002338:	f240 600e 	movw	r0, #1550	; 0x60e
 800233c:	f7ff f9bc 	bl	80016b8 <rcu_periph_clock_enable>
 8002340:	f240 6003 	movw	r0, #1539	; 0x603
 8002344:	f7ff f9b8 	bl	80016b8 <rcu_periph_clock_enable>
 8002348:	f44f 60c0 	mov.w	r0, #1536	; 0x600
 800234c:	f7ff f9b4 	bl	80016b8 <rcu_periph_clock_enable>
 8002350:	4862      	ldr	r0, [pc, #392]	; (80024dc <gd32_uart_begin+0x1e4>)
 8002352:	2340      	movs	r3, #64	; 0x40
 8002354:	2203      	movs	r2, #3
 8002356:	2118      	movs	r1, #24
 8002358:	f7ff f926 	bl	80015a8 <gpio_init>
 800235c:	485f      	ldr	r0, [pc, #380]	; (80024dc <gd32_uart_begin+0x1e4>)
 800235e:	2104      	movs	r1, #4
 8002360:	2380      	movs	r3, #128	; 0x80
 8002362:	2203      	movs	r2, #3
 8002364:	f7ff f920 	bl	80015a8 <gpio_init>
 8002368:	2101      	movs	r1, #1
 800236a:	2004      	movs	r0, #4
 800236c:	f7ff f96c 	bl	8001648 <gpio_pin_remap_config>
 8002370:	4620      	mov	r0, r4
 8002372:	f7ff ff11 	bl	8002198 <usart_deinit>
 8002376:	68e3      	ldr	r3, [r4, #12]
 8002378:	f423 5300 	bic.w	r3, r3, #8192	; 0x2000
 800237c:	60e3      	str	r3, [r4, #12]
 800237e:	4639      	mov	r1, r7
 8002380:	4620      	mov	r0, r4
 8002382:	f7ff ff49 	bl	8002218 <usart_baudrate_set>
 8002386:	f1a5 0309 	sub.w	r3, r5, #9
 800238a:	4259      	negs	r1, r3
 800238c:	4159      	adcs	r1, r3
 800238e:	0309      	lsls	r1, r1, #12
 8002390:	4620      	mov	r0, r4
 8002392:	f7ff ff71 	bl	8002278 <usart_word_length_set>
 8002396:	9906      	ldr	r1, [sp, #24]
 8002398:	1e8a      	subs	r2, r1, #2
 800239a:	4251      	negs	r1, r2
 800239c:	4151      	adcs	r1, r2
 800239e:	0349      	lsls	r1, r1, #13
 80023a0:	4620      	mov	r0, r4
 80023a2:	f7ff ff71 	bl	8002288 <usart_stop_bit_set>
 80023a6:	2e01      	cmp	r6, #1
 80023a8:	f000 8088 	beq.w	80024bc <gd32_uart_begin+0x1c4>
 80023ac:	2e02      	cmp	r6, #2
 80023ae:	f040 8088 	bne.w	80024c2 <gd32_uart_begin+0x1ca>
 80023b2:	f44f 6180 	mov.w	r1, #1024	; 0x400
 80023b6:	4620      	mov	r0, r4
 80023b8:	f7ff ff56 	bl	8002268 <usart_parity_config>
 80023bc:	2100      	movs	r1, #0
 80023be:	4620      	mov	r0, r4
 80023c0:	f7ff ff7e 	bl	80022c0 <usart_hardware_flow_rts_config>
 80023c4:	2100      	movs	r1, #0
 80023c6:	4620      	mov	r0, r4
 80023c8:	f7ff ff84 	bl	80022d4 <usart_hardware_flow_cts_config>
 80023cc:	2104      	movs	r1, #4
 80023ce:	4620      	mov	r0, r4
 80023d0:	f7ff ff6c 	bl	80022ac <usart_receive_config>
 80023d4:	2108      	movs	r1, #8
 80023d6:	4620      	mov	r0, r4
 80023d8:	f7ff ff5e 	bl	8002298 <usart_transmit_config>
 80023dc:	68e3      	ldr	r3, [r4, #12]
 80023de:	f443 5300 	orr.w	r3, r3, #8192	; 0x2000
 80023e2:	60e3      	str	r3, [r4, #12]
 80023e4:	bdf8      	pop	{r3, r4, r5, r6, r7, pc}
 80023e6:	f240 7011 	movw	r0, #1809	; 0x711
 80023ea:	f7ff f965 	bl	80016b8 <rcu_periph_clock_enable>
 80023ee:	f240 6002 	movw	r0, #1538	; 0x602
 80023f2:	f7ff f961 	bl	80016b8 <rcu_periph_clock_enable>
 80023f6:	f44f 60c0 	mov.w	r0, #1536	; 0x600
 80023fa:	f7ff f95d 	bl	80016b8 <rcu_periph_clock_enable>
 80023fe:	4838      	ldr	r0, [pc, #224]	; (80024e0 <gd32_uart_begin+0x1e8>)
 8002400:	2304      	movs	r3, #4
 8002402:	2203      	movs	r2, #3
 8002404:	2118      	movs	r1, #24
 8002406:	f7ff f8cf 	bl	80015a8 <gpio_init>
 800240a:	4835      	ldr	r0, [pc, #212]	; (80024e0 <gd32_uart_begin+0x1e8>)
 800240c:	2308      	movs	r3, #8
 800240e:	2203      	movs	r2, #3
 8002410:	2104      	movs	r1, #4
 8002412:	f7ff f8c9 	bl	80015a8 <gpio_init>
 8002416:	e7ab      	b.n	8002370 <gd32_uart_begin+0x78>
 8002418:	f240 7012 	movw	r0, #1810	; 0x712
 800241c:	f7ff f94c 	bl	80016b8 <rcu_periph_clock_enable>
 8002420:	f240 6004 	movw	r0, #1540	; 0x604
 8002424:	f7ff f948 	bl	80016b8 <rcu_periph_clock_enable>
 8002428:	f44f 60c0 	mov.w	r0, #1536	; 0x600
 800242c:	f7ff f944 	bl	80016b8 <rcu_periph_clock_enable>
 8002430:	482c      	ldr	r0, [pc, #176]	; (80024e4 <gd32_uart_begin+0x1ec>)
 8002432:	f44f 6380 	mov.w	r3, #1024	; 0x400
 8002436:	2203      	movs	r2, #3
 8002438:	2118      	movs	r1, #24
 800243a:	f7ff f8b5 	bl	80015a8 <gpio_init>
 800243e:	4829      	ldr	r0, [pc, #164]	; (80024e4 <gd32_uart_begin+0x1ec>)
 8002440:	2104      	movs	r1, #4
 8002442:	f44f 6300 	mov.w	r3, #2048	; 0x800
 8002446:	2203      	movs	r2, #3
 8002448:	f7ff f8ae 	bl	80015a8 <gpio_init>
 800244c:	4826      	ldr	r0, [pc, #152]	; (80024e8 <gd32_uart_begin+0x1f0>)
 800244e:	2101      	movs	r1, #1
 8002450:	e78c      	b.n	800236c <gd32_uart_begin+0x74>
 8002452:	f240 7013 	movw	r0, #1811	; 0x713
 8002456:	f7ff f92f 	bl	80016b8 <rcu_periph_clock_enable>
 800245a:	f240 6004 	movw	r0, #1540	; 0x604
 800245e:	f7ff f92b 	bl	80016b8 <rcu_periph_clock_enable>
 8002462:	f44f 60c0 	mov.w	r0, #1536	; 0x600
 8002466:	f7ff f927 	bl	80016b8 <rcu_periph_clock_enable>
 800246a:	481e      	ldr	r0, [pc, #120]	; (80024e4 <gd32_uart_begin+0x1ec>)
 800246c:	f44f 6380 	mov.w	r3, #1024	; 0x400
 8002470:	2203      	movs	r2, #3
 8002472:	2118      	movs	r1, #24
 8002474:	f7ff f898 	bl	80015a8 <gpio_init>
 8002478:	481a      	ldr	r0, [pc, #104]	; (80024e4 <gd32_uart_begin+0x1ec>)
 800247a:	f44f 6300 	mov.w	r3, #2048	; 0x800
 800247e:	2203      	movs	r2, #3
 8002480:	2104      	movs	r1, #4
 8002482:	e7c6      	b.n	8002412 <gd32_uart_begin+0x11a>
 8002484:	f240 7014 	movw	r0, #1812	; 0x714
 8002488:	f7ff f916 	bl	80016b8 <rcu_periph_clock_enable>
 800248c:	f240 6004 	movw	r0, #1540	; 0x604
 8002490:	f7ff f912 	bl	80016b8 <rcu_periph_clock_enable>
 8002494:	f240 6005 	movw	r0, #1541	; 0x605
 8002498:	f7ff f90e 	bl	80016b8 <rcu_periph_clock_enable>
 800249c:	f44f 60c0 	mov.w	r0, #1536	; 0x600
 80024a0:	f7ff f90a 	bl	80016b8 <rcu_periph_clock_enable>
 80024a4:	480f      	ldr	r0, [pc, #60]	; (80024e4 <gd32_uart_begin+0x1ec>)
 80024a6:	f44f 5380 	mov.w	r3, #4096	; 0x1000
 80024aa:	2203      	movs	r2, #3
 80024ac:	2118      	movs	r1, #24
 80024ae:	f7ff f87b 	bl	80015a8 <gpio_init>
 80024b2:	2304      	movs	r3, #4
 80024b4:	480d      	ldr	r0, [pc, #52]	; (80024ec <gd32_uart_begin+0x1f4>)
 80024b6:	2203      	movs	r2, #3
 80024b8:	4619      	mov	r1, r3
 80024ba:	e7aa      	b.n	8002412 <gd32_uart_begin+0x11a>
 80024bc:	f44f 61c0 	mov.w	r1, #1536	; 0x600
 80024c0:	e779      	b.n	80023b6 <gd32_uart_begin+0xbe>
 80024c2:	2100      	movs	r1, #0
 80024c4:	e777      	b.n	80023b6 <gd32_uart_begin+0xbe>
 80024c6:	bf00      	nop
 80024c8:	40004c00 	andmi	r4, r0, r0, lsl #24
 80024cc:	08002686 	stmdaeq	r0, {r1, r2, r7, r9, sl, sp}
 80024d0:	08002b79 	stmdaeq	r0, {r0, r3, r4, r5, r6, r8, r9, fp, sp}
 80024d4:	08002b92 	stmdaeq	r0, {r1, r4, r7, r8, r9, fp, sp}
 80024d8:	40005000 	andmi	r5, r0, r0
 80024dc:	40010c00 	andmi	r0, r1, r0, lsl #24
 80024e0:	40010800 	andmi	r0, r1, r0, lsl #16
 80024e4:	40011000 	andmi	r1, r1, r0
 80024e8:	00140010 	andseq	r0, r4, r0, lsl r0
 80024ec:	40011400 	andmi	r1, r1, r0, lsl #8

Disassembly of section .rodata:

080024f0 <__func__.0-0x1a8>:
	...
 80024f8:	04030201 	streq	r0, [r3], #-513	; 0xfffffdff
 80024fc:	09080706 	stmdbeq	r8, {r1, r2, r8, r9, sl}
 8002500:	00000000 	andeq	r0, r0, r0
 8002504:	04030201 	streq	r0, [r3], #-513	; 0xfffffdff
 8002508:	7261485b 	rsbvc	r4, r1, #5963776	; 0x5b0000
 800250c:	75614664 	strbvc	r4, [r1, #-1636]!	; 0xfffff99c
 8002510:	0a5d746c 	beq	975f6c8 <_sidata+0x175cb24>
 8002514:	53202d00 	noppl	{0}	; <UNPREDICTABLE>
 8002518:	6b636174 	blvs	98daaf0 <_sidata+0x18d7f4c>
 800251c:	61726620 	cmnvs	r2, r0, lsr #12
 8002520:	0a3a656d 	beq	8e9badc <_sidata+0xe98f38>
 8002524:	30522000 	subscc	r2, r2, r0
 8002528:	203d2020 	eorscs	r2, sp, r0, lsr #32
 800252c:	000a7825 	andeq	r7, sl, r5, lsr #16
 8002530:	20315220 	eorscs	r5, r1, r0, lsr #4
 8002534:	25203d20 	strcs	r3, [r0, #-3360]!	; 0xfffff2e0
 8002538:	20000a78 	andcs	r0, r0, r8, ror sl
 800253c:	20203252 	eorcs	r3, r0, r2, asr r2
 8002540:	7825203d 	stmdavc	r5!, {r0, r2, r3, r4, r5, sp}
 8002544:	5220000a 	eorpl	r0, r0, #10
 8002548:	3d202033 	stccc	0, cr2, [r0, #-204]!	; 0xffffff34
 800254c:	0a782520 	beq	9e0b9d4 <_sidata+0x1e08e30>
 8002550:	31522000 	cmpcc	r2, r0
 8002554:	203d2032 	eorscs	r2, sp, r2, lsr r0
 8002558:	000a7825 	andeq	r7, sl, r5, lsr #16
 800255c:	20524c20 	subscs	r4, r2, r0, lsr #24
 8002560:	25203d20 	strcs	r3, [r0, #-3360]!	; 0xfffff2e0
 8002564:	20000a78 	andcs	r0, r0, r8, ror sl
 8002568:	20204350 	eorcs	r4, r0, r0, asr r3
 800256c:	7825203d 	stmdavc	r5!, {r0, r2, r3, r4, r5, sp}
 8002570:	5020000a 	eorpl	r0, r0, sl
 8002574:	3d205253 	sfmcc	f5, 4, [r0, #-332]!	; 0xfffffeb4
 8002578:	0a782520 	beq	9e0ba00 <_sidata+0x1e08e5c>
 800257c:	46202d00 	strtmi	r2, [r0], -r0, lsl #26
 8002580:	462f5253 			; <UNDEFINED> instruction: 0x462f5253
 8002584:	0a3a5241 	beq	8e96e90 <_sidata+0xe942ec>
 8002588:	46432000 	strbmi	r2, [r3], -r0
 800258c:	3d205253 	sfmcc	f5, 4, [r0, #-332]!	; 0xfffffeb4
 8002590:	0a782520 	beq	9e0ba18 <_sidata+0x1e08e74>
 8002594:	46482000 	strbmi	r2, [r8], -r0
 8002598:	3d205253 	sfmcc	f5, 4, [r0, #-332]!	; 0xfffffeb4
 800259c:	0a782520 	beq	9e0ba24 <_sidata+0x1e08e80>
 80025a0:	46442000 	strbmi	r2, [r4], -r0
 80025a4:	3d205253 	sfmcc	f5, 4, [r0, #-332]!	; 0xfffffeb4
 80025a8:	0a782520 	beq	9e0ba30 <_sidata+0x1e08e8c>
 80025ac:	46412000 	strbmi	r2, [r1], -r0
 80025b0:	3d205253 	sfmcc	f5, 4, [r0, #-332]!	; 0xfffffeb4
 80025b4:	0a782520 	beq	9e0ba3c <_sidata+0x1e08e98>
 80025b8:	4d4d2000 	stclmi	0, cr2, [sp, #-0]
 80025bc:	20524146 	subscs	r4, r2, r6, asr #2
 80025c0:	7825203d 	stmdavc	r5!, {r0, r2, r3, r4, r5, sp}
 80025c4:	4220000a 	eormi	r0, r0, #10
 80025c8:	20524146 	subscs	r4, r2, r6, asr #2
 80025cc:	7825203d 	stmdavc	r5!, {r0, r2, r3, r4, r5, sp}
 80025d0:	202d000a 	eorcs	r0, sp, sl
 80025d4:	6373694d 	cmnvs	r3, #1261568	; 0x134000
 80025d8:	4c20000a 	stcmi	0, cr0, [r0], #-40	; 0xffffffd8
 80025dc:	58452f52 	stmdapl	r5, {r1, r4, r6, r8, r9, sl, fp, sp}^
 80025e0:	45525f43 	ldrbmi	r5, [r2, #-3907]	; 0xfffff0bd
 80025e4:	4e525554 	mrcmi	5, 2, r5, cr2, cr4, {2}
 80025e8:	7825203d 	stmdavc	r5!, {r0, r2, r3, r4, r5, sp}
 80025ec:	4447000a 	strbmi	r0, [r7], #-10
 80025f0:	33463233 	movtcc	r3, #25139	; 0x6233
 80025f4:	43523330 	cmpmi	r2, #48, 6	; 0xc0000000
 80025f8:	616f4200 	cmnvs	pc, r0, lsl #4
 80025fc:	74206472 	strtvc	r6, [r0], #-1138	; 0xfffffb8e
 8002600:	65747365 	ldrbvs	r7, [r4, #-869]!	; 0xfffffc9b
 8002604:	6c410a72 	mcrrvs	10, 7, r0, r1, cr2
 8002608:	5047206c 	subpl	r2, r7, ip, rrx
 800260c:	73274f49 			; <UNDEFINED> instruction: 0x73274f49
 8002610:	65726120 	ldrbvs	r6, [r2, #-288]!	; 0xfffffee0
 8002614:	74657320 	strbtvc	r7, [r5], #-800	; 0xfffffce0
 8002618:	206f7420 	rsbcs	r7, pc, r0, lsr #8
 800261c:	7074756f 	rsbsvc	r7, r4, pc, ror #10
 8002620:	48207475 	stmdami	r0!, {r0, r2, r4, r5, r6, sl, ip, sp, lr}
 8002624:	00484749 	subeq	r4, r8, r9, asr #14
 8002628:	5f756372 	svcpl	0x00756372
 800262c:	69726570 	ldmdbvs	r2!, {r4, r5, r6, r8, sl, sp, lr}^
 8002630:	635f6870 	cmpvs	pc, #112, 16	; 0x700000
 8002634:	6b636f6c 	blvs	98de3ec <_sidata+0x18db848>
 8002638:	616e655f 	cmnvs	lr, pc, asr r5
 800263c:	0a656c62 	beq	995d7cc <_sidata+0x195ac28>
 8002640:	69706700 	ldmdbvs	r0!, {r8, r9, sl, sp, lr}^
 8002644:	6e695f6f 	cdpvs	15, 6, cr5, cr9, cr15, {3}
 8002648:	000a7469 	andeq	r7, sl, r9, ror #8
 800264c:	6f697067 	svcvs	0x00697067
 8002650:	6e69705f 	mcrvs	0, 3, r7, cr9, cr15, {2}
 8002654:	6d65725f 	sfmvs	f7, 2, [r5, #-380]!	; 0xfffffe84
 8002658:	635f7061 	cmpvs	pc, #97	; 0x61
 800265c:	69666e6f 	stmdbvs	r6!, {r0, r1, r2, r3, r5, r6, r9, sl, fp, sp, lr}^
 8002660:	47000a67 	strmi	r0, [r0, -r7, ror #20]
 8002664:	5f4f4950 	svcpl	0x004f4950
 8002668:	0a504f42 	beq	9416378 <_sidata+0x14137d4>
 800266c:	6e755200 	cdpvs	2, 7, cr5, cr5, cr0, {0}
 8002670:	676e696e 	strbvs	r6, [lr, -lr, ror #18]!
 8002674:	47000a21 	strmi	r0, [r0, -r1, lsr #20]
 8002678:	5f4f4950 	svcpl	0x004f4950
 800267c:	000a4342 	andeq	r4, sl, r2, asr #6
 8002680:	21207674 			; <UNDEFINED> instruction: 0x21207674
 8002684:	0030203d 	eorseq	r2, r0, sp, lsr r0
 8002688:	2f637273 	svccs	0x00637273
 800268c:	32336467 	eorscc	r6, r3, #1728053248	; 0x67000000
 8002690:	6d69742f 	cfstrdvs	mvd7, [r9, #-188]!	; 0xffffff44
 8002694:	00632e65 	rsbeq	r2, r3, r5, ror #28

08002698 <__func__.0>:
 8002698:	74746573 	ldrbtvc	r6, [r4], #-1395	; 0xfffffa8d
 800269c:	6f656d69 	svcvs	0x00656d69
 80026a0:	79616466 	stmdbvc	r1!, {r1, r2, r5, r6, sl, sp, lr}^
	...

080026a5 <__func__.1>:
 80026a5:	74746567 	ldrbtvc	r6, [r4], #-1383	; 0xfffffa99
 80026a9:	6f656d69 	svcvs	0x00656d69
 80026ad:	79616466 	stmdbvc	r1!, {r1, r2, r5, r6, sl, sp, lr}^
 80026b1:	66202c00 	strtvs	r2, [r0], -r0, lsl #24
 80026b5:	74636e75 	strbtvc	r6, [r3], #-3701	; 0xfffff18b
 80026b9:	3a6e6f69 	bcc	9b9e465 <_sidata+0x1b9b8c1>
 80026bd:	73610020 	cmnvc	r1, #32
 80026c1:	74726573 	ldrbtvc	r6, [r2], #-1395	; 0xfffffa8d
 80026c5:	206e6f69 	rsbcs	r6, lr, r9, ror #30
 80026c9:	22732522 	rsbscs	r2, r3, #142606336	; 0x8800000
 80026cd:	69616620 	stmdbvs	r1!, {r5, r9, sl, sp, lr}^
 80026d1:	3a64656c 	bcc	991bc89 <_sidata+0x19190e5>
 80026d5:	6c696620 	stclvs	6, cr6, [r9], #-128	; 0xffffff80
 80026d9:	25222065 	strcs	r2, [r2, #-101]!	; 0xffffff9b
 80026dd:	202c2273 	eorcs	r2, ip, r3, ror r2
 80026e1:	656e696c 	strbvs	r6, [lr, #-2412]!	; 0xfffff694
 80026e5:	25642520 	strbcs	r2, [r4, #-1312]!	; 0xfffffae0
 80026e9:	0a732573 	beq	9ccbcbd <_sidata+0x1cc9119>
 80026ed:	206f4e00 	rsbcs	r4, pc, r0, lsl #28
 80026f1:	70736964 	rsbsvc	r6, r3, r4, ror #18
 80026f5:	2079616c 	rsbscs	r6, r9, ip, ror #2
 80026f9:	6e756f66 	cdpvs	15, 7, cr6, cr5, cr6, {3}
 80026fd:	48530064 	ldmdami	r3, {r2, r5, r6}^
 8002701:	36303131 			; <UNDEFINED> instruction: 0x36303131
 8002705:	44535300 	ldrbmi	r5, [r3], #-768	; 0xfffffd00
 8002709:	36303331 			; <UNDEFINED> instruction: 0x36303331
 800270d:	20732500 	rsbscs	r2, r3, r0, lsl #10
 8002711:	2c642528 	cfstr64cs	mvdx2, [r4], #-160	; 0xffffff60
 8002715:	0a296425 	beq	8a5b7b1 <_sidata+0xa58c0d>
 8002719:	eeaa4000 	cdp	0, 10, cr4, cr10, cr0, {0}
 800271d:	 	andeq	lr, r0, sl, lsr #29

08002720 <vtable for Ssd1306>:
	...
 8002728:	08000d25 	stmdaeq	r0, {r0, r2, r5, r8, sl, fp}
 800272c:	08000d51 	stmdaeq	r0, {r0, r4, r6, r8, sl, fp}
 8002730:	08001089 	stmdaeq	r0, {r0, r3, r7, ip}
 8002734:	0800101d 	stmdaeq	r0, {r0, r2, r3, r4, ip}
 8002738:	08000ef1 	stmdaeq	r0, {r0, r4, r5, r6, r7, r9, sl, fp}
 800273c:	08000d75 	stmdaeq	r0, {r0, r2, r4, r5, r6, r8, sl, fp}
 8002740:	08000da1 	stmdaeq	r0, {r0, r5, r7, r8, sl, fp}
 8002744:	08000ec9 	stmdaeq	r0, {r0, r3, r6, r7, r9, sl, fp}
 8002748:	08000e81 	stmdaeq	r0, {r0, r7, r9, sl, fp}
 800274c:	08000d27 	stmdaeq	r0, {r0, r1, r2, r5, r8, sl, fp}
 8002750:	08000f2d 	stmdaeq	r0, {r0, r2, r3, r5, r8, r9, sl, fp}
 8002754:	08000f39 	stmdaeq	r0, {r0, r3, r4, r5, r8, r9, sl, fp}
 8002758:	08000f51 	stmdaeq	r0, {r0, r4, r6, r8, r9, sl, fp}
 800275c:	08000d29 	stmdaeq	r0, {r0, r3, r5, r8, sl, fp}

08002760 <oled_128x32_init>:
 8002760:	a880d5ae 	stmge	r0, {r1, r2, r3, r5, r7, r8, sl, ip, lr, pc}
 8002764:	4000d31f 	andmi	sp, r0, pc, lsl r3
 8002768:	0020148d 	eoreq	r1, r0, sp, lsl #9
 800276c:	02dac8a1 	sbcseq	ip, sl, #10551296	; 0xa10000
 8002770:	f1d97f81 			; <UNDEFINED> instruction: 0xf1d97f81
 8002774:	a6a440db 	ssatge	r4, #5, fp, asr #1

08002778 <oled_128x64_init>:
 8002778:	a880d5ae 	stmge	r0, {r1, r2, r3, r5, r7, r8, sl, ip, lr, pc}
 800277c:	4000d33f 	andmi	sp, r0, pc, lsr r3
 8002780:	0020148d 	eoreq	r1, r0, sp, lsl #9
 8002784:	12dac8a1 	sbcsne	ip, sl, #10551296	; 0xa10000
 8002788:	f1d97f81 			; <UNDEFINED> instruction: 0xf1d97f81
 800278c:	a6a440db 	ssatge	r4, #5, fp, asr #1

08002790 <_OledFont8x6>:
 8002790:	00000040 	andeq	r0, r0, r0, asr #32
 8002794:	40000000 	andmi	r0, r0, r0
 8002798:	005f0000 	subseq	r0, pc, r0
 800279c:	00400000 	subeq	r0, r0, r0
 80027a0:	00070007 	andeq	r0, r7, r7
 80027a4:	7f144000 	svcvc	0x00144000
 80027a8:	00147f14 	andseq	r7, r4, r4, lsl pc
 80027ac:	7f2a2440 	svcvc	0x002a2440
 80027b0:	4000122a 	andmi	r1, r0, sl, lsr #4
 80027b4:	64081323 	strvs	r1, [r8], #-803	; 0xfffffcdd
 80027b8:	36400062 	strbcc	r0, [r0], -r2, rrx
 80027bc:	50205649 	eorpl	r5, r0, r9, asr #12
 80027c0:	08004000 	stmdaeq	r0, {lr}
 80027c4:	00000307 	andeq	r0, r0, r7, lsl #6
 80027c8:	221c0040 	andscs	r0, ip, #64	; 0x40
 80027cc:	40000041 	andmi	r0, r0, r1, asr #32
 80027d0:	1c224100 	stfnes	f4, [r2], #-0
 80027d4:	2a400000 	bcs	90027dc <_sidata+0xfffc38>
 80027d8:	2a1c7f1c 	bcs	8722450 <_sidata+0x71f8ac>
 80027dc:	08084000 	stmdaeq	r8, {lr}
 80027e0:	0008083e 	andeq	r0, r8, lr, lsr r8
 80027e4:	70800040 	addvc	r0, r0, r0, asr #32
 80027e8:	40000030 	andmi	r0, r0, r0, lsr r0
 80027ec:	08080808 	stmdaeq	r8, {r3, fp}
 80027f0:	00400008 	subeq	r0, r0, r8
 80027f4:	00606000 	rsbeq	r6, r0, r0
 80027f8:	10204000 	eorne	r4, r0, r0
 80027fc:	00020408 	andeq	r0, r2, r8, lsl #8
 8002800:	49513e40 	ldmdbmi	r1, {r6, r9, sl, fp, ip, sp}^
 8002804:	40003e45 	andmi	r3, r0, r5, asr #28
 8002808:	407f4200 	rsbsmi	r4, pc, r0, lsl #4
 800280c:	72400000 	subvc	r0, r0, #0
 8002810:	46494949 	strbmi	r4, [r9], -r9, asr #18
 8002814:	41214000 			; <UNDEFINED> instruction: 0x41214000
 8002818:	00334d49 	eorseq	r4, r3, r9, asr #26
 800281c:	12141840 	andsne	r1, r4, #64, 16	; 0x400000
 8002820:	4000107f 	andmi	r1, r0, pc, ror r0
 8002824:	45454527 	strbmi	r4, [r5, #-1319]	; 0xfffffad9
 8002828:	3c400039 	mcrrcc	0, 3, r0, r0, cr9
 800282c:	3149494a 	cmpcc	r9, sl, asr #18
 8002830:	21414000 	mrscs	r4, (UNDEF: 65)
 8002834:	00070911 	andeq	r0, r7, r1, lsl r9
 8002838:	49493640 	stmdbmi	r9, {r6, r9, sl, ip, sp}^
 800283c:	40003649 	andmi	r3, r0, r9, asr #12
 8002840:	29494946 	stmdbcs	r9, {r1, r2, r6, r8, fp, lr}^
 8002844:	0040001e 	subeq	r0, r0, lr, lsl r0
 8002848:	00001400 	andeq	r1, r0, r0, lsl #8
 800284c:	40004000 	andmi	r4, r0, r0
 8002850:	00000034 	andeq	r0, r0, r4, lsr r0
 8002854:	14080040 	strne	r0, [r8], #-64	; 0xffffffc0
 8002858:	40004122 	andmi	r4, r0, r2, lsr #2
 800285c:	14141414 	ldrne	r1, [r4], #-1044	; 0xfffffbec
 8002860:	00400014 	subeq	r0, r0, r4, lsl r0
 8002864:	08142241 	ldmdaeq	r4, {r0, r6, r9, sp}
 8002868:	01024000 	mrseq	r4, (UNDEF: 2)
 800286c:	00060959 	andeq	r0, r6, r9, asr r9
 8002870:	5d413e40 	stclpl	14, cr3, [r1, #-256]	; 0xffffff00
 8002874:	40004e59 	andmi	r4, r0, r9, asr lr
 8002878:	1211127c 	andsne	r1, r1, #124, 4	; 0xc0000007
 800287c:	7f40007c 	svcvc	0x0040007c
 8002880:	36494949 	strbcc	r4, [r9], -r9, asr #18
 8002884:	413e4000 	teqmi	lr, r0
 8002888:	00224141 	eoreq	r4, r2, r1, asr #2
 800288c:	41417f40 	cmpmi	r1, r0, asr #30
 8002890:	40003e41 	andmi	r3, r0, r1, asr #28
 8002894:	4949497f 	stmdbmi	r9, {r0, r1, r2, r3, r4, r5, r6, r8, fp, lr}^
 8002898:	7f400041 	svcvc	0x00400041
 800289c:	01090909 	tsteq	r9, r9, lsl #18
 80028a0:	413e4000 	teqmi	lr, r0
 80028a4:	00735141 	rsbseq	r5, r3, r1, asr #2
 80028a8:	08087f40 	stmdaeq	r8, {r6, r8, r9, sl, fp, ip, sp, lr}
 80028ac:	40007f08 	andmi	r7, r0, r8, lsl #30
 80028b0:	417f4100 	cmnmi	pc, r0, lsl #2
 80028b4:	20400000 	subcs	r0, r0, r0
 80028b8:	013f4140 	teqeq	pc, r0, asr #2
 80028bc:	087f4000 	ldmdaeq	pc!, {lr}^	; <UNPREDICTABLE>
 80028c0:	00412214 	subeq	r2, r1, r4, lsl r2
 80028c4:	40407f40 	submi	r7, r0, r0, asr #30
 80028c8:	40004040 	andmi	r4, r0, r0, asr #32
 80028cc:	021c027f 	andseq	r0, ip, #-268435449	; 0xf0000007
 80028d0:	7f40007f 	svcvc	0x0040007f
 80028d4:	7f100804 	svcvc	0x00100804
 80028d8:	413e4000 	teqmi	lr, r0
 80028dc:	003e4141 	eorseq	r4, lr, r1, asr #2
 80028e0:	09097f40 	stmdbeq	r9, {r6, r8, r9, sl, fp, ip, sp, lr}
 80028e4:	40000609 	andmi	r0, r0, r9, lsl #12
 80028e8:	2151413e 	cmpcs	r1, lr, lsr r1
 80028ec:	7f40005e 	svcvc	0x0040005e
 80028f0:	46291909 	strtmi	r1, [r9], -r9, lsl #18
 80028f4:	49264000 	stmdbmi	r6!, {lr}
 80028f8:	00324949 	eorseq	r4, r2, r9, asr #18
 80028fc:	7f010340 	svcvc	0x00010340
 8002900:	40000301 	andmi	r0, r0, r1, lsl #6
 8002904:	4040403f 	submi	r4, r0, pc, lsr r0
 8002908:	1f40003f 	svcne	0x0040003f
 800290c:	1f204020 	svcne	0x00204020
 8002910:	403f4000 	eorsmi	r4, pc, r0
 8002914:	003f4038 	eorseq	r4, pc, r8, lsr r0	; <UNPREDICTABLE>
 8002918:	08146340 	ldmdaeq	r4, {r6, r8, r9, sp, lr}
 800291c:	40006314 	andmi	r6, r0, r4, lsl r3
 8002920:	04780403 	ldrbteq	r0, [r8], #-1027	; 0xfffffbfd
 8002924:	61400003 	cmpvs	r0, r3
 8002928:	434d4959 	movtmi	r4, #55641	; 0xd959
 800292c:	7f004000 	svcvc	0x00004000
 8002930:	00414141 	subeq	r4, r1, r1, asr #2
 8002934:	08040240 	stmdaeq	r4, {r6, r9}
 8002938:	40002010 	andmi	r2, r0, r0, lsl r0
 800293c:	41414100 	mrsmi	r4, (UNDEF: 81)
 8002940:	0440007f 	strbeq	r0, [r0], #-127	; 0xffffff81
 8002944:	04020102 	streq	r0, [r2], #-258	; 0xfffffefe
 8002948:	40404000 	submi	r4, r0, r0
 800294c:	00404040 	subeq	r4, r0, r0, asr #32
 8002950:	07030040 	streq	r0, [r3, -r0, asr #32]
 8002954:	40000008 	andmi	r0, r0, r8
 8002958:	78545420 	ldmdavc	r4, {r5, sl, ip, lr}^
 800295c:	7f400040 	svcvc	0x00400040
 8002960:	38444428 	stmdacc	r4, {r3, r5, sl, lr}^
 8002964:	44384000 	ldrtmi	r4, [r8], #-0
 8002968:	00284444 	eoreq	r4, r8, r4, asr #8
 800296c:	44443840 	strbmi	r3, [r4], #-2112	; 0xfffff7c0
 8002970:	40007f28 	andmi	r7, r0, r8, lsr #30
 8002974:	54545438 	ldrbpl	r5, [r4], #-1080	; 0xfffffbc8
 8002978:	00400018 	subeq	r0, r0, r8, lsl r0
 800297c:	02097e08 	andeq	r7, r9, #8, 28	; 0x80
 8002980:	a4184000 	ldrge	r4, [r8], #-0
 8002984:	00789ca4 	rsbseq	r9, r8, r4, lsr #25
 8002988:	04087f40 	streq	r7, [r8], #-3904	; 0xfffff0c0
 800298c:	40007804 	andmi	r7, r0, r4, lsl #16
 8002990:	407d4400 	rsbsmi	r4, sp, r0, lsl #8
 8002994:	20400000 	subcs	r0, r0, r0
 8002998:	003d4040 	eorseq	r4, sp, r0, asr #32
 800299c:	107f4000 	rsbsne	r4, pc, r0
 80029a0:	00004428 	andeq	r4, r0, r8, lsr #8
 80029a4:	7f410040 	svcvc	0x00410040
 80029a8:	40000040 	andmi	r0, r0, r0, asr #32
 80029ac:	0478047c 	ldrbteq	r0, [r8], #-1148	; 0xfffffb84
 80029b0:	7c400078 	mcrrvc	0, 7, r0, r0, cr8
 80029b4:	78040408 	stmdavc	r4, {r3, sl}
 80029b8:	44384000 	ldrtmi	r4, [r8], #-0
 80029bc:	00384444 	eorseq	r4, r8, r4, asr #8
 80029c0:	2418fc40 	ldrcs	pc, [r8], #-3136	; 0xfffff3c0
 80029c4:	40001824 	andmi	r1, r0, r4, lsr #16
 80029c8:	18242418 	stmdane	r4!, {r3, r4, sl, sp}
 80029cc:	7c4000fc 	mcrrvc	0, 15, r0, r0, cr12
 80029d0:	08040408 	stmdaeq	r4, {r3, sl}
 80029d4:	54484000 	strbpl	r4, [r8], #-0
 80029d8:	00245454 	eoreq	r5, r4, r4, asr r4
 80029dc:	3f040440 	svccc	0x00040440
 80029e0:	40002444 	andmi	r2, r0, r4, asr #8
 80029e4:	2040403c 	subcs	r4, r0, ip, lsr r0
 80029e8:	1c40007c 	mcrrne	0, 7, r0, r0, cr12
 80029ec:	1c204020 	stcne	0, cr4, [r0], #-128	; 0xffffff80
 80029f0:	403c4000 	eorsmi	r4, ip, r0
 80029f4:	003c4030 	eorseq	r4, ip, r0, lsr r0
 80029f8:	10284440 	eorne	r4, r8, r0, asr #8
 80029fc:	40004428 	andmi	r4, r0, r8, lsr #8
 8002a00:	9090904c 	addsls	r9, r0, ip, asr #32
 8002a04:	4440007c 	strbmi	r0, [r0], #-124	; 0xffffff84
 8002a08:	444c5464 	strbmi	r5, [ip], #-1124	; 0xfffffb9c
 8002a0c:	08004000 	stmdaeq	r0, {lr}
 8002a10:	00004136 	andeq	r4, r0, r6, lsr r1
 8002a14:	77000040 	strvc	r0, [r0, -r0, asr #32]
 8002a18:	40000000 	andmi	r0, r0, r0
 8002a1c:	08364100 	ldmdaeq	r6!, {r8, lr}
 8002a20:	02400000 	subeq	r0, r0, #0
 8002a24:	02040201 	andeq	r0, r4, #268435456	; 0x10000000
 8002a28:	263c4000 	ldrtcs	r4, [ip], -r0
 8002a2c:	003c2623 	eorseq	r2, ip, r3, lsr #12
 8002a30:	37335b1b 			; <UNDEFINED> instruction: 0x37335b1b
 8002a34:	5b1b006d 	blpl	86c2bf0 <_sidata+0x6c004c>
 8002a38:	006d3034 	rsbeq	r3, sp, r4, lsr r0
 8002a3c:	6f6c4270 	svcvs	0x006c4270
 8002a40:	65486b63 	strbvs	r6, [r8, #-2915]	; 0xfffff49d
 8002a44:	72656461 	rsbvc	r6, r5, #1627389952	; 0x61000000
 8002a48:	616d3e2d 	cmnvs	sp, sp, lsr #28
 8002a4c:	20636967 	rsbcs	r6, r3, r7, ror #18
 8002a50:	42203d3d 	eormi	r3, r0, #3904	; 0xf40
 8002a54:	4b434f4c 	blmi	90d678c <_sidata+0x10d3be8>
 8002a58:	47414d5f 	smlsldmi	r4, r1, pc, sp	; <UNPREDICTABLE>
 8002a5c:	73004349 	movwvc	r4, #841	; 0x349
 8002a60:	6d2f6372 	stcvs	3, cr6, [pc, #-456]!	; 80028a0 <_OledFont8x6+0x110>
 8002a64:	6f6c6c61 	svcvs	0x006c6c61
 8002a68:	00632e63 	rsbeq	r2, r3, r3, ror #28
 8002a6c:	64616568 	strbtvs	r6, [r1], #-1384	; 0xfffffa98
 8002a70:	3e2d7265 	cdpcc	2, 2, cr7, cr13, cr5, {3}
 8002a74:	6967616d 	stmdbvs	r7!, {r0, r2, r3, r5, r6, r8, sp, lr}^
 8002a78:	3d3d2063 	ldccc	0, cr2, [sp, #-396]!	; 0xfffffe74
 8002a7c:	4f4c4220 	svcmi	0x004c4220
 8002a80:	4d5f4b43 	vldrmi	d20, [pc, #-268]	; 800297c <_OledFont8x6+0x1ec>
 8002a84:	43494741 	movtmi	r4, #38721	; 0x9741
 8002a88:	75282800 	strvc	r2, [r8, #-2048]!	; 0xfffff800
 8002a8c:	6769736e 	strbvs	r7, [r9, -lr, ror #6]!
 8002a90:	2964656e 	stmdbcs	r4!, {r1, r2, r3, r5, r6, r8, sl, sp, lr}^
 8002a94:	64616568 	strbtvs	r6, [r1], #-1384	; 0xfffffa98
 8002a98:	26207265 	strtcs	r7, [r0], -r5, ror #4
 8002a9c:	6e752820 	cdpvs	8, 7, cr2, cr5, cr0, {1}
 8002aa0:	6e676973 			; <UNDEFINED> instruction: 0x6e676973
 8002aa4:	33296465 			; <UNDEFINED> instruction: 0x33296465
 8002aa8:	3d3d2029 	ldccc	0, cr2, [sp, #-164]!	; 0xffffff5c
 8002aac:	28003020 	stmdacs	r0, {r5, ip, sp}
 8002ab0:	736e7528 	cmnvc	lr, #40, 10	; 0xa000000
 8002ab4:	656e6769 	strbvs	r6, [lr, #-1897]!	; 0xfffff897
 8002ab8:	656e2964 	strbvs	r2, [lr, #-2404]!	; 0xfffff69c
 8002abc:	26207478 			; <UNDEFINED> instruction: 0x26207478
 8002ac0:	6e752820 	cdpvs	8, 7, cr2, cr5, cr0, {1}
 8002ac4:	6e676973 			; <UNDEFINED> instruction: 0x6e676973
 8002ac8:	33296465 			; <UNDEFINED> instruction: 0x33296465
 8002acc:	3d3d2029 	ldccc	0, cr2, [sp, #-164]!	; 0xffffff5c
 8002ad0:	28003020 	stmdacs	r0, {r5, ip, sp}
 8002ad4:	736e7528 	cmnvc	lr, #40, 10	; 0xa000000
 8002ad8:	656e6769 	strbvs	r6, [lr, #-1897]!	; 0xfffff897
 8002adc:	65682964 	strbvs	r2, [r8, #-2404]!	; 0xfffff69c
 8002ae0:	72656461 	rsbvc	r6, r5, #1627389952	; 0x61000000
 8002ae4:	61643e2d 	cmnvs	r4, sp, lsr #28
 8002ae8:	26206174 			; <UNDEFINED> instruction: 0x26206174
 8002aec:	6e752820 	cdpvs	8, 7, cr2, cr5, cr0, {1}
 8002af0:	6e676973 			; <UNDEFINED> instruction: 0x6e676973
 8002af4:	33296465 			; <UNDEFINED> instruction: 0x33296465
 8002af8:	3d3d2029 	ldccc	0, cr2, [sp, #-164]!	; 0xffffff5c
 8002afc:	 	strvs	r3, [r0], -r0, lsr #32

08002aff <__func__.2>:
 8002aff:	65657266 	strbvs	r7, [r5, #-614]!	; 0xfffffd9a
	...

08002b04 <__func__.3>:
 8002b04:	6c6c616d 	stfvse	f6, [ip], #-436	; 0xfffffe4c
 8002b08:	0000636f 	andeq	r6, r0, pc, ror #6

08002b0c <days_of_month>:
 8002b0c:	0000001f 	andeq	r0, r0, pc, lsl r0
 8002b10:	0000001c 	andeq	r0, r0, ip, lsl r0
 8002b14:	0000001f 	andeq	r0, r0, pc, lsl r0
 8002b18:	0000001e 	andeq	r0, r0, lr, lsl r0
 8002b1c:	0000001f 	andeq	r0, r0, pc, lsl r0
 8002b20:	0000001e 	andeq	r0, r0, lr, lsl r0
 8002b24:	0000001f 	andeq	r0, r0, pc, lsl r0
 8002b28:	0000001f 	andeq	r0, r0, pc, lsl r0
 8002b2c:	0000001e 	andeq	r0, r0, lr, lsl r0
 8002b30:	0000001f 	andeq	r0, r0, pc, lsl r0
 8002b34:	0000001e 	andeq	r0, r0, lr, lsl r0
 8002b38:	0000001f 	andeq	r0, r0, pc, lsl r0
 8002b3c:	5f55434d 	svcpl	0x0055434d
 8002b40:	434f4c43 	movtmi	r4, #64579	; 0xfc43
 8002b44:	52465f4b 	subpl	r5, r6, #300	; 0x12c
 8002b48:	3d205145 	stfccs	f5, [r0, #-276]!	; 0xfffffeec
 8002b4c:	7953203d 	ldmdbvc	r3, {r0, r2, r3, r4, r5, sp}^
 8002b50:	6d657473 	cfstrdvs	mvd7, [r5, #-460]!	; 0xfffffe34
 8002b54:	65726f43 	ldrbvs	r6, [r2, #-3907]!	; 0xfffff0bd
 8002b58:	636f6c43 	cmnvs	pc, #17152	; 0x4300
 8002b5c:	6475006b 	ldrbtvs	r0, [r5], #-107	; 0xffffff95
 8002b60:	79616c65 	stmdbvc	r1!, {r0, r2, r5, r6, sl, fp, sp, lr}^
 8002b64:	696e695f 	stmdbvs	lr!, {r0, r1, r2, r3, r4, r6, r8, fp, sp, lr}^
 8002b68:	72730074 	rsbsvc	r0, r3, #116	; 0x74
 8002b6c:	64752f63 	ldrbtvs	r2, [r5], #-3939	; 0xfffff09d
 8002b70:	79616c65 	stmdbvc	r1!, {r0, r2, r5, r6, sl, fp, sp, lr}^
 8002b74:	7070632e 	rsbsvc	r6, r0, lr, lsr #6
 8002b78:	63725f00 	cmnvs	r2, #0, 30
 8002b7c:	65705f75 	ldrbvs	r5, [r0, #-3957]!	; 0xfffff08b
 8002b80:	68706972 	ldmdavs	r0!, {r1, r4, r5, r6, r8, fp, sp, lr}^
 8002b84:	6f6c635f 	svcvs	0x006c635f
 8002b88:	655f6b63 	ldrbvs	r6, [pc, #-2915]	; 800202d <i2c_clock_config+0x21>
 8002b8c:	6c62616e 	stfvse	f6, [r2], #-440	; 0xfffffe48
 8002b90:	72730065 	rsbsvc	r0, r3, #101	; 0x65
 8002b94:	64672f63 	strbtvs	r2, [r7], #-3939	; 0xfffff09d
 8002b98:	755f3233 	ldrbvc	r3, [pc, #-563]	; 800296d <_OledFont8x6+0x1dd>
 8002b9c:	2e747261 	cdpcs	2, 7, cr7, cr4, cr1, {3}
 8002ba0:	00707063 	rsbseq	r7, r0, r3, rrx

Disassembly of section .stack:

20000000 <_sp-0x1000>:
	...

Disassembly of section .data:

20001000 <s_block_bucket>:
20001000:	00000010 	andeq	r0, r0, r0, lsl r0
20001004:	00000000 	andeq	r0, r0, r0
20001008:	00000020 	andeq	r0, r0, r0, lsr #32
2000100c:	00000000 	andeq	r0, r0, r0
20001010:	00000040 	andeq	r0, r0, r0, asr #32
20001014:	00000000 	andeq	r0, r0, r0
20001018:	00000060 	andeq	r0, r0, r0, rrx
2000101c:	00000000 	andeq	r0, r0, r0
20001020:	00000080 	andeq	r0, r0, r0, lsl #1
20001024:	00000000 	andeq	r0, r0, r0
20001028:	00000100 	andeq	r0, r0, r0, lsl #2
2000102c:	00000000 	andeq	r0, r0, r0
20001030:	00000140 	andeq	r0, r0, r0, asr #2
20001034:	00000000 	andeq	r0, r0, r0
20001038:	00000180 	andeq	r0, r0, r0, lsl #3
2000103c:	00000000 	andeq	r0, r0, r0
20001040:	00000200 	andeq	r0, r0, r0, lsl #4
20001044:	00000000 	andeq	r0, r0, r0
20001048:	00000300 	andeq	r0, r0, r0, lsl #6
2000104c:	00000000 	andeq	r0, r0, r0
20001050:	00000400 	andeq	r0, r0, r0, lsl #8
20001054:	00000000 	andeq	r0, r0, r0
20001058:	00000500 	andeq	r0, r0, r0, lsl #10
	...

20001068 <next_block>:
20001068:	2000111c 	andcs	r1, r0, ip, lsl r1

2000106c <SystemCoreClock>:
2000106c:	07270e00 	streq	r0, [r7, -r0, lsl #28]!

Disassembly of section .bss:

20001070 <outptr>:
20001070:	00000000 	andeq	r0, r0, r0

20001074 <s_tv>:
	...

2000107c <set_timer>:
2000107c:	00000000 	andeq	r0, r0, r0

20001080 <Display::s_pThis>:
20001080:	00000000 	andeq	r0, r0, r0

20001084 <Ssd1306::s_pThis>:
20001084:	00000000 	andeq	r0, r0, r0

20001088 <_ClearBuffer>:
	...

20001110 <Hardware::s_pThis>:
20001110:	00000000 	andeq	r0, r0, r0

20001114 <s_nSysTickMillis>:
20001114:	00000000 	andeq	r0, r0, r0

20001118 <s_nAddress>:
20001118:	00000000 	andeq	r0, r0, r0

Disassembly of section .heap:

2000111c <heap_low>:
	...
