
build_gd32/main.elf:     file format elf32-littlearm


Disassembly of section .vectors:

08000000 <__gVectors>:
 8000000:	20001000 	andcs	r1, r0, r0
 8000004:	080009dd 	stmdaeq	r0, {r0, r2, r3, r4, r6, r7, r8, fp}
 8000008:	08000a21 	stmdaeq	r0, {r0, r5, r9, fp}
 800000c:	08000a21 	stmdaeq	r0, {r0, r5, r9, fp}
 8000010:	08000a21 	stmdaeq	r0, {r0, r5, r9, fp}
 8000014:	08000a21 	stmdaeq	r0, {r0, r5, r9, fp}
 8000018:	08000a21 	stmdaeq	r0, {r0, r5, r9, fp}
	...
 800002c:	08000a21 	stmdaeq	r0, {r0, r5, r9, fp}
 8000030:	08000a21 	stmdaeq	r0, {r0, r5, r9, fp}
 8000034:	00000000 	andeq	r0, r0, r0
 8000038:	08000a21 	stmdaeq	r0, {r0, r5, r9, fp}
 800003c:	080097a9 	stmdaeq	r0, {r0, r3, r5, r7, r8, r9, sl, ip, pc}
 8000040:	08000a21 	stmdaeq	r0, {r0, r5, r9, fp}
 8000044:	08000a21 	stmdaeq	r0, {r0, r5, r9, fp}
 8000048:	08000a21 	stmdaeq	r0, {r0, r5, r9, fp}
 800004c:	08000a21 	stmdaeq	r0, {r0, r5, r9, fp}
 8000050:	08000a21 	stmdaeq	r0, {r0, r5, r9, fp}
 8000054:	08000a21 	stmdaeq	r0, {r0, r5, r9, fp}
 8000058:	08000a21 	stmdaeq	r0, {r0, r5, r9, fp}
 800005c:	08000a21 	stmdaeq	r0, {r0, r5, r9, fp}
 8000060:	08000a21 	stmdaeq	r0, {r0, r5, r9, fp}
 8000064:	08000a21 	stmdaeq	r0, {r0, r5, r9, fp}
 8000068:	08000a21 	stmdaeq	r0, {r0, r5, r9, fp}
 800006c:	08000a21 	stmdaeq	r0, {r0, r5, r9, fp}
 8000070:	08004a91 	stmdaeq	r0, {r0, r4, r7, r9, fp, lr}
 8000074:	08000a21 	stmdaeq	r0, {r0, r5, r9, fp}
 8000078:	08000a21 	stmdaeq	r0, {r0, r5, r9, fp}
 800007c:	08000a21 	stmdaeq	r0, {r0, r5, r9, fp}
 8000080:	08000a21 	stmdaeq	r0, {r0, r5, r9, fp}
 8000084:	08000a21 	stmdaeq	r0, {r0, r5, r9, fp}
 8000088:	08000a21 	stmdaeq	r0, {r0, r5, r9, fp}
 800008c:	08000a21 	stmdaeq	r0, {r0, r5, r9, fp}
 8000090:	08000a21 	stmdaeq	r0, {r0, r5, r9, fp}
 8000094:	08000a21 	stmdaeq	r0, {r0, r5, r9, fp}
 8000098:	08000a21 	stmdaeq	r0, {r0, r5, r9, fp}
 800009c:	08000a21 	stmdaeq	r0, {r0, r5, r9, fp}
 80000a0:	08000a21 	stmdaeq	r0, {r0, r5, r9, fp}
 80000a4:	08000a21 	stmdaeq	r0, {r0, r5, r9, fp}
 80000a8:	08000a21 	stmdaeq	r0, {r0, r5, r9, fp}
 80000ac:	08000a21 	stmdaeq	r0, {r0, r5, r9, fp}
 80000b0:	08004931 	stmdaeq	r0, {r0, r4, r5, r8, fp, lr}
 80000b4:	080049fd 	stmdaeq	r0, {r0, r2, r3, r4, r5, r6, r7, r8, fp, lr}
 80000b8:	08004a51 	stmdaeq	r0, {r0, r4, r6, r9, fp, lr}
 80000bc:	08000a21 	stmdaeq	r0, {r0, r5, r9, fp}
 80000c0:	08000a21 	stmdaeq	r0, {r0, r5, r9, fp}
 80000c4:	08000a21 	stmdaeq	r0, {r0, r5, r9, fp}
 80000c8:	08000a21 	stmdaeq	r0, {r0, r5, r9, fp}
 80000cc:	08000a21 	stmdaeq	r0, {r0, r5, r9, fp}
 80000d0:	08000a21 	stmdaeq	r0, {r0, r5, r9, fp}
 80000d4:	00000000 	andeq	r0, r0, r0
 80000d8:	08000a21 	stmdaeq	r0, {r0, r5, r9, fp}
 80000dc:	08004741 	stmdaeq	r0, {r0, r6, r8, r9, sl, lr}
 80000e0:	08000a21 	stmdaeq	r0, {r0, r5, r9, fp}
 80000e4:	08000a21 	stmdaeq	r0, {r0, r5, r9, fp}
 80000e8:	08000a21 	stmdaeq	r0, {r0, r5, r9, fp}
 80000ec:	08000a21 	stmdaeq	r0, {r0, r5, r9, fp}
 80000f0:	08000a21 	stmdaeq	r0, {r0, r5, r9, fp}
 80000f4:	08000a21 	stmdaeq	r0, {r0, r5, r9, fp}
 80000f8:	08000a21 	stmdaeq	r0, {r0, r5, r9, fp}
 80000fc:	08000a21 	stmdaeq	r0, {r0, r5, r9, fp}
 8000100:	08000a21 	stmdaeq	r0, {r0, r5, r9, fp}
 8000104:	08000a21 	stmdaeq	r0, {r0, r5, r9, fp}
 8000108:	080049f9 	stmdaeq	r0, {r0, r3, r4, r5, r6, r7, r8, fp, lr}
 800010c:	08000a21 	stmdaeq	r0, {r0, r5, r9, fp}
 8000110:	08000a21 	stmdaeq	r0, {r0, r5, r9, fp}
 8000114:	08000a21 	stmdaeq	r0, {r0, r5, r9, fp}
 8000118:	08000a21 	stmdaeq	r0, {r0, r5, r9, fp}
 800011c:	08004a65 	stmdaeq	r0, {r0, r2, r5, r6, r9, fp, lr}
 8000120:	08000a21 	stmdaeq	r0, {r0, r5, r9, fp}
 8000124:	08000a21 	stmdaeq	r0, {r0, r5, r9, fp}
 8000128:	08000a21 	stmdaeq	r0, {r0, r5, r9, fp}
 800012c:	08000a21 	stmdaeq	r0, {r0, r5, r9, fp}

Disassembly of section .text:

08000130 <console_init>:
 8000130:	b508      	push	{r3, lr}
 8000132:	f009 fb6d 	bl	8009810 <uart0_init>
 8000136:	4804      	ldr	r0, [pc, #16]	; (8000148 <console_init+0x18>)
 8000138:	f009 faf6 	bl	8009728 <uart0_puts>
 800013c:	e8bd 4008 	ldmia.w	sp!, {r3, lr}
 8000140:	4802      	ldr	r0, [pc, #8]	; (800014c <console_init+0x1c>)
 8000142:	f009 baf1 	b.w	8009728 <uart0_puts>
 8000146:	bf00      	nop
 8000148:	0800bc50 	stmdaeq	r0, {r4, r6, sl, fp, ip, sp, pc}
 800014c:	0800bc56 	stmdaeq	r0, {r1, r2, r4, r6, sl, fp, ip, sp, pc}

08000150 <__aeabi_d2f>:
 8000150:	ea4f 0241 	mov.w	r2, r1, lsl #1
 8000154:	f1b2 43e0 	subs.w	r3, r2, #1879048192	; 0x70000000
 8000158:	bf24      	itt	cs
 800015a:	f5b3 1c00 	subscs.w	ip, r3, #2097152	; 0x200000
 800015e:	f1dc 5cfe 	rsbscs	ip, ip, #532676608	; 0x1fc00000
 8000162:	d90d      	bls.n	8000180 <__aeabi_d2f+0x30>
 8000164:	f001 4c00 	and.w	ip, r1, #2147483648	; 0x80000000
 8000168:	ea4f 02c0 	mov.w	r2, r0, lsl #3
 800016c:	ea4c 7050 	orr.w	r0, ip, r0, lsr #29
 8000170:	f1b2 4f00 	cmp.w	r2, #2147483648	; 0x80000000
 8000174:	eb40 0083 	adc.w	r0, r0, r3, lsl #2
 8000178:	bf08      	it	eq
 800017a:	f020 0001 	biceq.w	r0, r0, #1
 800017e:	4770      	bx	lr
 8000180:	f011 4f80 	tst.w	r1, #1073741824	; 0x40000000
 8000184:	d121      	bne.n	80001ca <__aeabi_d2f+0x7a>
 8000186:	f113 7238 	adds.w	r2, r3, #48234496	; 0x2e00000
 800018a:	bfbc      	itt	lt
 800018c:	f001 4000 	andlt.w	r0, r1, #2147483648	; 0x80000000
 8000190:	4770      	bxlt	lr
 8000192:	f441 1180 	orr.w	r1, r1, #1048576	; 0x100000
 8000196:	ea4f 5252 	mov.w	r2, r2, lsr #21
 800019a:	f1c2 0218 	rsb	r2, r2, #24
 800019e:	f1c2 0c20 	rsb	ip, r2, #32
 80001a2:	fa10 f30c 	lsls.w	r3, r0, ip
 80001a6:	fa20 f002 	lsr.w	r0, r0, r2
 80001aa:	bf18      	it	ne
 80001ac:	f040 0001 	orrne.w	r0, r0, #1
 80001b0:	ea4f 23c1 	mov.w	r3, r1, lsl #11
 80001b4:	ea4f 23d3 	mov.w	r3, r3, lsr #11
 80001b8:	fa03 fc0c 	lsl.w	ip, r3, ip
 80001bc:	ea40 000c 	orr.w	r0, r0, ip
 80001c0:	fa23 f302 	lsr.w	r3, r3, r2
 80001c4:	ea4f 0343 	mov.w	r3, r3, lsl #1
 80001c8:	e7cc      	b.n	8000164 <__aeabi_d2f+0x14>
 80001ca:	ea7f 5362 	mvns.w	r3, r2, asr #21
 80001ce:	d107      	bne.n	80001e0 <__aeabi_d2f+0x90>
 80001d0:	ea50 3301 	orrs.w	r3, r0, r1, lsl #12
 80001d4:	bf1e      	ittt	ne
 80001d6:	f04f 40fe 	movne.w	r0, #2130706432	; 0x7f000000
 80001da:	f440 0040 	orrne.w	r0, r0, #12582912	; 0xc00000
 80001de:	4770      	bxne	lr
 80001e0:	f001 4000 	and.w	r0, r1, #2147483648	; 0x80000000
 80001e4:	f040 40fe 	orr.w	r0, r0, #2130706432	; 0x7f000000
 80001e8:	f440 0000 	orr.w	r0, r0, #8388608	; 0x800000
 80001ec:	4770      	bx	lr
 80001ee:	bf00      	nop

080001f0 <__aeabi_drsub>:
 80001f0:	f081 4100 	eor.w	r1, r1, #2147483648	; 0x80000000
 80001f4:	e002      	b.n	80001fc <__adddf3>
 80001f6:	bf00      	nop

080001f8 <__aeabi_dsub>:
 80001f8:	f083 4300 	eor.w	r3, r3, #2147483648	; 0x80000000

080001fc <__adddf3>:
 80001fc:	b530      	push	{r4, r5, lr}
 80001fe:	ea4f 0441 	mov.w	r4, r1, lsl #1
 8000202:	ea4f 0543 	mov.w	r5, r3, lsl #1
 8000206:	ea94 0f05 	teq	r4, r5
 800020a:	bf08      	it	eq
 800020c:	ea90 0f02 	teqeq	r0, r2
 8000210:	bf1f      	itttt	ne
 8000212:	ea54 0c00 	orrsne.w	ip, r4, r0
 8000216:	ea55 0c02 	orrsne.w	ip, r5, r2
 800021a:	ea7f 5c64 	mvnsne.w	ip, r4, asr #21
 800021e:	ea7f 5c65 	mvnsne.w	ip, r5, asr #21
 8000222:	f000 80e2 	beq.w	80003ea <__adddf3+0x1ee>
 8000226:	ea4f 5454 	mov.w	r4, r4, lsr #21
 800022a:	ebd4 5555 	rsbs	r5, r4, r5, lsr #21
 800022e:	bfb8      	it	lt
 8000230:	426d      	neglt	r5, r5
 8000232:	dd0c      	ble.n	800024e <__adddf3+0x52>
 8000234:	442c      	add	r4, r5
 8000236:	ea80 0202 	eor.w	r2, r0, r2
 800023a:	ea81 0303 	eor.w	r3, r1, r3
 800023e:	ea82 0000 	eor.w	r0, r2, r0
 8000242:	ea83 0101 	eor.w	r1, r3, r1
 8000246:	ea80 0202 	eor.w	r2, r0, r2
 800024a:	ea81 0303 	eor.w	r3, r1, r3
 800024e:	2d36      	cmp	r5, #54	; 0x36
 8000250:	bf88      	it	hi
 8000252:	bd30      	pophi	{r4, r5, pc}
 8000254:	f011 4f00 	tst.w	r1, #2147483648	; 0x80000000
 8000258:	ea4f 3101 	mov.w	r1, r1, lsl #12
 800025c:	f44f 1c80 	mov.w	ip, #1048576	; 0x100000
 8000260:	ea4c 3111 	orr.w	r1, ip, r1, lsr #12
 8000264:	d002      	beq.n	800026c <__adddf3+0x70>
 8000266:	4240      	negs	r0, r0
 8000268:	eb61 0141 	sbc.w	r1, r1, r1, lsl #1
 800026c:	f013 4f00 	tst.w	r3, #2147483648	; 0x80000000
 8000270:	ea4f 3303 	mov.w	r3, r3, lsl #12
 8000274:	ea4c 3313 	orr.w	r3, ip, r3, lsr #12
 8000278:	d002      	beq.n	8000280 <__adddf3+0x84>
 800027a:	4252      	negs	r2, r2
 800027c:	eb63 0343 	sbc.w	r3, r3, r3, lsl #1
 8000280:	ea94 0f05 	teq	r4, r5
 8000284:	f000 80a7 	beq.w	80003d6 <__adddf3+0x1da>
 8000288:	f1a4 0401 	sub.w	r4, r4, #1
 800028c:	f1d5 0e20 	rsbs	lr, r5, #32
 8000290:	db0d      	blt.n	80002ae <__adddf3+0xb2>
 8000292:	fa02 fc0e 	lsl.w	ip, r2, lr
 8000296:	fa22 f205 	lsr.w	r2, r2, r5
 800029a:	1880      	adds	r0, r0, r2
 800029c:	f141 0100 	adc.w	r1, r1, #0
 80002a0:	fa03 f20e 	lsl.w	r2, r3, lr
 80002a4:	1880      	adds	r0, r0, r2
 80002a6:	fa43 f305 	asr.w	r3, r3, r5
 80002aa:	4159      	adcs	r1, r3
 80002ac:	e00e      	b.n	80002cc <__adddf3+0xd0>
 80002ae:	f1a5 0520 	sub.w	r5, r5, #32
 80002b2:	f10e 0e20 	add.w	lr, lr, #32
 80002b6:	2a01      	cmp	r2, #1
 80002b8:	fa03 fc0e 	lsl.w	ip, r3, lr
 80002bc:	bf28      	it	cs
 80002be:	f04c 0c02 	orrcs.w	ip, ip, #2
 80002c2:	fa43 f305 	asr.w	r3, r3, r5
 80002c6:	18c0      	adds	r0, r0, r3
 80002c8:	eb51 71e3 	adcs.w	r1, r1, r3, asr #31
 80002cc:	f001 4500 	and.w	r5, r1, #2147483648	; 0x80000000
 80002d0:	d507      	bpl.n	80002e2 <__adddf3+0xe6>
 80002d2:	f04f 0e00 	mov.w	lr, #0
 80002d6:	f1dc 0c00 	rsbs	ip, ip, #0
 80002da:	eb7e 0000 	sbcs.w	r0, lr, r0
 80002de:	eb6e 0101 	sbc.w	r1, lr, r1
 80002e2:	f5b1 1f80 	cmp.w	r1, #1048576	; 0x100000
 80002e6:	d31b      	bcc.n	8000320 <__adddf3+0x124>
 80002e8:	f5b1 1f00 	cmp.w	r1, #2097152	; 0x200000
 80002ec:	d30c      	bcc.n	8000308 <__adddf3+0x10c>
 80002ee:	0849      	lsrs	r1, r1, #1
 80002f0:	ea5f 0030 	movs.w	r0, r0, rrx
 80002f4:	ea4f 0c3c 	mov.w	ip, ip, rrx
 80002f8:	f104 0401 	add.w	r4, r4, #1
 80002fc:	ea4f 5244 	mov.w	r2, r4, lsl #21
 8000300:	f512 0f80 	cmn.w	r2, #4194304	; 0x400000
 8000304:	f080 809a 	bcs.w	800043c <__adddf3+0x240>
 8000308:	f1bc 4f00 	cmp.w	ip, #2147483648	; 0x80000000
 800030c:	bf08      	it	eq
 800030e:	ea5f 0c50 	movseq.w	ip, r0, lsr #1
 8000312:	f150 0000 	adcs.w	r0, r0, #0
 8000316:	eb41 5104 	adc.w	r1, r1, r4, lsl #20
 800031a:	ea41 0105 	orr.w	r1, r1, r5
 800031e:	bd30      	pop	{r4, r5, pc}
 8000320:	ea5f 0c4c 	movs.w	ip, ip, lsl #1
 8000324:	4140      	adcs	r0, r0
 8000326:	eb41 0101 	adc.w	r1, r1, r1
 800032a:	3c01      	subs	r4, #1
 800032c:	bf28      	it	cs
 800032e:	f5b1 1f80 	cmpcs.w	r1, #1048576	; 0x100000
 8000332:	d2e9      	bcs.n	8000308 <__adddf3+0x10c>
 8000334:	f091 0f00 	teq	r1, #0
 8000338:	bf04      	itt	eq
 800033a:	4601      	moveq	r1, r0
 800033c:	2000      	moveq	r0, #0
 800033e:	fab1 f381 	clz	r3, r1
 8000342:	bf08      	it	eq
 8000344:	3320      	addeq	r3, #32
 8000346:	f1a3 030b 	sub.w	r3, r3, #11
 800034a:	f1b3 0220 	subs.w	r2, r3, #32
 800034e:	da0c      	bge.n	800036a <__adddf3+0x16e>
 8000350:	320c      	adds	r2, #12
 8000352:	dd08      	ble.n	8000366 <__adddf3+0x16a>
 8000354:	f102 0c14 	add.w	ip, r2, #20
 8000358:	f1c2 020c 	rsb	r2, r2, #12
 800035c:	fa01 f00c 	lsl.w	r0, r1, ip
 8000360:	fa21 f102 	lsr.w	r1, r1, r2
 8000364:	e00c      	b.n	8000380 <__adddf3+0x184>
 8000366:	f102 0214 	add.w	r2, r2, #20
 800036a:	bfd8      	it	le
 800036c:	f1c2 0c20 	rsble	ip, r2, #32
 8000370:	fa01 f102 	lsl.w	r1, r1, r2
 8000374:	fa20 fc0c 	lsr.w	ip, r0, ip
 8000378:	bfdc      	itt	le
 800037a:	ea41 010c 	orrle.w	r1, r1, ip
 800037e:	4090      	lslle	r0, r2
 8000380:	1ae4      	subs	r4, r4, r3
 8000382:	bfa2      	ittt	ge
 8000384:	eb01 5104 	addge.w	r1, r1, r4, lsl #20
 8000388:	4329      	orrge	r1, r5
 800038a:	bd30      	popge	{r4, r5, pc}
 800038c:	ea6f 0404 	mvn.w	r4, r4
 8000390:	3c1f      	subs	r4, #31
 8000392:	da1c      	bge.n	80003ce <__adddf3+0x1d2>
 8000394:	340c      	adds	r4, #12
 8000396:	dc0e      	bgt.n	80003b6 <__adddf3+0x1ba>
 8000398:	f104 0414 	add.w	r4, r4, #20
 800039c:	f1c4 0220 	rsb	r2, r4, #32
 80003a0:	fa20 f004 	lsr.w	r0, r0, r4
 80003a4:	fa01 f302 	lsl.w	r3, r1, r2
 80003a8:	ea40 0003 	orr.w	r0, r0, r3
 80003ac:	fa21 f304 	lsr.w	r3, r1, r4
 80003b0:	ea45 0103 	orr.w	r1, r5, r3
 80003b4:	bd30      	pop	{r4, r5, pc}
 80003b6:	f1c4 040c 	rsb	r4, r4, #12
 80003ba:	f1c4 0220 	rsb	r2, r4, #32
 80003be:	fa20 f002 	lsr.w	r0, r0, r2
 80003c2:	fa01 f304 	lsl.w	r3, r1, r4
 80003c6:	ea40 0003 	orr.w	r0, r0, r3
 80003ca:	4629      	mov	r1, r5
 80003cc:	bd30      	pop	{r4, r5, pc}
 80003ce:	fa21 f004 	lsr.w	r0, r1, r4
 80003d2:	4629      	mov	r1, r5
 80003d4:	bd30      	pop	{r4, r5, pc}
 80003d6:	f094 0f00 	teq	r4, #0
 80003da:	f483 1380 	eor.w	r3, r3, #1048576	; 0x100000
 80003de:	bf06      	itte	eq
 80003e0:	f481 1180 	eoreq.w	r1, r1, #1048576	; 0x100000
 80003e4:	3401      	addeq	r4, #1
 80003e6:	3d01      	subne	r5, #1
 80003e8:	e74e      	b.n	8000288 <__adddf3+0x8c>
 80003ea:	ea7f 5c64 	mvns.w	ip, r4, asr #21
 80003ee:	bf18      	it	ne
 80003f0:	ea7f 5c65 	mvnsne.w	ip, r5, asr #21
 80003f4:	d029      	beq.n	800044a <__adddf3+0x24e>
 80003f6:	ea94 0f05 	teq	r4, r5
 80003fa:	bf08      	it	eq
 80003fc:	ea90 0f02 	teqeq	r0, r2
 8000400:	d005      	beq.n	800040e <__adddf3+0x212>
 8000402:	ea54 0c00 	orrs.w	ip, r4, r0
 8000406:	bf04      	itt	eq
 8000408:	4619      	moveq	r1, r3
 800040a:	4610      	moveq	r0, r2
 800040c:	bd30      	pop	{r4, r5, pc}
 800040e:	ea91 0f03 	teq	r1, r3
 8000412:	bf1e      	ittt	ne
 8000414:	2100      	movne	r1, #0
 8000416:	2000      	movne	r0, #0
 8000418:	bd30      	popne	{r4, r5, pc}
 800041a:	ea5f 5c54 	movs.w	ip, r4, lsr #21
 800041e:	d105      	bne.n	800042c <__adddf3+0x230>
 8000420:	0040      	lsls	r0, r0, #1
 8000422:	4149      	adcs	r1, r1
 8000424:	bf28      	it	cs
 8000426:	f041 4100 	orrcs.w	r1, r1, #2147483648	; 0x80000000
 800042a:	bd30      	pop	{r4, r5, pc}
 800042c:	f514 0480 	adds.w	r4, r4, #4194304	; 0x400000
 8000430:	bf3c      	itt	cc
 8000432:	f501 1180 	addcc.w	r1, r1, #1048576	; 0x100000
 8000436:	bd30      	popcc	{r4, r5, pc}
 8000438:	f001 4500 	and.w	r5, r1, #2147483648	; 0x80000000
 800043c:	f045 41fe 	orr.w	r1, r5, #2130706432	; 0x7f000000
 8000440:	f441 0170 	orr.w	r1, r1, #15728640	; 0xf00000
 8000444:	f04f 0000 	mov.w	r0, #0
 8000448:	bd30      	pop	{r4, r5, pc}
 800044a:	ea7f 5c64 	mvns.w	ip, r4, asr #21
 800044e:	bf1a      	itte	ne
 8000450:	4619      	movne	r1, r3
 8000452:	4610      	movne	r0, r2
 8000454:	ea7f 5c65 	mvnseq.w	ip, r5, asr #21
 8000458:	bf1c      	itt	ne
 800045a:	460b      	movne	r3, r1
 800045c:	4602      	movne	r2, r0
 800045e:	ea50 3401 	orrs.w	r4, r0, r1, lsl #12
 8000462:	bf06      	itte	eq
 8000464:	ea52 3503 	orrseq.w	r5, r2, r3, lsl #12
 8000468:	ea91 0f03 	teqeq	r1, r3
 800046c:	f441 2100 	orrne.w	r1, r1, #524288	; 0x80000
 8000470:	bd30      	pop	{r4, r5, pc}
 8000472:	bf00      	nop

08000474 <__aeabi_ui2d>:
 8000474:	f090 0f00 	teq	r0, #0
 8000478:	bf04      	itt	eq
 800047a:	2100      	moveq	r1, #0
 800047c:	4770      	bxeq	lr
 800047e:	b530      	push	{r4, r5, lr}
 8000480:	f44f 6480 	mov.w	r4, #1024	; 0x400
 8000484:	f104 0432 	add.w	r4, r4, #50	; 0x32
 8000488:	f04f 0500 	mov.w	r5, #0
 800048c:	f04f 0100 	mov.w	r1, #0
 8000490:	e750      	b.n	8000334 <__adddf3+0x138>
 8000492:	bf00      	nop

08000494 <__aeabi_i2d>:
 8000494:	f090 0f00 	teq	r0, #0
 8000498:	bf04      	itt	eq
 800049a:	2100      	moveq	r1, #0
 800049c:	4770      	bxeq	lr
 800049e:	b530      	push	{r4, r5, lr}
 80004a0:	f44f 6480 	mov.w	r4, #1024	; 0x400
 80004a4:	f104 0432 	add.w	r4, r4, #50	; 0x32
 80004a8:	f010 4500 	ands.w	r5, r0, #2147483648	; 0x80000000
 80004ac:	bf48      	it	mi
 80004ae:	4240      	negmi	r0, r0
 80004b0:	f04f 0100 	mov.w	r1, #0
 80004b4:	e73e      	b.n	8000334 <__adddf3+0x138>
 80004b6:	bf00      	nop

080004b8 <__aeabi_f2d>:
 80004b8:	0042      	lsls	r2, r0, #1
 80004ba:	ea4f 01e2 	mov.w	r1, r2, asr #3
 80004be:	ea4f 0131 	mov.w	r1, r1, rrx
 80004c2:	ea4f 7002 	mov.w	r0, r2, lsl #28
 80004c6:	bf1f      	itttt	ne
 80004c8:	f012 437f 	andsne.w	r3, r2, #4278190080	; 0xff000000
 80004cc:	f093 4f7f 	teqne	r3, #4278190080	; 0xff000000
 80004d0:	f081 5160 	eorne.w	r1, r1, #939524096	; 0x38000000
 80004d4:	4770      	bxne	lr
 80004d6:	f032 427f 	bics.w	r2, r2, #4278190080	; 0xff000000
 80004da:	bf08      	it	eq
 80004dc:	4770      	bxeq	lr
 80004de:	f093 4f7f 	teq	r3, #4278190080	; 0xff000000
 80004e2:	bf04      	itt	eq
 80004e4:	f441 2100 	orreq.w	r1, r1, #524288	; 0x80000
 80004e8:	4770      	bxeq	lr
 80004ea:	b530      	push	{r4, r5, lr}
 80004ec:	f44f 7460 	mov.w	r4, #896	; 0x380
 80004f0:	f001 4500 	and.w	r5, r1, #2147483648	; 0x80000000
 80004f4:	f021 4100 	bic.w	r1, r1, #2147483648	; 0x80000000
 80004f8:	e71c      	b.n	8000334 <__adddf3+0x138>
 80004fa:	bf00      	nop

080004fc <__aeabi_ul2d>:
 80004fc:	ea50 0201 	orrs.w	r2, r0, r1
 8000500:	bf08      	it	eq
 8000502:	4770      	bxeq	lr
 8000504:	b530      	push	{r4, r5, lr}
 8000506:	f04f 0500 	mov.w	r5, #0
 800050a:	e00a      	b.n	8000522 <__aeabi_l2d+0x16>

0800050c <__aeabi_l2d>:
 800050c:	ea50 0201 	orrs.w	r2, r0, r1
 8000510:	bf08      	it	eq
 8000512:	4770      	bxeq	lr
 8000514:	b530      	push	{r4, r5, lr}
 8000516:	f011 4500 	ands.w	r5, r1, #2147483648	; 0x80000000
 800051a:	d502      	bpl.n	8000522 <__aeabi_l2d+0x16>
 800051c:	4240      	negs	r0, r0
 800051e:	eb61 0141 	sbc.w	r1, r1, r1, lsl #1
 8000522:	f44f 6480 	mov.w	r4, #1024	; 0x400
 8000526:	f104 0432 	add.w	r4, r4, #50	; 0x32
 800052a:	ea5f 5c91 	movs.w	ip, r1, lsr #22
 800052e:	f43f aed8 	beq.w	80002e2 <__adddf3+0xe6>
 8000532:	f04f 0203 	mov.w	r2, #3
 8000536:	ea5f 0cdc 	movs.w	ip, ip, lsr #3
 800053a:	bf18      	it	ne
 800053c:	3203      	addne	r2, #3
 800053e:	ea5f 0cdc 	movs.w	ip, ip, lsr #3
 8000542:	bf18      	it	ne
 8000544:	3203      	addne	r2, #3
 8000546:	eb02 02dc 	add.w	r2, r2, ip, lsr #3
 800054a:	f1c2 0320 	rsb	r3, r2, #32
 800054e:	fa00 fc03 	lsl.w	ip, r0, r3
 8000552:	fa20 f002 	lsr.w	r0, r0, r2
 8000556:	fa01 fe03 	lsl.w	lr, r1, r3
 800055a:	ea40 000e 	orr.w	r0, r0, lr
 800055e:	fa21 f102 	lsr.w	r1, r1, r2
 8000562:	4414      	add	r4, r2
 8000564:	e6bd      	b.n	80002e2 <__adddf3+0xe6>
 8000566:	bf00      	nop

08000568 <__aeabi_dmul>:
 8000568:	b570      	push	{r4, r5, r6, lr}
 800056a:	f04f 0cff 	mov.w	ip, #255	; 0xff
 800056e:	f44c 6ce0 	orr.w	ip, ip, #1792	; 0x700
 8000572:	ea1c 5411 	ands.w	r4, ip, r1, lsr #20
 8000576:	bf1d      	ittte	ne
 8000578:	ea1c 5513 	andsne.w	r5, ip, r3, lsr #20
 800057c:	ea94 0f0c 	teqne	r4, ip
 8000580:	ea95 0f0c 	teqne	r5, ip
 8000584:	f000 f8de 	bleq	8000744 <__aeabi_dmul+0x1dc>
 8000588:	442c      	add	r4, r5
 800058a:	ea81 0603 	eor.w	r6, r1, r3
 800058e:	ea21 514c 	bic.w	r1, r1, ip, lsl #21
 8000592:	ea23 534c 	bic.w	r3, r3, ip, lsl #21
 8000596:	ea50 3501 	orrs.w	r5, r0, r1, lsl #12
 800059a:	bf18      	it	ne
 800059c:	ea52 3503 	orrsne.w	r5, r2, r3, lsl #12
 80005a0:	f441 1180 	orr.w	r1, r1, #1048576	; 0x100000
 80005a4:	f443 1380 	orr.w	r3, r3, #1048576	; 0x100000
 80005a8:	d038      	beq.n	800061c <__aeabi_dmul+0xb4>
 80005aa:	fba0 ce02 	umull	ip, lr, r0, r2
 80005ae:	f04f 0500 	mov.w	r5, #0
 80005b2:	fbe1 e502 	umlal	lr, r5, r1, r2
 80005b6:	f006 4200 	and.w	r2, r6, #2147483648	; 0x80000000
 80005ba:	fbe0 e503 	umlal	lr, r5, r0, r3
 80005be:	f04f 0600 	mov.w	r6, #0
 80005c2:	fbe1 5603 	umlal	r5, r6, r1, r3
 80005c6:	f09c 0f00 	teq	ip, #0
 80005ca:	bf18      	it	ne
 80005cc:	f04e 0e01 	orrne.w	lr, lr, #1
 80005d0:	f1a4 04ff 	sub.w	r4, r4, #255	; 0xff
 80005d4:	f5b6 7f00 	cmp.w	r6, #512	; 0x200
 80005d8:	f564 7440 	sbc.w	r4, r4, #768	; 0x300
 80005dc:	d204      	bcs.n	80005e8 <__aeabi_dmul+0x80>
 80005de:	ea5f 0e4e 	movs.w	lr, lr, lsl #1
 80005e2:	416d      	adcs	r5, r5
 80005e4:	eb46 0606 	adc.w	r6, r6, r6
 80005e8:	ea42 21c6 	orr.w	r1, r2, r6, lsl #11
 80005ec:	ea41 5155 	orr.w	r1, r1, r5, lsr #21
 80005f0:	ea4f 20c5 	mov.w	r0, r5, lsl #11
 80005f4:	ea40 505e 	orr.w	r0, r0, lr, lsr #21
 80005f8:	ea4f 2ece 	mov.w	lr, lr, lsl #11
 80005fc:	f1b4 0cfd 	subs.w	ip, r4, #253	; 0xfd
 8000600:	bf88      	it	hi
 8000602:	f5bc 6fe0 	cmphi.w	ip, #1792	; 0x700
 8000606:	d81e      	bhi.n	8000646 <__aeabi_dmul+0xde>
 8000608:	f1be 4f00 	cmp.w	lr, #2147483648	; 0x80000000
 800060c:	bf08      	it	eq
 800060e:	ea5f 0e50 	movseq.w	lr, r0, lsr #1
 8000612:	f150 0000 	adcs.w	r0, r0, #0
 8000616:	eb41 5104 	adc.w	r1, r1, r4, lsl #20
 800061a:	bd70      	pop	{r4, r5, r6, pc}
 800061c:	f006 4600 	and.w	r6, r6, #2147483648	; 0x80000000
 8000620:	ea46 0101 	orr.w	r1, r6, r1
 8000624:	ea40 0002 	orr.w	r0, r0, r2
 8000628:	ea81 0103 	eor.w	r1, r1, r3
 800062c:	ebb4 045c 	subs.w	r4, r4, ip, lsr #1
 8000630:	bfc2      	ittt	gt
 8000632:	ebd4 050c 	rsbsgt	r5, r4, ip
 8000636:	ea41 5104 	orrgt.w	r1, r1, r4, lsl #20
 800063a:	bd70      	popgt	{r4, r5, r6, pc}
 800063c:	f441 1180 	orr.w	r1, r1, #1048576	; 0x100000
 8000640:	f04f 0e00 	mov.w	lr, #0
 8000644:	3c01      	subs	r4, #1
 8000646:	f300 80ab 	bgt.w	80007a0 <__aeabi_dmul+0x238>
 800064a:	f114 0f36 	cmn.w	r4, #54	; 0x36
 800064e:	bfde      	ittt	le
 8000650:	2000      	movle	r0, #0
 8000652:	f001 4100 	andle.w	r1, r1, #2147483648	; 0x80000000
 8000656:	bd70      	pople	{r4, r5, r6, pc}
 8000658:	f1c4 0400 	rsb	r4, r4, #0
 800065c:	3c20      	subs	r4, #32
 800065e:	da35      	bge.n	80006cc <__aeabi_dmul+0x164>
 8000660:	340c      	adds	r4, #12
 8000662:	dc1b      	bgt.n	800069c <__aeabi_dmul+0x134>
 8000664:	f104 0414 	add.w	r4, r4, #20
 8000668:	f1c4 0520 	rsb	r5, r4, #32
 800066c:	fa00 f305 	lsl.w	r3, r0, r5
 8000670:	fa20 f004 	lsr.w	r0, r0, r4
 8000674:	fa01 f205 	lsl.w	r2, r1, r5
 8000678:	ea40 0002 	orr.w	r0, r0, r2
 800067c:	f001 4200 	and.w	r2, r1, #2147483648	; 0x80000000
 8000680:	f021 4100 	bic.w	r1, r1, #2147483648	; 0x80000000
 8000684:	eb10 70d3 	adds.w	r0, r0, r3, lsr #31
 8000688:	fa21 f604 	lsr.w	r6, r1, r4
 800068c:	eb42 0106 	adc.w	r1, r2, r6
 8000690:	ea5e 0e43 	orrs.w	lr, lr, r3, lsl #1
 8000694:	bf08      	it	eq
 8000696:	ea20 70d3 	biceq.w	r0, r0, r3, lsr #31
 800069a:	bd70      	pop	{r4, r5, r6, pc}
 800069c:	f1c4 040c 	rsb	r4, r4, #12
 80006a0:	f1c4 0520 	rsb	r5, r4, #32
 80006a4:	fa00 f304 	lsl.w	r3, r0, r4
 80006a8:	fa20 f005 	lsr.w	r0, r0, r5
 80006ac:	fa01 f204 	lsl.w	r2, r1, r4
 80006b0:	ea40 0002 	orr.w	r0, r0, r2
 80006b4:	f001 4100 	and.w	r1, r1, #2147483648	; 0x80000000
 80006b8:	eb10 70d3 	adds.w	r0, r0, r3, lsr #31
 80006bc:	f141 0100 	adc.w	r1, r1, #0
 80006c0:	ea5e 0e43 	orrs.w	lr, lr, r3, lsl #1
 80006c4:	bf08      	it	eq
 80006c6:	ea20 70d3 	biceq.w	r0, r0, r3, lsr #31
 80006ca:	bd70      	pop	{r4, r5, r6, pc}
 80006cc:	f1c4 0520 	rsb	r5, r4, #32
 80006d0:	fa00 f205 	lsl.w	r2, r0, r5
 80006d4:	ea4e 0e02 	orr.w	lr, lr, r2
 80006d8:	fa20 f304 	lsr.w	r3, r0, r4
 80006dc:	fa01 f205 	lsl.w	r2, r1, r5
 80006e0:	ea43 0302 	orr.w	r3, r3, r2
 80006e4:	fa21 f004 	lsr.w	r0, r1, r4
 80006e8:	f001 4100 	and.w	r1, r1, #2147483648	; 0x80000000
 80006ec:	fa21 f204 	lsr.w	r2, r1, r4
 80006f0:	ea20 0002 	bic.w	r0, r0, r2
 80006f4:	eb00 70d3 	add.w	r0, r0, r3, lsr #31
 80006f8:	ea5e 0e43 	orrs.w	lr, lr, r3, lsl #1
 80006fc:	bf08      	it	eq
 80006fe:	ea20 70d3 	biceq.w	r0, r0, r3, lsr #31
 8000702:	bd70      	pop	{r4, r5, r6, pc}
 8000704:	f094 0f00 	teq	r4, #0
 8000708:	d10f      	bne.n	800072a <__aeabi_dmul+0x1c2>
 800070a:	f001 4600 	and.w	r6, r1, #2147483648	; 0x80000000
 800070e:	0040      	lsls	r0, r0, #1
 8000710:	eb41 0101 	adc.w	r1, r1, r1
 8000714:	f411 1f80 	tst.w	r1, #1048576	; 0x100000
 8000718:	bf08      	it	eq
 800071a:	3c01      	subeq	r4, #1
 800071c:	d0f7      	beq.n	800070e <__aeabi_dmul+0x1a6>
 800071e:	ea41 0106 	orr.w	r1, r1, r6
 8000722:	f095 0f00 	teq	r5, #0
 8000726:	bf18      	it	ne
 8000728:	4770      	bxne	lr
 800072a:	f003 4600 	and.w	r6, r3, #2147483648	; 0x80000000
 800072e:	0052      	lsls	r2, r2, #1
 8000730:	eb43 0303 	adc.w	r3, r3, r3
 8000734:	f413 1f80 	tst.w	r3, #1048576	; 0x100000
 8000738:	bf08      	it	eq
 800073a:	3d01      	subeq	r5, #1
 800073c:	d0f7      	beq.n	800072e <__aeabi_dmul+0x1c6>
 800073e:	ea43 0306 	orr.w	r3, r3, r6
 8000742:	4770      	bx	lr
 8000744:	ea94 0f0c 	teq	r4, ip
 8000748:	ea0c 5513 	and.w	r5, ip, r3, lsr #20
 800074c:	bf18      	it	ne
 800074e:	ea95 0f0c 	teqne	r5, ip
 8000752:	d00c      	beq.n	800076e <__aeabi_dmul+0x206>
 8000754:	ea50 0641 	orrs.w	r6, r0, r1, lsl #1
 8000758:	bf18      	it	ne
 800075a:	ea52 0643 	orrsne.w	r6, r2, r3, lsl #1
 800075e:	d1d1      	bne.n	8000704 <__aeabi_dmul+0x19c>
 8000760:	ea81 0103 	eor.w	r1, r1, r3
 8000764:	f001 4100 	and.w	r1, r1, #2147483648	; 0x80000000
 8000768:	f04f 0000 	mov.w	r0, #0
 800076c:	bd70      	pop	{r4, r5, r6, pc}
 800076e:	ea50 0641 	orrs.w	r6, r0, r1, lsl #1
 8000772:	bf06      	itte	eq
 8000774:	4610      	moveq	r0, r2
 8000776:	4619      	moveq	r1, r3
 8000778:	ea52 0643 	orrsne.w	r6, r2, r3, lsl #1
 800077c:	d019      	beq.n	80007b2 <__aeabi_dmul+0x24a>
 800077e:	ea94 0f0c 	teq	r4, ip
 8000782:	d102      	bne.n	800078a <__aeabi_dmul+0x222>
 8000784:	ea50 3601 	orrs.w	r6, r0, r1, lsl #12
 8000788:	d113      	bne.n	80007b2 <__aeabi_dmul+0x24a>
 800078a:	ea95 0f0c 	teq	r5, ip
 800078e:	d105      	bne.n	800079c <__aeabi_dmul+0x234>
 8000790:	ea52 3603 	orrs.w	r6, r2, r3, lsl #12
 8000794:	bf1c      	itt	ne
 8000796:	4610      	movne	r0, r2
 8000798:	4619      	movne	r1, r3
 800079a:	d10a      	bne.n	80007b2 <__aeabi_dmul+0x24a>
 800079c:	ea81 0103 	eor.w	r1, r1, r3
 80007a0:	f001 4100 	and.w	r1, r1, #2147483648	; 0x80000000
 80007a4:	f041 41fe 	orr.w	r1, r1, #2130706432	; 0x7f000000
 80007a8:	f441 0170 	orr.w	r1, r1, #15728640	; 0xf00000
 80007ac:	f04f 0000 	mov.w	r0, #0
 80007b0:	bd70      	pop	{r4, r5, r6, pc}
 80007b2:	f041 41fe 	orr.w	r1, r1, #2130706432	; 0x7f000000
 80007b6:	f441 0178 	orr.w	r1, r1, #16252928	; 0xf80000
 80007ba:	bd70      	pop	{r4, r5, r6, pc}

080007bc <__aeabi_ddiv>:
 80007bc:	b570      	push	{r4, r5, r6, lr}
 80007be:	f04f 0cff 	mov.w	ip, #255	; 0xff
 80007c2:	f44c 6ce0 	orr.w	ip, ip, #1792	; 0x700
 80007c6:	ea1c 5411 	ands.w	r4, ip, r1, lsr #20
 80007ca:	bf1d      	ittte	ne
 80007cc:	ea1c 5513 	andsne.w	r5, ip, r3, lsr #20
 80007d0:	ea94 0f0c 	teqne	r4, ip
 80007d4:	ea95 0f0c 	teqne	r5, ip
 80007d8:	f000 f8a7 	bleq	800092a <__aeabi_ddiv+0x16e>
 80007dc:	eba4 0405 	sub.w	r4, r4, r5
 80007e0:	ea81 0e03 	eor.w	lr, r1, r3
 80007e4:	ea52 3503 	orrs.w	r5, r2, r3, lsl #12
 80007e8:	ea4f 3101 	mov.w	r1, r1, lsl #12
 80007ec:	f000 8088 	beq.w	8000900 <__aeabi_ddiv+0x144>
 80007f0:	ea4f 3303 	mov.w	r3, r3, lsl #12
 80007f4:	f04f 5580 	mov.w	r5, #268435456	; 0x10000000
 80007f8:	ea45 1313 	orr.w	r3, r5, r3, lsr #4
 80007fc:	ea43 6312 	orr.w	r3, r3, r2, lsr #24
 8000800:	ea4f 2202 	mov.w	r2, r2, lsl #8
 8000804:	ea45 1511 	orr.w	r5, r5, r1, lsr #4
 8000808:	ea45 6510 	orr.w	r5, r5, r0, lsr #24
 800080c:	ea4f 2600 	mov.w	r6, r0, lsl #8
 8000810:	f00e 4100 	and.w	r1, lr, #2147483648	; 0x80000000
 8000814:	429d      	cmp	r5, r3
 8000816:	bf08      	it	eq
 8000818:	4296      	cmpeq	r6, r2
 800081a:	f144 04fd 	adc.w	r4, r4, #253	; 0xfd
 800081e:	f504 7440 	add.w	r4, r4, #768	; 0x300
 8000822:	d202      	bcs.n	800082a <__aeabi_ddiv+0x6e>
 8000824:	085b      	lsrs	r3, r3, #1
 8000826:	ea4f 0232 	mov.w	r2, r2, rrx
 800082a:	1ab6      	subs	r6, r6, r2
 800082c:	eb65 0503 	sbc.w	r5, r5, r3
 8000830:	085b      	lsrs	r3, r3, #1
 8000832:	ea4f 0232 	mov.w	r2, r2, rrx
 8000836:	f44f 1080 	mov.w	r0, #1048576	; 0x100000
 800083a:	f44f 2c00 	mov.w	ip, #524288	; 0x80000
 800083e:	ebb6 0e02 	subs.w	lr, r6, r2
 8000842:	eb75 0e03 	sbcs.w	lr, r5, r3
 8000846:	bf22      	ittt	cs
 8000848:	1ab6      	subcs	r6, r6, r2
 800084a:	4675      	movcs	r5, lr
 800084c:	ea40 000c 	orrcs.w	r0, r0, ip
 8000850:	085b      	lsrs	r3, r3, #1
 8000852:	ea4f 0232 	mov.w	r2, r2, rrx
 8000856:	ebb6 0e02 	subs.w	lr, r6, r2
 800085a:	eb75 0e03 	sbcs.w	lr, r5, r3
 800085e:	bf22      	ittt	cs
 8000860:	1ab6      	subcs	r6, r6, r2
 8000862:	4675      	movcs	r5, lr
 8000864:	ea40 005c 	orrcs.w	r0, r0, ip, lsr #1
 8000868:	085b      	lsrs	r3, r3, #1
 800086a:	ea4f 0232 	mov.w	r2, r2, rrx
 800086e:	ebb6 0e02 	subs.w	lr, r6, r2
 8000872:	eb75 0e03 	sbcs.w	lr, r5, r3
 8000876:	bf22      	ittt	cs
 8000878:	1ab6      	subcs	r6, r6, r2
 800087a:	4675      	movcs	r5, lr
 800087c:	ea40 009c 	orrcs.w	r0, r0, ip, lsr #2
 8000880:	085b      	lsrs	r3, r3, #1
 8000882:	ea4f 0232 	mov.w	r2, r2, rrx
 8000886:	ebb6 0e02 	subs.w	lr, r6, r2
 800088a:	eb75 0e03 	sbcs.w	lr, r5, r3
 800088e:	bf22      	ittt	cs
 8000890:	1ab6      	subcs	r6, r6, r2
 8000892:	4675      	movcs	r5, lr
 8000894:	ea40 00dc 	orrcs.w	r0, r0, ip, lsr #3
 8000898:	ea55 0e06 	orrs.w	lr, r5, r6
 800089c:	d018      	beq.n	80008d0 <__aeabi_ddiv+0x114>
 800089e:	ea4f 1505 	mov.w	r5, r5, lsl #4
 80008a2:	ea45 7516 	orr.w	r5, r5, r6, lsr #28
 80008a6:	ea4f 1606 	mov.w	r6, r6, lsl #4
 80008aa:	ea4f 03c3 	mov.w	r3, r3, lsl #3
 80008ae:	ea43 7352 	orr.w	r3, r3, r2, lsr #29
 80008b2:	ea4f 02c2 	mov.w	r2, r2, lsl #3
 80008b6:	ea5f 1c1c 	movs.w	ip, ip, lsr #4
 80008ba:	d1c0      	bne.n	800083e <__aeabi_ddiv+0x82>
 80008bc:	f411 1f80 	tst.w	r1, #1048576	; 0x100000
 80008c0:	d10b      	bne.n	80008da <__aeabi_ddiv+0x11e>
 80008c2:	ea41 0100 	orr.w	r1, r1, r0
 80008c6:	f04f 0000 	mov.w	r0, #0
 80008ca:	f04f 4c00 	mov.w	ip, #2147483648	; 0x80000000
 80008ce:	e7b6      	b.n	800083e <__aeabi_ddiv+0x82>
 80008d0:	f411 1f80 	tst.w	r1, #1048576	; 0x100000
 80008d4:	bf04      	itt	eq
 80008d6:	4301      	orreq	r1, r0
 80008d8:	2000      	moveq	r0, #0
 80008da:	f1b4 0cfd 	subs.w	ip, r4, #253	; 0xfd
 80008de:	bf88      	it	hi
 80008e0:	f5bc 6fe0 	cmphi.w	ip, #1792	; 0x700
 80008e4:	f63f aeaf 	bhi.w	8000646 <__aeabi_dmul+0xde>
 80008e8:	ebb5 0c03 	subs.w	ip, r5, r3
 80008ec:	bf04      	itt	eq
 80008ee:	ebb6 0c02 	subseq.w	ip, r6, r2
 80008f2:	ea5f 0c50 	movseq.w	ip, r0, lsr #1
 80008f6:	f150 0000 	adcs.w	r0, r0, #0
 80008fa:	eb41 5104 	adc.w	r1, r1, r4, lsl #20
 80008fe:	bd70      	pop	{r4, r5, r6, pc}
 8000900:	f00e 4e00 	and.w	lr, lr, #2147483648	; 0x80000000
 8000904:	ea4e 3111 	orr.w	r1, lr, r1, lsr #12
 8000908:	eb14 045c 	adds.w	r4, r4, ip, lsr #1
 800090c:	bfc2      	ittt	gt
 800090e:	ebd4 050c 	rsbsgt	r5, r4, ip
 8000912:	ea41 5104 	orrgt.w	r1, r1, r4, lsl #20
 8000916:	bd70      	popgt	{r4, r5, r6, pc}
 8000918:	f441 1180 	orr.w	r1, r1, #1048576	; 0x100000
 800091c:	f04f 0e00 	mov.w	lr, #0
 8000920:	3c01      	subs	r4, #1
 8000922:	e690      	b.n	8000646 <__aeabi_dmul+0xde>
 8000924:	ea45 0e06 	orr.w	lr, r5, r6
 8000928:	e68d      	b.n	8000646 <__aeabi_dmul+0xde>
 800092a:	ea0c 5513 	and.w	r5, ip, r3, lsr #20
 800092e:	ea94 0f0c 	teq	r4, ip
 8000932:	bf08      	it	eq
 8000934:	ea95 0f0c 	teqeq	r5, ip
 8000938:	f43f af3b 	beq.w	80007b2 <__aeabi_dmul+0x24a>
 800093c:	ea94 0f0c 	teq	r4, ip
 8000940:	d10a      	bne.n	8000958 <__aeabi_ddiv+0x19c>
 8000942:	ea50 3401 	orrs.w	r4, r0, r1, lsl #12
 8000946:	f47f af34 	bne.w	80007b2 <__aeabi_dmul+0x24a>
 800094a:	ea95 0f0c 	teq	r5, ip
 800094e:	f47f af25 	bne.w	800079c <__aeabi_dmul+0x234>
 8000952:	4610      	mov	r0, r2
 8000954:	4619      	mov	r1, r3
 8000956:	e72c      	b.n	80007b2 <__aeabi_dmul+0x24a>
 8000958:	ea95 0f0c 	teq	r5, ip
 800095c:	d106      	bne.n	800096c <__aeabi_ddiv+0x1b0>
 800095e:	ea52 3503 	orrs.w	r5, r2, r3, lsl #12
 8000962:	f43f aefd 	beq.w	8000760 <__aeabi_dmul+0x1f8>
 8000966:	4610      	mov	r0, r2
 8000968:	4619      	mov	r1, r3
 800096a:	e722      	b.n	80007b2 <__aeabi_dmul+0x24a>
 800096c:	ea50 0641 	orrs.w	r6, r0, r1, lsl #1
 8000970:	bf18      	it	ne
 8000972:	ea52 0643 	orrsne.w	r6, r2, r3, lsl #1
 8000976:	f47f aec5 	bne.w	8000704 <__aeabi_dmul+0x19c>
 800097a:	ea50 0441 	orrs.w	r4, r0, r1, lsl #1
 800097e:	f47f af0d 	bne.w	800079c <__aeabi_dmul+0x234>
 8000982:	ea52 0543 	orrs.w	r5, r2, r3, lsl #1
 8000986:	f47f aeeb 	bne.w	8000760 <__aeabi_dmul+0x1f8>
 800098a:	e712      	b.n	80007b2 <__aeabi_dmul+0x24a>

0800098c <__aeabi_d2iz>:
 800098c:	ea4f 0241 	mov.w	r2, r1, lsl #1
 8000990:	f512 1200 	adds.w	r2, r2, #2097152	; 0x200000
 8000994:	d215      	bcs.n	80009c2 <__aeabi_d2iz+0x36>
 8000996:	d511      	bpl.n	80009bc <__aeabi_d2iz+0x30>
 8000998:	f46f 7378 	mvn.w	r3, #992	; 0x3e0
 800099c:	ebb3 5262 	subs.w	r2, r3, r2, asr #21
 80009a0:	d912      	bls.n	80009c8 <__aeabi_d2iz+0x3c>
 80009a2:	ea4f 23c1 	mov.w	r3, r1, lsl #11
 80009a6:	f043 4300 	orr.w	r3, r3, #2147483648	; 0x80000000
 80009aa:	ea43 5350 	orr.w	r3, r3, r0, lsr #21
 80009ae:	f011 4f00 	tst.w	r1, #2147483648	; 0x80000000
 80009b2:	fa23 f002 	lsr.w	r0, r3, r2
 80009b6:	bf18      	it	ne
 80009b8:	4240      	negne	r0, r0
 80009ba:	4770      	bx	lr
 80009bc:	f04f 0000 	mov.w	r0, #0
 80009c0:	4770      	bx	lr
 80009c2:	ea50 3001 	orrs.w	r0, r0, r1, lsl #12
 80009c6:	d105      	bne.n	80009d4 <__aeabi_d2iz+0x48>
 80009c8:	f011 4000 	ands.w	r0, r1, #2147483648	; 0x80000000
 80009cc:	bf08      	it	eq
 80009ce:	f06f 4000 	mvneq.w	r0, #2147483648	; 0x80000000
 80009d2:	4770      	bx	lr
 80009d4:	f04f 0000 	mov.w	r0, #0
 80009d8:	4770      	bx	lr
 80009da:	bf00      	nop

080009dc <Reset_Handler>:
 80009dc:	2100      	movs	r1, #0
 80009de:	e003      	b.n	80009e8 <DataInit>

080009e0 <CopyData>:
 80009e0:	4b0a      	ldr	r3, [pc, #40]	; (8000a0c <Zerobss+0x10>)
 80009e2:	585b      	ldr	r3, [r3, r1]
 80009e4:	5043      	str	r3, [r0, r1]
 80009e6:	3104      	adds	r1, #4

080009e8 <DataInit>:
 80009e8:	4809      	ldr	r0, [pc, #36]	; (8000a10 <Zerobss+0x14>)
 80009ea:	4b0a      	ldr	r3, [pc, #40]	; (8000a14 <Zerobss+0x18>)
 80009ec:	1842      	adds	r2, r0, r1
 80009ee:	429a      	cmp	r2, r3
 80009f0:	d3f6      	bcc.n	80009e0 <CopyData>
 80009f2:	4a09      	ldr	r2, [pc, #36]	; (8000a18 <Zerobss+0x1c>)
 80009f4:	e002      	b.n	80009fc <Zerobss>

080009f6 <FillZerobss>:
 80009f6:	2300      	movs	r3, #0
 80009f8:	f842 3b04 	str.w	r3, [r2], #4

080009fc <Zerobss>:
 80009fc:	4b07      	ldr	r3, [pc, #28]	; (8000a1c <Zerobss+0x20>)
 80009fe:	429a      	cmp	r2, r3
 8000a00:	d3f9      	bcc.n	80009f6 <FillZerobss>
 8000a02:	f007 fd13 	bl	800842c <SystemInit>
 8000a06:	f000 f921 	bl	8000c4c <main>
 8000a0a:	4770      	bx	lr
 8000a0c:	0800bd24 	stmdaeq	r0, {r2, r5, r8, sl, fp, ip, sp, pc}
 8000a10:	20001000 	andcs	r1, r0, r0
 8000a14:	20001070 	andcs	r1, r0, r0, ror r0
 8000a18:	20001070 	andcs	r1, r0, r0, ror r0
 8000a1c:	20008798 	mulcs	r0, r8, r7

08000a20 <ADC0_1_IRQHandler>:
 8000a20:	e7fe      	b.n	8000a20 <ADC0_1_IRQHandler>

08000a22 <RDMResponder::DmxStartAddressUpdate()>:
 8000a22:	b508      	push	{r3, lr}
 8000a24:	f8b0 107f 	ldrh.w	r1, [r0, #127]	; 0x7f
 8000a28:	ba49      	rev16	r1, r1
 8000a2a:	b289      	uxth	r1, r1
 8000a2c:	f000 fbd4 	bl	80011d8 <RDMResponder::DmxStartAddressUpdate(unsigned short)>
 8000a30:	bd08      	pop	{r3, pc}
	...

08000a34 <RDMResponder::PersonalityUpdate(LightSet*)>:
 8000a34:	b570      	push	{r4, r5, r6, lr}
 8000a36:	4e0a      	ldr	r6, [pc, #40]	; (8000a60 <RDMResponder::PersonalityUpdate(LightSet*)+0x2c>)
 8000a38:	4604      	mov	r4, r0
 8000a3a:	6830      	ldr	r0, [r6, #0]
 8000a3c:	4281      	cmp	r1, r0
 8000a3e:	460d      	mov	r5, r1
 8000a40:	d007      	beq.n	8000a52 <RDMResponder::PersonalityUpdate(LightSet*)+0x1e>
 8000a42:	6803      	ldr	r3, [r0, #0]
 8000a44:	2100      	movs	r1, #0
 8000a46:	68db      	ldr	r3, [r3, #12]
 8000a48:	4798      	blx	r3
 8000a4a:	4b06      	ldr	r3, [pc, #24]	; (8000a64 <RDMResponder::PersonalityUpdate(LightSet*)+0x30>)
 8000a4c:	6035      	str	r5, [r6, #0]
 8000a4e:	2200      	movs	r2, #0
 8000a50:	701a      	strb	r2, [r3, #0]
 8000a52:	f894 107d 	ldrb.w	r1, [r4, #125]	; 0x7d
 8000a56:	4620      	mov	r0, r4
 8000a58:	f000 fbd6 	bl	8001208 <RDMResponder::PersonalityUpdate(unsigned long)>
 8000a5c:	bd70      	pop	{r4, r5, r6, pc}
 8000a5e:	bf00      	nop
 8000a60:	20001084 	andcs	r1, r0, r4, lsl #1
 8000a64:	20001081 	andcs	r1, r0, r1, lsl #1

08000a68 <Display::ClearLine(unsigned long) [clone .isra.0]>:
 8000a68:	b110      	cbz	r0, 8000a70 <Display::ClearLine(unsigned long) [clone .isra.0]+0x8>
 8000a6a:	6803      	ldr	r3, [r0, #0]
 8000a6c:	691b      	ldr	r3, [r3, #16]
 8000a6e:	4718      	bx	r3
 8000a70:	4770      	bx	lr

08000a72 <Display::Printf(unsigned long, char const*, ...)>:
 8000a72:	b40c      	push	{r2, r3}
 8000a74:	b570      	push	{r4, r5, r6, lr}
 8000a76:	69c4      	ldr	r4, [r0, #28]
 8000a78:	b08a      	sub	sp, #40	; 0x28
 8000a7a:	4605      	mov	r5, r0
 8000a7c:	460e      	mov	r6, r1
 8000a7e:	b174      	cbz	r4, 8000a9e <Display::Printf(unsigned long, char const*, ...)+0x2c>
 8000a80:	ab0f      	add	r3, sp, #60	; 0x3c
 8000a82:	9a0e      	ldr	r2, [sp, #56]	; 0x38
 8000a84:	9301      	str	r3, [sp, #4]
 8000a86:	2120      	movs	r1, #32
 8000a88:	a802      	add	r0, sp, #8
 8000a8a:	f001 f891 	bl	8001bb0 <vsnprintf>
 8000a8e:	4604      	mov	r4, r0
 8000a90:	69e8      	ldr	r0, [r5, #28]
 8000a92:	6803      	ldr	r3, [r0, #0]
 8000a94:	aa02      	add	r2, sp, #8
 8000a96:	69dd      	ldr	r5, [r3, #28]
 8000a98:	4631      	mov	r1, r6
 8000a9a:	4623      	mov	r3, r4
 8000a9c:	47a8      	blx	r5
 8000a9e:	4620      	mov	r0, r4
 8000aa0:	b00a      	add	sp, #40	; 0x28
 8000aa2:	e8bd 4070 	ldmia.w	sp!, {r4, r5, r6, lr}
 8000aa6:	b002      	add	sp, #8
 8000aa8:	4770      	bx	lr
	...

08000aac <Display::SetSleep(bool)>:
 8000aac:	b538      	push	{r3, r4, r5, lr}
 8000aae:	4604      	mov	r4, r0
 8000ab0:	69c0      	ldr	r0, [r0, #28]
 8000ab2:	460d      	mov	r5, r1
 8000ab4:	b138      	cbz	r0, 8000ac6 <Display::SetSleep(bool)+0x1a>
 8000ab6:	6803      	ldr	r3, [r0, #0]
 8000ab8:	7421      	strb	r1, [r4, #16]
 8000aba:	6a9b      	ldr	r3, [r3, #40]	; 0x28
 8000abc:	4798      	blx	r3
 8000abe:	b915      	cbnz	r5, 8000ac6 <Display::SetSleep(bool)+0x1a>
 8000ac0:	4b01      	ldr	r3, [pc, #4]	; (8000ac8 <Display::SetSleep(bool)+0x1c>)
 8000ac2:	681b      	ldr	r3, [r3, #0]
 8000ac4:	6063      	str	r3, [r4, #4]
 8000ac6:	bd38      	pop	{r3, r4, r5, pc}
 8000ac8:	20008794 	mulcs	r0, r4, r7

08000acc <RDMPersonality::RDMPersonality(char const*, LightSet*)>:
 8000acc:	2300      	movs	r3, #0
 8000ace:	b570      	push	{r4, r5, r6, lr}
 8000ad0:	4604      	mov	r4, r0
 8000ad2:	460e      	mov	r6, r1
 8000ad4:	6043      	str	r3, [r0, #4]
 8000ad6:	6283      	str	r3, [r0, #40]	; 0x28
 8000ad8:	4615      	mov	r5, r2
 8000ada:	b972      	cbnz	r2, 8000afa <RDMPersonality::RDMPersonality(char const*, LightSet*)+0x2e>
 8000adc:	8002      	strh	r2, [r0, #0]
 8000ade:	f104 0208 	add.w	r2, r4, #8
 8000ae2:	1e71      	subs	r1, r6, #1
 8000ae4:	f104 0028 	add.w	r0, r4, #40	; 0x28
 8000ae8:	2300      	movs	r3, #0
 8000aea:	62a3      	str	r3, [r4, #40]	; 0x28
 8000aec:	f811 3f01 	ldrb.w	r3, [r1, #1]!
 8000af0:	b10b      	cbz	r3, 8000af6 <RDMPersonality::RDMPersonality(char const*, LightSet*)+0x2a>
 8000af2:	4290      	cmp	r0, r2
 8000af4:	d108      	bne.n	8000b08 <RDMPersonality::RDMPersonality(char const*, LightSet*)+0x3c>
 8000af6:	4620      	mov	r0, r4
 8000af8:	bd70      	pop	{r4, r5, r6, pc}
 8000afa:	6813      	ldr	r3, [r2, #0]
 8000afc:	4610      	mov	r0, r2
 8000afe:	6b1b      	ldr	r3, [r3, #48]	; 0x30
 8000b00:	4798      	blx	r3
 8000b02:	6065      	str	r5, [r4, #4]
 8000b04:	8020      	strh	r0, [r4, #0]
 8000b06:	e7ea      	b.n	8000ade <RDMPersonality::RDMPersonality(char const*, LightSet*)+0x12>
 8000b08:	f802 3b01 	strb.w	r3, [r2], #1
 8000b0c:	6aa3      	ldr	r3, [r4, #40]	; 0x28
 8000b0e:	3301      	adds	r3, #1
 8000b10:	e7eb      	b.n	8000aea <RDMPersonality::RDMPersonality(char const*, LightSet*)+0x1e>
	...

08000b14 <RDMDeviceResponder::~RDMDeviceResponder()>:
 8000b14:	b5f8      	push	{r3, r4, r5, r6, r7, lr}
 8000b16:	4b17      	ldr	r3, [pc, #92]	; (8000b74 <RDMDeviceResponder::~RDMDeviceResponder()+0x60>)
 8000b18:	6003      	str	r3, [r0, #0]
 8000b1a:	2500      	movs	r5, #0
 8000b1c:	4604      	mov	r4, r0
 8000b1e:	462e      	mov	r6, r5
 8000b20:	f8b4 3064 	ldrh.w	r3, [r4, #100]	; 0x64
 8000b24:	6e20      	ldr	r0, [r4, #96]	; 0x60
 8000b26:	429d      	cmp	r5, r3
 8000b28:	d30e      	bcc.n	8000b48 <RDMDeviceResponder::~RDMDeviceResponder()+0x34>
 8000b2a:	b108      	cbz	r0, 8000b30 <RDMDeviceResponder::~RDMDeviceResponder()+0x1c>
 8000b2c:	f007 fa83 	bl	8008036 <operator delete[](void*)>
 8000b30:	2500      	movs	r5, #0
 8000b32:	462e      	mov	r6, r5
 8000b34:	f894 305c 	ldrb.w	r3, [r4, #92]	; 0x5c
 8000b38:	6da0      	ldr	r0, [r4, #88]	; 0x58
 8000b3a:	429d      	cmp	r5, r3
 8000b3c:	d30f      	bcc.n	8000b5e <RDMDeviceResponder::~RDMDeviceResponder()+0x4a>
 8000b3e:	b108      	cbz	r0, 8000b44 <RDMDeviceResponder::~RDMDeviceResponder()+0x30>
 8000b40:	f007 fa79 	bl	8008036 <operator delete[](void*)>
 8000b44:	4620      	mov	r0, r4
 8000b46:	bdf8      	pop	{r3, r4, r5, r6, r7, pc}
 8000b48:	f850 0025 	ldr.w	r0, [r0, r5, lsl #2]
 8000b4c:	00af      	lsls	r7, r5, #2
 8000b4e:	b110      	cbz	r0, 8000b56 <RDMDeviceResponder::~RDMDeviceResponder()+0x42>
 8000b50:	6803      	ldr	r3, [r0, #0]
 8000b52:	685b      	ldr	r3, [r3, #4]
 8000b54:	4798      	blx	r3
 8000b56:	6e23      	ldr	r3, [r4, #96]	; 0x60
 8000b58:	3501      	adds	r5, #1
 8000b5a:	51de      	str	r6, [r3, r7]
 8000b5c:	e7e0      	b.n	8000b20 <RDMDeviceResponder::~RDMDeviceResponder()+0xc>
 8000b5e:	f850 0025 	ldr.w	r0, [r0, r5, lsl #2]
 8000b62:	b128      	cbz	r0, 8000b70 <RDMDeviceResponder::~RDMDeviceResponder()+0x5c>
 8000b64:	6803      	ldr	r3, [r0, #0]
 8000b66:	685b      	ldr	r3, [r3, #4]
 8000b68:	4798      	blx	r3
 8000b6a:	6da3      	ldr	r3, [r4, #88]	; 0x58
 8000b6c:	f843 6025 	str.w	r6, [r3, r5, lsl #2]
 8000b70:	3501      	adds	r5, #1
 8000b72:	e7df      	b.n	8000b34 <RDMDeviceResponder::~RDMDeviceResponder()+0x20>
 8000b74:	0800a150 	stmdaeq	r0, {r4, r6, r8, sp, pc}

08000b78 <RDMResponder::~RDMResponder()>:
 8000b78:	b538      	push	{r3, r4, r5, lr}
 8000b7a:	4605      	mov	r5, r0
 8000b7c:	4b0b      	ldr	r3, [pc, #44]	; (8000bac <RDMResponder::~RDMResponder()+0x34>)
 8000b7e:	f845 3ba0 	str.w	r3, [r5], #160
 8000b82:	4604      	mov	r4, r0
 8000b84:	f7ff ffc6 	bl	8000b14 <RDMDeviceResponder::~RDMDeviceResponder()>
 8000b88:	2300      	movs	r3, #0
 8000b8a:	2201      	movs	r2, #1
 8000b8c:	4619      	mov	r1, r3
 8000b8e:	4628      	mov	r0, r5
 8000b90:	f004 f912 	bl	8004db8 <Dmx::SetPortDirection(unsigned long, dmx::PortDirection, bool)>
 8000b94:	4b06      	ldr	r3, [pc, #24]	; (8000bb0 <RDMResponder::~RDMResponder()+0x38>)
 8000b96:	6818      	ldr	r0, [r3, #0]
 8000b98:	6803      	ldr	r3, [r0, #0]
 8000b9a:	2100      	movs	r1, #0
 8000b9c:	68db      	ldr	r3, [r3, #12]
 8000b9e:	4798      	blx	r3
 8000ba0:	4b04      	ldr	r3, [pc, #16]	; (8000bb4 <RDMResponder::~RDMResponder()+0x3c>)
 8000ba2:	2200      	movs	r2, #0
 8000ba4:	701a      	strb	r2, [r3, #0]
 8000ba6:	4620      	mov	r0, r4
 8000ba8:	bd38      	pop	{r3, r4, r5, pc}
 8000baa:	bf00      	nop
 8000bac:	08009d60 	stmdaeq	r0, {r5, r6, r8, sl, fp, ip, pc}
 8000bb0:	20001084 	andcs	r1, r0, r4, lsl #1
 8000bb4:	20001081 	andcs	r1, r0, r1, lsl #1

08000bb8 <RDMResponder::~RDMResponder()>:
 8000bb8:	b510      	push	{r4, lr}
 8000bba:	4604      	mov	r4, r0
 8000bbc:	f7ff ffdc 	bl	8000b78 <RDMResponder::~RDMResponder()>
 8000bc0:	4620      	mov	r0, r4
 8000bc2:	21c8      	movs	r1, #200	; 0xc8
 8000bc4:	f007 fa39 	bl	800803a <operator delete(void*, unsigned int)>
 8000bc8:	4620      	mov	r0, r4
 8000bca:	bd10      	pop	{r4, pc}

08000bcc <RDMDeviceResponder::~RDMDeviceResponder()>:
 8000bcc:	b510      	push	{r4, lr}
 8000bce:	4604      	mov	r4, r0
 8000bd0:	f7ff ffa0 	bl	8000b14 <RDMDeviceResponder::~RDMDeviceResponder()>
 8000bd4:	4620      	mov	r0, r4
 8000bd6:	21a0      	movs	r1, #160	; 0xa0
 8000bd8:	f007 fa2f 	bl	800803a <operator delete(void*, unsigned int)>
 8000bdc:	4620      	mov	r0, r4
 8000bde:	bd10      	pop	{r4, pc}

08000be0 <display::timeout::gpio_init()>:
 8000be0:	b510      	push	{r4, lr}
 8000be2:	f240 6003 	movw	r0, #1539	; 0x603
 8000be6:	f007 fec9 	bl	800897c <rcu_periph_clock_enable>
 8000bea:	e8bd 4010 	ldmia.w	sp!, {r4, lr}
 8000bee:	4803      	ldr	r0, [pc, #12]	; (8000bfc <display::timeout::gpio_init()+0x1c>)
 8000bf0:	f44f 4380 	mov.w	r3, #16384	; 0x4000
 8000bf4:	2203      	movs	r2, #3
 8000bf6:	2148      	movs	r1, #72	; 0x48
 8000bf8:	f007 be32 	b.w	8008860 <gpio_init>
 8000bfc:	40010c00 	andmi	r0, r1, r0, lsl #24

08000c00 <display::timeout::gpio_renew()>:
 8000c00:	4b03      	ldr	r3, [pc, #12]	; (8000c10 <display::timeout::gpio_renew()+0x10>)
 8000c02:	f8d3 0c08 	ldr.w	r0, [r3, #3080]	; 0xc08
 8000c06:	f480 4080 	eor.w	r0, r0, #16384	; 0x4000
 8000c0a:	f3c0 3080 	ubfx	r0, r0, #14, #1
 8000c0e:	4770      	bx	lr
 8000c10:	40010000 	andmi	r0, r1, r0

08000c14 <is_config_mode()>:
 8000c14:	b510      	push	{r4, lr}
 8000c16:	4c09      	ldr	r4, [pc, #36]	; (8000c3c <is_config_mode()+0x28>)
 8000c18:	f240 6002 	movw	r0, #1538	; 0x602
 8000c1c:	f007 feae 	bl	800897c <rcu_periph_clock_enable>
 8000c20:	2340      	movs	r3, #64	; 0x40
 8000c22:	2203      	movs	r2, #3
 8000c24:	4620      	mov	r0, r4
 8000c26:	2148      	movs	r1, #72	; 0x48
 8000c28:	f007 fe1a 	bl	8008860 <gpio_init>
 8000c2c:	2140      	movs	r1, #64	; 0x40
 8000c2e:	4620      	mov	r0, r4
 8000c30:	f007 fe65 	bl	80088fe <gpio_input_bit_get>
 8000c34:	fab0 f080 	clz	r0, r0
 8000c38:	0940      	lsrs	r0, r0, #5
 8000c3a:	bd10      	pop	{r4, pc}
 8000c3c:	40010800 	andmi	r0, r1, r0, lsl #16

08000c40 <Hardware::RebootHandler()>:
 8000c40:	4b01      	ldr	r3, [pc, #4]	; (8000c48 <Hardware::RebootHandler()+0x8>)
 8000c42:	6818      	ldr	r0, [r3, #0]
 8000c44:	f006 b81c 	b.w	8006c80 <WS28xx::Blackout()>
 8000c48:	20001628 	andcs	r1, r0, r8, lsr #12

08000c4c <main>:
 8000c4c:	e92d 43f0 	stmdb	sp!, {r4, r5, r6, r7, r8, r9, lr}
 8000c50:	f5ad 7d39 	sub.w	sp, sp, #740	; 0x2e4
 8000c54:	a82b      	add	r0, sp, #172	; 0xac
 8000c56:	f007 f809 	bl	8007c6c <Hardware::Hardware()>
 8000c5a:	a85b      	add	r0, sp, #364	; 0x16c
 8000c5c:	f006 f8c6 	bl	8006dec <DisplayUdf::DisplayUdf()>
 8000c60:	a806      	add	r0, sp, #24
 8000c62:	f006 f9b3 	bl	8006fcc <ConfigStore::ConfigStore()>
 8000c66:	a80b      	add	r0, sp, #44	; 0x2c
 8000c68:	f006 f89c 	bl	8006da4 <Network::Network()>
 8000c6c:	4baf      	ldr	r3, [pc, #700]	; (8000f2c <main+0x2e0>)
 8000c6e:	4ab0      	ldr	r2, [pc, #704]	; (8000f30 <main+0x2e4>)
 8000c70:	49b0      	ldr	r1, [pc, #704]	; (8000f34 <main+0x2e8>)
 8000c72:	a804      	add	r0, sp, #16
 8000c74:	f006 ff8a 	bl	8007b8c <FirmwareVersion::FirmwareVersion(char const*, char const*, char const*)>
 8000c78:	f7ff ffcc 	bl	8000c14 <is_config_mode()>
 8000c7c:	4606      	mov	r6, r0
 8000c7e:	48ae      	ldr	r0, [pc, #696]	; (8000f38 <main+0x2ec>)
 8000c80:	f000 ffa6 	bl	8001bd0 <puts>
 8000c84:	49ad      	ldr	r1, [pc, #692]	; (8000f3c <main+0x2f0>)
 8000c86:	48ae      	ldr	r0, [pc, #696]	; (8000f40 <main+0x2f4>)
 8000c88:	f000 ff6a 	bl	8001b60 <printf>
 8000c8c:	24aa      	movs	r4, #170	; 0xaa
 8000c8e:	2303      	movs	r3, #3
 8000c90:	2206      	movs	r2, #6
 8000c92:	e9cd 3440 	strd	r3, r4, [sp, #256]	; 0x100
 8000c96:	2300      	movs	r3, #0
 8000c98:	e9cd 2342 	strd	r2, r3, [sp, #264]	; 0x108
 8000c9c:	f44f 037f 	mov.w	r3, #16711680	; 0xff0000
 8000ca0:	9344      	str	r3, [sp, #272]	; 0x110
 8000ca2:	f44f 7380 	mov.w	r3, #256	; 0x100
 8000ca6:	2501      	movs	r5, #1
 8000ca8:	f8ad 3114 	strh.w	r3, [sp, #276]	; 0x114
 8000cac:	a814      	add	r0, sp, #80	; 0x50
 8000cae:	4ba5      	ldr	r3, [pc, #660]	; (8000f44 <main+0x2f8>)
 8000cb0:	9346      	str	r3, [sp, #280]	; 0x118
 8000cb2:	e9cd 5547 	strd	r5, r5, [sp, #284]	; 0x11c
 8000cb6:	9449      	str	r4, [sp, #292]	; 0x124
 8000cb8:	f8ad 512c 	strh.w	r5, [sp, #300]	; 0x12c
 8000cbc:	f004 fb60 	bl	8005380 <PixelDmxParams::PixelDmxParams()>
 8000cc0:	a814      	add	r0, sp, #80	; 0x50
 8000cc2:	f004 fb80 	bl	80053c6 <PixelDmxParams::Load()>
 8000cc6:	a940      	add	r1, sp, #256	; 0x100
 8000cc8:	a814      	add	r0, sp, #80	; 0x50
 8000cca:	f004 fb85 	bl	80053d8 <PixelDmxParams::Set(PixelDmxConfiguration*)>
 8000cce:	ab0f      	add	r3, sp, #60	; 0x3c
 8000cd0:	aa07      	add	r2, sp, #28
 8000cd2:	4629      	mov	r1, r5
 8000cd4:	a840      	add	r0, sp, #256	; 0x100
 8000cd6:	f004 fae5 	bl	80052a4 <PixelDmxConfiguration::Validate(unsigned long, unsigned long&, pixeldmxconfiguration::PortInfo&)>
 8000cda:	9b4a      	ldr	r3, [sp, #296]	; 0x128
 8000cdc:	42ab      	cmp	r3, r5
 8000cde:	d908      	bls.n	8000cf2 <main+0xa6>
 8000ce0:	9a48      	ldr	r2, [sp, #288]	; 0x120
 8000ce2:	9b07      	ldr	r3, [sp, #28]
 8000ce4:	0251      	lsls	r1, r2, #9
 8000ce6:	ebb3 2f42 	cmp.w	r3, r2, lsl #9
 8000cea:	bf98      	it	ls
 8000cec:	fbb1 f4f3 	udivls	r4, r1, r3
 8000cf0:	9441      	str	r4, [sp, #260]	; 0x104
 8000cf2:	a940      	add	r1, sp, #256	; 0x100
 8000cf4:	a870      	add	r0, sp, #448	; 0x1c0
 8000cf6:	f005 f883 	bl	8005e00 <WS28xxDmx::WS28xxDmx(PixelDmxConfiguration&)>
 8000cfa:	f89d 4060 	ldrb.w	r4, [sp, #96]	; 0x60
 8000cfe:	2101      	movs	r1, #1
 8000d00:	a805      	add	r0, sp, #20
 8000d02:	f005 fab7 	bl	8006274 <PixelPatterns::PixelPatterns(unsigned long)>
 8000d06:	4b90      	ldr	r3, [pc, #576]	; (8000f48 <main+0x2fc>)
 8000d08:	2c05      	cmp	r4, #5
 8000d0a:	601c      	str	r4, [r3, #0]
 8000d0c:	f340 81bd 	ble.w	800108a <main+0x43e>
 8000d10:	a808      	add	r0, sp, #32
 8000d12:	f004 fbbd 	bl	8005490 <PixelDmxParamsRdm::PixelDmxParamsRdm()>
 8000d16:	9840      	ldr	r0, [sp, #256]	; 0x100
 8000d18:	f005 fa28 	bl	800616c <PixelType::GetType(pixel::Type)>
 8000d1c:	4605      	mov	r5, r0
 8000d1e:	9842      	ldr	r0, [sp, #264]	; 0x108
 8000d20:	9f41      	ldr	r7, [sp, #260]	; 0x104
 8000d22:	f8dd 8120 	ldr.w	r8, [sp, #288]	; 0x120
 8000d26:	f005 fa2d 	bl	8006184 <PixelType::GetMap(pixel::Map)>
 8000d2a:	462b      	mov	r3, r5
 8000d2c:	4a87      	ldr	r2, [pc, #540]	; (8000f4c <main+0x300>)
 8000d2e:	9700      	str	r7, [sp, #0]
 8000d30:	211f      	movs	r1, #31
 8000d32:	e9cd 8001 	strd	r8, r0, [sp, #4]
 8000d36:	a81a      	add	r0, sp, #104	; 0x68
 8000d38:	f000 ff22 	bl	8001b80 <snprintf>
 8000d3c:	202c      	movs	r0, #44	; 0x2c
 8000d3e:	f007 f97e 	bl	800803e <operator new(unsigned int)>
 8000d42:	aa70      	add	r2, sp, #448	; 0x1c0
 8000d44:	a91a      	add	r1, sp, #104	; 0x68
 8000d46:	4605      	mov	r5, r0
 8000d48:	f7ff fec0 	bl	8000acc <RDMPersonality::RDMPersonality(char const*, LightSet*)>
 8000d4c:	202c      	movs	r0, #44	; 0x2c
 8000d4e:	9509      	str	r5, [sp, #36]	; 0x24
 8000d50:	f007 f975 	bl	800803e <operator new(unsigned int)>
 8000d54:	497e      	ldr	r1, [pc, #504]	; (8000f50 <main+0x304>)
 8000d56:	aa08      	add	r2, sp, #32
 8000d58:	4605      	mov	r5, r0
 8000d5a:	f7ff feb7 	bl	8000acc <RDMPersonality::RDMPersonality(char const*, LightSet*)>
 8000d5e:	9b09      	ldr	r3, [sp, #36]	; 0x24
 8000d60:	950a      	str	r5, [sp, #40]	; 0x28
 8000d62:	a8ae      	add	r0, sp, #696	; 0x2b8
 8000d64:	685f      	ldr	r7, [r3, #4]
 8000d66:	ad86      	add	r5, sp, #536	; 0x218
 8000d68:	f003 fec4 	bl	8004af4 <Dmx::Dmx()>
 8000d6c:	4b79      	ldr	r3, [pc, #484]	; (8000f54 <main+0x308>)
 8000d6e:	2202      	movs	r2, #2
 8000d70:	a909      	add	r1, sp, #36	; 0x24
 8000d72:	4628      	mov	r0, r5
 8000d74:	601f      	str	r7, [r3, #0]
 8000d76:	f001 ffa3 	bl	8002cc0 <RDMDeviceResponder::RDMDeviceResponder(RDMPersonality**, unsigned long)>
 8000d7a:	2101      	movs	r1, #1
 8000d7c:	a8b5      	add	r0, sp, #724	; 0x2d4
 8000d7e:	f002 fa4b 	bl	8003218 <RDMHandler::RDMHandler(bool)>
 8000d82:	4b75      	ldr	r3, [pc, #468]	; (8000f58 <main+0x30c>)
 8000d84:	9386      	str	r3, [sp, #536]	; 0x218
 8000d86:	4b75      	ldr	r3, [pc, #468]	; (8000f5c <main+0x310>)
 8000d88:	a84c      	add	r0, sp, #304	; 0x130
 8000d8a:	601d      	str	r5, [r3, #0]
 8000d8c:	4b74      	ldr	r3, [pc, #464]	; (8000f60 <main+0x314>)
 8000d8e:	9397      	str	r3, [sp, #604]	; 0x25c
 8000d90:	f001 f8ac 	bl	8001eec <RDMSensorsParams::RDMSensorsParams()>
 8000d94:	a84c      	add	r0, sp, #304	; 0x130
 8000d96:	f001 f8b1 	bl	8001efc <RDMSensorsParams::Load()>
 8000d9a:	a84c      	add	r0, sp, #304	; 0x130
 8000d9c:	f001 f8de 	bl	8001f5c <RDMSensorsParams::Set()>
 8000da0:	4628      	mov	r0, r5
 8000da2:	f001 ffdb 	bl	8002d5c <RDMDeviceResponder::Init()>
 8000da6:	a835      	add	r0, sp, #212	; 0xd4
 8000da8:	f001 fec6 	bl	8002b38 <RDMDeviceParams::RDMDeviceParams()>
 8000dac:	a835      	add	r0, sp, #212	; 0xd4
 8000dae:	f001 fed6 	bl	8002b5e <RDMDeviceParams::Load()>
 8000db2:	a987      	add	r1, sp, #540	; 0x21c
 8000db4:	a835      	add	r0, sp, #212	; 0xd4
 8000db6:	f001 fed7 	bl	8002b68 <RDMDeviceParams::Set(RDMDevice*)>
 8000dba:	2301      	movs	r3, #1
 8000dbc:	461a      	mov	r2, r3
 8000dbe:	2100      	movs	r1, #0
 8000dc0:	a8ae      	add	r0, sp, #696	; 0x2b8
 8000dc2:	f003 fff9 	bl	8004db8 <Dmx::SetPortDirection(unsigned long, dmx::PortDirection, bool)>
 8000dc6:	2e00      	cmp	r6, #0
 8000dc8:	f040 8135 	bne.w	8001036 <main+0x3ea>
 8000dcc:	1e23      	subs	r3, r4, #0
 8000dce:	bf18      	it	ne
 8000dd0:	2301      	movne	r3, #1
 8000dd2:	4f64      	ldr	r7, [pc, #400]	; (8000f64 <main+0x318>)
 8000dd4:	4628      	mov	r0, r5
 8000dd6:	703b      	strb	r3, [r7, #0]
 8000dd8:	f002 f868 	bl	8002eac <RDMDeviceResponder::Print()>
 8000ddc:	7839      	ldrb	r1, [r7, #0]
 8000dde:	4a62      	ldr	r2, [pc, #392]	; (8000f68 <main+0x31c>)
 8000de0:	4b62      	ldr	r3, [pc, #392]	; (8000f6c <main+0x320>)
 8000de2:	4863      	ldr	r0, [pc, #396]	; (8000f70 <main+0x324>)
 8000de4:	2900      	cmp	r1, #0
 8000de6:	bf0c      	ite	eq
 8000de8:	4611      	moveq	r1, r2
 8000dea:	4619      	movne	r1, r3
 8000dec:	f000 feb8 	bl	8001b60 <printf>
 8000df0:	2e00      	cmp	r6, #0
 8000df2:	f000 8122 	beq.w	800103a <main+0x3ee>
 8000df6:	4856      	ldr	r0, [pc, #344]	; (8000f50 <main+0x304>)
 8000df8:	f000 feea 	bl	8001bd0 <puts>
 8000dfc:	495d      	ldr	r1, [pc, #372]	; (8000f74 <main+0x328>)
 8000dfe:	a85b      	add	r0, sp, #364	; 0x16c
 8000e00:	f006 f806 	bl	8006e10 <DisplayUdf::SetTitle(char const*, ...)>
 8000e04:	2203      	movs	r2, #3
 8000e06:	2102      	movs	r1, #2
 8000e08:	a85b      	add	r0, sp, #364	; 0x16c
 8000e0a:	f006 f815 	bl	8006e38 <DisplayUdf::Set(unsigned long, displayudf::Labels)>
 8000e0e:	220d      	movs	r2, #13
 8000e10:	2106      	movs	r1, #6
 8000e12:	a85b      	add	r0, sp, #364	; 0x16c
 8000e14:	f006 f810 	bl	8006e38 <DisplayUdf::Set(unsigned long, displayudf::Labels)>
 8000e18:	a822      	add	r0, sp, #136	; 0x88
 8000e1a:	f006 f885 	bl	8006f28 <DisplayUdfParams::DisplayUdfParams()>
 8000e1e:	a822      	add	r0, sp, #136	; 0x88
 8000e20:	f006 f890 	bl	8006f44 <DisplayUdfParams::Load()>
 8000e24:	a95b      	add	r1, sp, #364	; 0x16c
 8000e26:	a822      	add	r0, sp, #136	; 0x88
 8000e28:	f006 f895 	bl	8006f56 <DisplayUdfParams::Set(DisplayUdf*)>
 8000e2c:	a85b      	add	r0, sp, #364	; 0x16c
 8000e2e:	f006 f81d 	bl	8006e6c <DisplayUdf::Show()>
 8000e32:	9840      	ldr	r0, [sp, #256]	; 0x100
 8000e34:	f005 f99a 	bl	800616c <PixelType::GetType(pixel::Type)>
 8000e38:	4607      	mov	r7, r0
 8000e3a:	9842      	ldr	r0, [sp, #264]	; 0x108
 8000e3c:	f8dd 8104 	ldr.w	r8, [sp, #260]	; 0x104
 8000e40:	f8dd 9120 	ldr.w	r9, [sp, #288]	; 0x120
 8000e44:	f005 f99e 	bl	8006184 <PixelType::GetMap(pixel::Map)>
 8000e48:	4a4b      	ldr	r2, [pc, #300]	; (8000f78 <main+0x32c>)
 8000e4a:	f8cd 8000 	str.w	r8, [sp]
 8000e4e:	e9cd 9001 	strd	r9, r0, [sp, #4]
 8000e52:	463b      	mov	r3, r7
 8000e54:	2107      	movs	r1, #7
 8000e56:	a85b      	add	r0, sp, #364	; 0x16c
 8000e58:	f7ff fe0b 	bl	8000a72 <Display::Printf(unsigned long, char const*, ...)>
 8000e5c:	2e00      	cmp	r6, #0
 8000e5e:	f000 80fb 	beq.w	8001058 <main+0x40c>
 8000e62:	9862      	ldr	r0, [sp, #392]	; 0x188
 8000e64:	2103      	movs	r1, #3
 8000e66:	f7ff fdff 	bl	8000a68 <Display::ClearLine(unsigned long) [clone .isra.0]>
 8000e6a:	9862      	ldr	r0, [sp, #392]	; 0x188
 8000e6c:	2104      	movs	r1, #4
 8000e6e:	f7ff fdfb 	bl	8000a68 <Display::ClearLine(unsigned long) [clone .isra.0]>
 8000e72:	9862      	ldr	r0, [sp, #392]	; 0x188
 8000e74:	b170      	cbz	r0, 8000e94 <main+0x248>
 8000e76:	6844      	ldr	r4, [r0, #4]
 8000e78:	4940      	ldr	r1, [pc, #256]	; (8000f7c <main+0x330>)
 8000e7a:	2300      	movs	r3, #0
 8000e7c:	f811 2b01 	ldrb.w	r2, [r1], #1
 8000e80:	b11a      	cbz	r2, 8000e8a <main+0x23e>
 8000e82:	1c5a      	adds	r2, r3, #1
 8000e84:	429c      	cmp	r4, r3
 8000e86:	4613      	mov	r3, r2
 8000e88:	d8f8      	bhi.n	8000e7c <main+0x230>
 8000e8a:	6802      	ldr	r2, [r0, #0]
 8000e8c:	2104      	movs	r1, #4
 8000e8e:	69d4      	ldr	r4, [r2, #28]
 8000e90:	4a3a      	ldr	r2, [pc, #232]	; (8000f7c <main+0x330>)
 8000e92:	47a0      	blx	r4
 8000e94:	9862      	ldr	r0, [sp, #392]	; 0x188
 8000e96:	2105      	movs	r1, #5
 8000e98:	f7ff fde6 	bl	8000a68 <Display::ClearLine(unsigned long) [clone .isra.0]>
 8000e9c:	2102      	movs	r1, #2
 8000e9e:	a82b      	add	r0, sp, #172	; 0xac
 8000ea0:	f006 feae 	bl	8007c00 <Hardware::SetMode(hardware::ledblink::Mode)>
 8000ea4:	2102      	movs	r1, #2
 8000ea6:	f64f 70ff 	movw	r0, #65535	; 0xffff
 8000eaa:	f007 fcaf 	bl	800880c <fwdgt_config>
 8000eae:	2801      	cmp	r0, #1
 8000eb0:	bf0c      	ite	eq
 8000eb2:	2301      	moveq	r3, #1
 8000eb4:	2300      	movne	r3, #0
 8000eb6:	f88d 30bc 	strb.w	r3, [sp, #188]	; 0xbc
 8000eba:	d101      	bne.n	8000ec0 <main+0x274>
 8000ebc:	f007 fc96 	bl	80087ec <fwdgt_enable>
 8000ec0:	4f21      	ldr	r7, [pc, #132]	; (8000f48 <main+0x2fc>)
 8000ec2:	4c2f      	ldr	r4, [pc, #188]	; (8000f80 <main+0x334>)
 8000ec4:	4e2f      	ldr	r6, [pc, #188]	; (8000f84 <main+0x338>)
 8000ec6:	f007 fc99 	bl	80087fc <fwdgt_counter_reload>
 8000eca:	4628      	mov	r0, r5
 8000ecc:	f003 fb1c 	bl	8004508 <RDMResponder::Run()>
 8000ed0:	a806      	add	r0, sp, #24
 8000ed2:	f006 f957 	bl	8007184 <ConfigStore::Flash()>
 8000ed6:	683b      	ldr	r3, [r7, #0]
 8000ed8:	b113      	cbz	r3, 8000ee0 <main+0x294>
 8000eda:	a805      	add	r0, sp, #20
 8000edc:	f005 fbf0 	bl	80066c0 <PixelPatterns::Run()>
 8000ee0:	9a60      	ldr	r2, [sp, #384]	; 0x180
 8000ee2:	b16a      	cbz	r2, 8000f00 <main+0x2b4>
 8000ee4:	f89d 317c 	ldrb.w	r3, [sp, #380]	; 0x17c
 8000ee8:	2b00      	cmp	r3, #0
 8000eea:	f040 80c7 	bne.w	800107c <main+0x430>
 8000eee:	6823      	ldr	r3, [r4, #0]
 8000ef0:	995c      	ldr	r1, [sp, #368]	; 0x170
 8000ef2:	1a5b      	subs	r3, r3, r1
 8000ef4:	429a      	cmp	r2, r3
 8000ef6:	d203      	bcs.n	8000f00 <main+0x2b4>
 8000ef8:	2101      	movs	r1, #1
 8000efa:	a85b      	add	r0, sp, #364	; 0x16c
 8000efc:	f7ff fdd6 	bl	8000aac <Display::SetSleep(bool)>
 8000f00:	9a32      	ldr	r2, [sp, #200]	; 0xc8
 8000f02:	2a00      	cmp	r2, #0
 8000f04:	d0df      	beq.n	8000ec6 <main+0x27a>
 8000f06:	6823      	ldr	r3, [r4, #0]
 8000f08:	9934      	ldr	r1, [sp, #208]	; 0xd0
 8000f0a:	1a5b      	subs	r3, r3, r1
 8000f0c:	429a      	cmp	r2, r3
 8000f0e:	d8da      	bhi.n	8000ec6 <main+0x27a>
 8000f10:	6823      	ldr	r3, [r4, #0]
 8000f12:	9334      	str	r3, [sp, #208]	; 0xd0
 8000f14:	9b33      	ldr	r3, [sp, #204]	; 0xcc
 8000f16:	2b01      	cmp	r3, #1
 8000f18:	f083 0201 	eor.w	r2, r3, #1
 8000f1c:	bf18      	it	ne
 8000f1e:	2301      	movne	r3, #1
 8000f20:	9233      	str	r2, [sp, #204]	; 0xcc
 8000f22:	bf14      	ite	ne
 8000f24:	6133      	strne	r3, [r6, #16]
 8000f26:	6173      	streq	r3, [r6, #20]
 8000f28:	e7cd      	b.n	8000ec6 <main+0x27a>
 8000f2a:	bf00      	nop
 8000f2c:	08009cb2 	stmdaeq	r0, {r1, r4, r5, r7, sl, fp, ip, pc}
 8000f30:	08009cbb 	stmdaeq	r0, {r0, r1, r3, r4, r5, r7, sl, fp, ip, pc}
 8000f34:	08009d70 	stmdaeq	r0, {r4, r5, r6, r8, sl, fp, ip, pc}
 8000f38:	20002700 	andcs	r2, r0, r0, lsl #14
 8000f3c:	08009cc7 	stmdaeq	r0, {r0, r1, r2, r6, r7, sl, fp, ip, pc}
 8000f40:	08009cd5 	stmdaeq	r0, {r0, r2, r4, r6, r7, sl, fp, ip, pc}
 8000f44:	08009d74 	stmdaeq	r0, {r2, r4, r5, r6, r8, sl, fp, ip, pc}
 8000f48:	20001624 	andcs	r1, r0, r4, lsr #12
 8000f4c:	08009ce2 	stmdaeq	r0, {r1, r5, r6, r7, sl, fp, ip, pc}
 8000f50:	08009cf1 	stmdaeq	r0, {r0, r4, r5, r6, r7, sl, fp, ip, pc}
 8000f54:	20001084 	andcs	r1, r0, r4, lsl #1
 8000f58:	08009d60 	stmdaeq	r0, {r5, r6, r8, sl, fp, ip, pc}
 8000f5c:	200011a0 	andcs	r1, r0, r0, lsr #3
 8000f60:	00040100 	andeq	r0, r4, r0, lsl #2
 8000f64:	20001080 	andcs	r1, r0, r0, lsl #1
 8000f68:	08009caa 	stmdaeq	r0, {r1, r3, r5, r7, sl, fp, ip, pc}
 8000f6c:	08009ca1 	stmdaeq	r0, {r0, r5, r7, sl, fp, ip, pc}
 8000f70:	08009cfd 	stmdaeq	r0, {r0, r2, r3, r4, r5, r6, r7, sl, fp, ip, pc}
 8000f74:	08009d21 	stmdaeq	r0, {r0, r5, r8, sl, fp, ip, pc}
 8000f78:	08009d37 	stmdaeq	r0, {r0, r1, r2, r4, r5, r8, sl, fp, ip, pc}
 8000f7c:	08009d44 	stmdaeq	r0, {r2, r6, r8, sl, fp, ip, pc}
 8000f80:	20008794 	mulcs	r0, r4, r7
 8000f84:	40011000 	andmi	r1, r1, r0
 8000f88:	2300      	movs	r3, #0
 8000f8a:	2264      	movs	r2, #100	; 0x64
 8000f8c:	4619      	mov	r1, r3
 8000f8e:	a805      	add	r0, sp, #20
 8000f90:	f005 f99c 	bl	80062cc <PixelPatterns::RainbowCycle(unsigned long, unsigned long, pixelpatterns::Direction)>
 8000f94:	e6bc      	b.n	8000d10 <main+0xc4>
 8000f96:	2200      	movs	r2, #0
 8000f98:	2364      	movs	r3, #100	; 0x64
 8000f9a:	e9cd 3200 	strd	r3, r2, [sp]
 8000f9e:	4611      	mov	r1, r2
 8000fa0:	4b42      	ldr	r3, [pc, #264]	; (80010ac <main+0x460>)
 8000fa2:	a805      	add	r0, sp, #20
 8000fa4:	f005 f9a6 	bl	80062f4 <PixelPatterns::TheaterChase(unsigned long, unsigned long, unsigned long, unsigned long, pixelpatterns::Direction)>
 8000fa8:	e6b2      	b.n	8000d10 <main+0xc4>
 8000faa:	2100      	movs	r1, #0
 8000fac:	4a3f      	ldr	r2, [pc, #252]	; (80010ac <main+0x460>)
 8000fae:	9100      	str	r1, [sp, #0]
 8000fb0:	2364      	movs	r3, #100	; 0x64
 8000fb2:	a805      	add	r0, sp, #20
 8000fb4:	f005 f9ba 	bl	800632c <PixelPatterns::ColourWipe(unsigned long, unsigned long, unsigned long, pixelpatterns::Direction)>
 8000fb8:	e6aa      	b.n	8000d10 <main+0xc4>
 8000fba:	2364      	movs	r3, #100	; 0x64
 8000fbc:	f06f 427f 	mvn.w	r2, #4278190080	; 0xff000000
 8000fc0:	2100      	movs	r1, #0
 8000fc2:	a805      	add	r0, sp, #20
 8000fc4:	f005 f9cc 	bl	8006360 <PixelPatterns::Scanner(unsigned long, unsigned long, unsigned long)>
 8000fc8:	e6a2      	b.n	8000d10 <main+0xc4>
 8000fca:	2200      	movs	r2, #0
 8000fcc:	2364      	movs	r3, #100	; 0x64
 8000fce:	e9cd 3201 	strd	r3, r2, [sp, #4]
 8000fd2:	230a      	movs	r3, #10
 8000fd4:	9300      	str	r3, [sp, #0]
 8000fd6:	4611      	mov	r1, r2
 8000fd8:	4b34      	ldr	r3, [pc, #208]	; (80010ac <main+0x460>)
 8000fda:	a805      	add	r0, sp, #20
 8000fdc:	f005 f9f2 	bl	80063c4 <PixelPatterns::Fade(unsigned long, unsigned long, unsigned long, unsigned long, unsigned long, pixelpatterns::Direction)>
 8000fe0:	e696      	b.n	8000d10 <main+0xc4>
 8000fe2:	4b33      	ldr	r3, [pc, #204]	; (80010b0 <main+0x464>)
 8000fe4:	f8df 80d8 	ldr.w	r8, [pc, #216]	; 80010c0 <main+0x474>
 8000fe8:	f8df 90c8 	ldr.w	r9, [pc, #200]	; 80010b4 <main+0x468>
 8000fec:	2500      	movs	r5, #0
 8000fee:	61dd      	str	r5, [r3, #28]
 8000ff0:	462f      	mov	r7, r5
 8000ff2:	f8d8 3000 	ldr.w	r3, [r8]
 8000ff6:	429d      	cmp	r5, r3
 8000ff8:	d308      	bcc.n	800100c <main+0x3c0>
 8000ffa:	f008 faa5 	bl	8009548 <gd32_spi_dma_tx_is_active()>
 8000ffe:	2800      	cmp	r0, #0
 8001000:	d1fb      	bne.n	8000ffa <main+0x3ae>
 8001002:	4b2c      	ldr	r3, [pc, #176]	; (80010b4 <main+0x468>)
 8001004:	6818      	ldr	r0, [r3, #0]
 8001006:	f005 fe1f 	bl	8006c48 <WS28xx::Update()>
 800100a:	e681      	b.n	8000d10 <main+0xc4>
 800100c:	f8d9 0000 	ldr.w	r0, [r9]
 8001010:	6803      	ldr	r3, [r0, #0]
 8001012:	2b07      	cmp	r3, #7
 8001014:	d007      	beq.n	8001026 <main+0x3da>
 8001016:	2300      	movs	r3, #0
 8001018:	9700      	str	r7, [sp, #0]
 800101a:	461a      	mov	r2, r3
 800101c:	4629      	mov	r1, r5
 800101e:	f005 fb77 	bl	8006710 <WS28xx::SetPixel(unsigned long, unsigned char, unsigned char, unsigned char)>
 8001022:	3501      	adds	r5, #1
 8001024:	e7e5      	b.n	8000ff2 <main+0x3a6>
 8001026:	2300      	movs	r3, #0
 8001028:	e9cd 7700 	strd	r7, r7, [sp]
 800102c:	461a      	mov	r2, r3
 800102e:	4629      	mov	r1, r5
 8001030:	f005 fc90 	bl	8006954 <WS28xx::SetPixel(unsigned long, unsigned char, unsigned char, unsigned char, unsigned char)>
 8001034:	e7f5      	b.n	8001022 <main+0x3d6>
 8001036:	2300      	movs	r3, #0
 8001038:	e6cb      	b.n	8000dd2 <main+0x186>
 800103a:	a871      	add	r0, sp, #452	; 0x1c4
 800103c:	f004 f976 	bl	800532c <PixelDmxConfiguration::Print()>
 8001040:	2c00      	cmp	r4, #0
 8001042:	f43f aedb 	beq.w	8000dfc <main+0x1b0>
 8001046:	4620      	mov	r0, r4
 8001048:	f005 f934 	bl	80062b4 <PixelPatterns::GetName(pixelpatterns::Pattern)>
 800104c:	4622      	mov	r2, r4
 800104e:	4601      	mov	r1, r0
 8001050:	4819      	ldr	r0, [pc, #100]	; (80010b8 <main+0x46c>)
 8001052:	f000 fd85 	bl	8001b60 <printf>
 8001056:	e6d1      	b.n	8000dfc <main+0x1b0>
 8001058:	2c00      	cmp	r4, #0
 800105a:	f43f af1f 	beq.w	8000e9c <main+0x250>
 800105e:	9862      	ldr	r0, [sp, #392]	; 0x188
 8001060:	2106      	movs	r1, #6
 8001062:	f7ff fd01 	bl	8000a68 <Display::ClearLine(unsigned long) [clone .isra.0]>
 8001066:	4620      	mov	r0, r4
 8001068:	f005 f924 	bl	80062b4 <PixelPatterns::GetName(pixelpatterns::Pattern)>
 800106c:	4a13      	ldr	r2, [pc, #76]	; (80010bc <main+0x470>)
 800106e:	9400      	str	r4, [sp, #0]
 8001070:	4603      	mov	r3, r0
 8001072:	2106      	movs	r1, #6
 8001074:	a85b      	add	r0, sp, #364	; 0x16c
 8001076:	f7ff fcfc 	bl	8000a72 <Display::Printf(unsigned long, char const*, ...)>
 800107a:	e70f      	b.n	8000e9c <main+0x250>
 800107c:	f7ff fdc0 	bl	8000c00 <display::timeout::gpio_renew()>
 8001080:	2800      	cmp	r0, #0
 8001082:	f43f af3d 	beq.w	8000f00 <main+0x2b4>
 8001086:	2100      	movs	r1, #0
 8001088:	e737      	b.n	8000efa <main+0x2ae>
 800108a:	1e63      	subs	r3, r4, #1
 800108c:	2b04      	cmp	r3, #4
 800108e:	d8a8      	bhi.n	8000fe2 <main+0x396>
 8001090:	a201      	add	r2, pc, #4	; (adr r2, 8001098 <main+0x44c>)
 8001092:	f852 f023 	ldr.w	pc, [r2, r3, lsl #2]
 8001096:	bf00      	nop
 8001098:	08000f89 	stmdaeq	r0, {r0, r3, r7, r8, r9, sl, fp}
 800109c:	08000f97 	stmdaeq	r0, {r0, r1, r2, r4, r7, r8, r9, sl, fp}
 80010a0:	08000fab 	stmdaeq	r0, {r0, r1, r3, r5, r7, r8, r9, sl, fp}
 80010a4:	08000fbb 	stmdaeq	r0, {r0, r1, r3, r4, r5, r7, r8, r9, sl, fp}
 80010a8:	08000fcb 	stmdaeq	r0, {r0, r1, r3, r6, r7, r8, r9, sl, fp}
 80010ac:	00646464 	rsbeq	r6, r4, r4, ror #8
 80010b0:	200015f4 	strdcs	r1, [r0], -r4
 80010b4:	2000161c 	andcs	r1, r0, ip, lsl r6
 80010b8:	08009d09 	stmdaeq	r0, {r0, r3, r8, sl, fp, ip, pc}
 80010bc:	08009d50 	stmdaeq	r0, {r4, r6, r8, sl, fp, ip, pc}
 80010c0:	20001614 	andcs	r1, r0, r4, lsl r6

080010c4 <Display::ClearLine(unsigned long) [clone .isra.0]>:
 80010c4:	b110      	cbz	r0, 80010cc <Display::ClearLine(unsigned long) [clone .isra.0]+0x8>
 80010c6:	6803      	ldr	r3, [r0, #0]
 80010c8:	691b      	ldr	r3, [r3, #16]
 80010ca:	4718      	bx	r3
 80010cc:	4770      	bx	lr

080010ce <Display::TextStatus(char const*)>:
 80010ce:	e92d 47f0 	stmdb	sp!, {r4, r5, r6, r7, r8, r9, sl, lr}
 80010d2:	4604      	mov	r4, r0
 80010d4:	69c0      	ldr	r0, [r0, #28]
 80010d6:	460d      	mov	r5, r1
 80010d8:	b368      	cbz	r0, 8001136 <Display::TextStatus(char const*)+0x68>
 80010da:	e9d0 8701 	ldrd	r8, r7, [r0, #4]
 80010de:	6803      	ldr	r3, [r0, #0]
 80010e0:	f107 39ff 	add.w	r9, r7, #4294967295	; 0xffffffff
 80010e4:	6a1b      	ldr	r3, [r3, #32]
 80010e6:	464a      	mov	r2, r9
 80010e8:	2100      	movs	r1, #0
 80010ea:	4798      	blx	r3
 80010ec:	2600      	movs	r6, #0
 80010ee:	f108 38ff 	add.w	r8, r8, #4294967295	; 0xffffffff
 80010f2:	45b0      	cmp	r8, r6
 80010f4:	69e0      	ldr	r0, [r4, #28]
 80010f6:	d817      	bhi.n	8001128 <Display::TextStatus(char const*)+0x5a>
 80010f8:	b120      	cbz	r0, 8001104 <Display::TextStatus(char const*)+0x36>
 80010fa:	6803      	ldr	r3, [r0, #0]
 80010fc:	464a      	mov	r2, r9
 80010fe:	6a1b      	ldr	r3, [r3, #32]
 8001100:	2100      	movs	r1, #0
 8001102:	4798      	blx	r3
 8001104:	69e0      	ldr	r0, [r4, #28]
 8001106:	b1b0      	cbz	r0, 8001136 <Display::TextStatus(char const*)+0x68>
 8001108:	6841      	ldr	r1, [r0, #4]
 800110a:	2300      	movs	r3, #0
 800110c:	5cea      	ldrb	r2, [r5, r3]
 800110e:	b11a      	cbz	r2, 8001118 <Display::TextStatus(char const*)+0x4a>
 8001110:	1c5a      	adds	r2, r3, #1
 8001112:	4299      	cmp	r1, r3
 8001114:	4613      	mov	r3, r2
 8001116:	d8f9      	bhi.n	800110c <Display::TextStatus(char const*)+0x3e>
 8001118:	6802      	ldr	r2, [r0, #0]
 800111a:	69d4      	ldr	r4, [r2, #28]
 800111c:	4639      	mov	r1, r7
 800111e:	462a      	mov	r2, r5
 8001120:	46a4      	mov	ip, r4
 8001122:	e8bd 47f0 	ldmia.w	sp!, {r4, r5, r6, r7, r8, r9, sl, lr}
 8001126:	4760      	bx	ip
 8001128:	b118      	cbz	r0, 8001132 <Display::TextStatus(char const*)+0x64>
 800112a:	6803      	ldr	r3, [r0, #0]
 800112c:	2120      	movs	r1, #32
 800112e:	695b      	ldr	r3, [r3, #20]
 8001130:	4798      	blx	r3
 8001132:	3601      	adds	r6, #1
 8001134:	e7dd      	b.n	80010f2 <Display::TextStatus(char const*)+0x24>
 8001136:	e8bd 87f0 	ldmia.w	sp!, {r4, r5, r6, r7, r8, r9, sl, pc}
	...

0800113c <PixelDmxParamsRdm::Display(unsigned char const*)>:
 800113c:	e92d 43f0 	stmdb	sp!, {r4, r5, r6, r7, r8, r9, lr}
 8001140:	4d20      	ldr	r5, [pc, #128]	; (80011c4 <PixelDmxParamsRdm::Display(unsigned char const*)+0x88>)
 8001142:	7908      	ldrb	r0, [r1, #4]
 8001144:	682e      	ldr	r6, [r5, #0]
 8001146:	b085      	sub	sp, #20
 8001148:	460c      	mov	r4, r1
 800114a:	bb40      	cbnz	r0, 800119e <PixelDmxParamsRdm::Display(unsigned char const*)+0x62>
 800114c:	69f0      	ldr	r0, [r6, #28]
 800114e:	2106      	movs	r1, #6
 8001150:	f7ff ffb8 	bl	80010c4 <Display::ClearLine(unsigned long) [clone .isra.0]>
 8001154:	7820      	ldrb	r0, [r4, #0]
 8001156:	682f      	ldr	r7, [r5, #0]
 8001158:	f005 f808 	bl	800616c <PixelType::GetType(pixel::Type)>
 800115c:	4606      	mov	r6, r0
 800115e:	78e0      	ldrb	r0, [r4, #3]
 8001160:	f894 8001 	ldrb.w	r8, [r4, #1]
 8001164:	f894 9002 	ldrb.w	r9, [r4, #2]
 8001168:	f005 f80c 	bl	8006184 <PixelType::GetMap(pixel::Map)>
 800116c:	4633      	mov	r3, r6
 800116e:	e9cd 9001 	strd	r9, r0, [sp, #4]
 8001172:	4a15      	ldr	r2, [pc, #84]	; (80011c8 <PixelDmxParamsRdm::Display(unsigned char const*)+0x8c>)
 8001174:	f8cd 8000 	str.w	r8, [sp]
 8001178:	2107      	movs	r1, #7
 800117a:	4638      	mov	r0, r7
 800117c:	f7ff fc79 	bl	8000a72 <Display::Printf(unsigned long, char const*, ...)>
 8001180:	7963      	ldrb	r3, [r4, #5]
 8001182:	2bff      	cmp	r3, #255	; 0xff
 8001184:	4b11      	ldr	r3, [pc, #68]	; (80011cc <PixelDmxParamsRdm::Display(unsigned char const*)+0x90>)
 8001186:	d113      	bne.n	80011b0 <PixelDmxParamsRdm::Display(unsigned char const*)+0x74>
 8001188:	781a      	ldrb	r2, [r3, #0]
 800118a:	b92a      	cbnz	r2, 8001198 <PixelDmxParamsRdm::Display(unsigned char const*)+0x5c>
 800118c:	2201      	movs	r2, #1
 800118e:	4910      	ldr	r1, [pc, #64]	; (80011d0 <PixelDmxParamsRdm::Display(unsigned char const*)+0x94>)
 8001190:	6828      	ldr	r0, [r5, #0]
 8001192:	701a      	strb	r2, [r3, #0]
 8001194:	f7ff ff9b 	bl	80010ce <Display::TextStatus(char const*)>
 8001198:	b005      	add	sp, #20
 800119a:	e8bd 83f0 	ldmia.w	sp!, {r4, r5, r6, r7, r8, r9, pc}
 800119e:	f005 f889 	bl	80062b4 <PixelPatterns::GetName(pixelpatterns::Pattern)>
 80011a2:	4a0c      	ldr	r2, [pc, #48]	; (80011d4 <PixelDmxParamsRdm::Display(unsigned char const*)+0x98>)
 80011a4:	4603      	mov	r3, r0
 80011a6:	2106      	movs	r1, #6
 80011a8:	4630      	mov	r0, r6
 80011aa:	f7ff fc62 	bl	8000a72 <Display::Printf(unsigned long, char const*, ...)>
 80011ae:	e7d1      	b.n	8001154 <PixelDmxParamsRdm::Display(unsigned char const*)+0x18>
 80011b0:	2200      	movs	r2, #0
 80011b2:	701a      	strb	r2, [r3, #0]
 80011b4:	682b      	ldr	r3, [r5, #0]
 80011b6:	69d8      	ldr	r0, [r3, #28]
 80011b8:	2108      	movs	r1, #8
 80011ba:	b005      	add	sp, #20
 80011bc:	e8bd 43f0 	ldmia.w	sp!, {r4, r5, r6, r7, r8, r9, lr}
 80011c0:	f7ff bf80 	b.w	80010c4 <Display::ClearLine(unsigned long) [clone .isra.0]>
 80011c4:	20001634 	andcs	r1, r0, r4, lsr r6
 80011c8:	08009e7a 	stmdaeq	r0, {r1, r3, r4, r5, r6, r9, sl, fp, ip, pc}
 80011cc:	20001070 	andcs	r1, r0, r0, ror r0
 80011d0:	08009e8f 	stmdaeq	r0, {r0, r1, r2, r3, r7, r9, sl, fp, ip, pc}
 80011d4:	08009e74 	stmdaeq	r0, {r2, r4, r5, r6, r9, sl, fp, ip, pc}

080011d8 <RDMResponder::DmxStartAddressUpdate(unsigned short)>:
 80011d8:	4b01      	ldr	r3, [pc, #4]	; (80011e0 <RDMResponder::DmxStartAddressUpdate(unsigned short)+0x8>)
 80011da:	6818      	ldr	r0, [r3, #0]
 80011dc:	f005 be46 	b.w	8006e6c <DisplayUdf::Show()>
 80011e0:	20001634 	andcs	r1, r0, r4, lsr r6

080011e4 <rdm::device::responder::factorydefaults()>:
 80011e4:	4b02      	ldr	r3, [pc, #8]	; (80011f0 <rdm::device::responder::factorydefaults()+0xc>)
 80011e6:	2109      	movs	r1, #9
 80011e8:	6818      	ldr	r0, [r3, #0]
 80011ea:	f005 bf5b 	b.w	80070a4 <ConfigStore::ResetSetList(configstore::Store)>
 80011ee:	bf00      	nop
 80011f0:	20001638 	andcs	r1, r0, r8, lsr r6

080011f4 <Personalities::fromPersonalityIdx(unsigned char)>:
 80011f4:	3801      	subs	r0, #1
 80011f6:	b2c0      	uxtb	r0, r0
 80011f8:	4770      	bx	lr

080011fa <Personalities::toPixelType(Personalities::Personality)>:
 80011fa:	4770      	bx	lr

080011fc <Display::ClearLine(unsigned long) [clone .isra.0]>:
 80011fc:	b110      	cbz	r0, 8001204 <Display::ClearLine(unsigned long) [clone .isra.0]+0x8>
 80011fe:	6803      	ldr	r3, [r0, #0]
 8001200:	691b      	ldr	r3, [r3, #16]
 8001202:	4718      	bx	r3
 8001204:	4770      	bx	lr
	...

08001208 <RDMResponder::PersonalityUpdate(unsigned long)>:
 8001208:	e92d 41f0 	stmdb	sp!, {r4, r5, r6, r7, r8, lr}
 800120c:	b2c8      	uxtb	r0, r1
 800120e:	b086      	sub	sp, #24
 8001210:	f7ff fff0 	bl	80011f4 <Personalities::fromPersonalityIdx(unsigned char)>
 8001214:	f7ff fff1 	bl	80011fa <Personalities::toPixelType(Personalities::Personality)>
 8001218:	2301      	movs	r3, #1
 800121a:	2200      	movs	r2, #0
 800121c:	e9cd 3201 	strd	r3, r2, [sp, #4]
 8001220:	f88d 0017 	strb.w	r0, [sp, #23]
 8001224:	481f      	ldr	r0, [pc, #124]	; (80012a4 <RDMResponder::PersonalityUpdate(unsigned long)+0x9c>)
 8001226:	4c20      	ldr	r4, [pc, #128]	; (80012a8 <RDMResponder::PersonalityUpdate(unsigned long)+0xa0>)
 8001228:	9300      	str	r3, [sp, #0]
 800122a:	2204      	movs	r2, #4
 800122c:	6800      	ldr	r0, [r0, #0]
 800122e:	4e1f      	ldr	r6, [pc, #124]	; (80012ac <RDMResponder::PersonalityUpdate(unsigned long)+0xa4>)
 8001230:	f10d 0317 	add.w	r3, sp, #23
 8001234:	2102      	movs	r1, #2
 8001236:	f005 ff47 	bl	80070c8 <ConfigStore::Update(configstore::Store, unsigned long, void const*, unsigned long, unsigned long, unsigned long)>
 800123a:	6823      	ldr	r3, [r4, #0]
 800123c:	2107      	movs	r1, #7
 800123e:	69d8      	ldr	r0, [r3, #28]
 8001240:	f7ff ffdc 	bl	80011fc <Display::ClearLine(unsigned long) [clone .isra.0]>
 8001244:	6833      	ldr	r3, [r6, #0]
 8001246:	6827      	ldr	r7, [r4, #0]
 8001248:	6858      	ldr	r0, [r3, #4]
 800124a:	f004 ff8f 	bl	800616c <PixelType::GetType(pixel::Type)>
 800124e:	6833      	ldr	r3, [r6, #0]
 8001250:	4605      	mov	r5, r0
 8001252:	68d8      	ldr	r0, [r3, #12]
 8001254:	689e      	ldr	r6, [r3, #8]
 8001256:	f8d3 8024 	ldr.w	r8, [r3, #36]	; 0x24
 800125a:	f004 ff93 	bl	8006184 <PixelType::GetMap(pixel::Map)>
 800125e:	462b      	mov	r3, r5
 8001260:	e9cd 8001 	strd	r8, r0, [sp, #4]
 8001264:	4a12      	ldr	r2, [pc, #72]	; (80012b0 <RDMResponder::PersonalityUpdate(unsigned long)+0xa8>)
 8001266:	9600      	str	r6, [sp, #0]
 8001268:	2107      	movs	r1, #7
 800126a:	4638      	mov	r0, r7
 800126c:	f7ff fc01 	bl	8000a72 <Display::Printf(unsigned long, char const*, ...)>
 8001270:	6820      	ldr	r0, [r4, #0]
 8001272:	f005 fdfb 	bl	8006e6c <DisplayUdf::Show()>
 8001276:	4b0f      	ldr	r3, [pc, #60]	; (80012b4 <RDMResponder::PersonalityUpdate(unsigned long)+0xac>)
 8001278:	681d      	ldr	r5, [r3, #0]
 800127a:	b17d      	cbz	r5, 800129c <RDMResponder::PersonalityUpdate(unsigned long)+0x94>
 800127c:	6823      	ldr	r3, [r4, #0]
 800127e:	2106      	movs	r1, #6
 8001280:	69d8      	ldr	r0, [r3, #28]
 8001282:	f7ff ffbb 	bl	80011fc <Display::ClearLine(unsigned long) [clone .isra.0]>
 8001286:	4628      	mov	r0, r5
 8001288:	6824      	ldr	r4, [r4, #0]
 800128a:	f005 f813 	bl	80062b4 <PixelPatterns::GetName(pixelpatterns::Pattern)>
 800128e:	4a0a      	ldr	r2, [pc, #40]	; (80012b8 <RDMResponder::PersonalityUpdate(unsigned long)+0xb0>)
 8001290:	9500      	str	r5, [sp, #0]
 8001292:	4603      	mov	r3, r0
 8001294:	2106      	movs	r1, #6
 8001296:	4620      	mov	r0, r4
 8001298:	f7ff fbeb 	bl	8000a72 <Display::Printf(unsigned long, char const*, ...)>
 800129c:	b006      	add	sp, #24
 800129e:	e8bd 81f0 	ldmia.w	sp!, {r4, r5, r6, r7, r8, pc}
 80012a2:	bf00      	nop
 80012a4:	20001638 	andcs	r1, r0, r8, lsr r6
 80012a8:	20001634 	andcs	r1, r0, r4, lsr r6
 80012ac:	200015ec 	andcs	r1, r0, ip, ror #11
 80012b0:	08009d37 	stmdaeq	r0, {r0, r1, r2, r4, r5, r8, sl, fp, ip, pc}
 80012b4:	20001624 	andcs	r1, r0, r4, lsr #12
 80012b8:	08009d50 	stmdaeq	r0, {r4, r6, r8, sl, fp, ip, pc}

080012bc <PixelTestPattern::SetPattern(pixelpatterns::Pattern)>:
 80012bc:	b5f0      	push	{r4, r5, r6, r7, lr}
 80012be:	2905      	cmp	r1, #5
 80012c0:	b085      	sub	sp, #20
 80012c2:	dc58      	bgt.n	8001376 <PixelTestPattern::SetPattern(pixelpatterns::Pattern)+0xba>
 80012c4:	4b2d      	ldr	r3, [pc, #180]	; (800137c <PixelTestPattern::SetPattern(pixelpatterns::Pattern)+0xc0>)
 80012c6:	6019      	str	r1, [r3, #0]
 80012c8:	2905      	cmp	r1, #5
 80012ca:	d809      	bhi.n	80012e0 <PixelTestPattern::SetPattern(pixelpatterns::Pattern)+0x24>
 80012cc:	e8df f001 	tbb	[pc, r1]
 80012d0:	140b032d 	strne	r0, [fp], #-813	; 0xfffffcd3
 80012d4:	2300221b 	movwcs	r2, #539	; 0x21b
 80012d8:	2264      	movs	r2, #100	; 0x64
 80012da:	4619      	mov	r1, r3
 80012dc:	f004 fff6 	bl	80062cc <PixelPatterns::RainbowCycle(unsigned long, unsigned long, pixelpatterns::Direction)>
 80012e0:	2001      	movs	r0, #1
 80012e2:	b005      	add	sp, #20
 80012e4:	bdf0      	pop	{r4, r5, r6, r7, pc}
 80012e6:	2200      	movs	r2, #0
 80012e8:	2364      	movs	r3, #100	; 0x64
 80012ea:	e9cd 3200 	strd	r3, r2, [sp]
 80012ee:	4611      	mov	r1, r2
 80012f0:	4b23      	ldr	r3, [pc, #140]	; (8001380 <PixelTestPattern::SetPattern(pixelpatterns::Pattern)+0xc4>)
 80012f2:	f004 ffff 	bl	80062f4 <PixelPatterns::TheaterChase(unsigned long, unsigned long, unsigned long, unsigned long, pixelpatterns::Direction)>
 80012f6:	e7f3      	b.n	80012e0 <PixelTestPattern::SetPattern(pixelpatterns::Pattern)+0x24>
 80012f8:	2100      	movs	r1, #0
 80012fa:	4a21      	ldr	r2, [pc, #132]	; (8001380 <PixelTestPattern::SetPattern(pixelpatterns::Pattern)+0xc4>)
 80012fc:	9100      	str	r1, [sp, #0]
 80012fe:	2364      	movs	r3, #100	; 0x64
 8001300:	f005 f814 	bl	800632c <PixelPatterns::ColourWipe(unsigned long, unsigned long, unsigned long, pixelpatterns::Direction)>
 8001304:	e7ec      	b.n	80012e0 <PixelTestPattern::SetPattern(pixelpatterns::Pattern)+0x24>
 8001306:	2364      	movs	r3, #100	; 0x64
 8001308:	f06f 427f 	mvn.w	r2, #4278190080	; 0xff000000
 800130c:	2100      	movs	r1, #0
 800130e:	f005 f827 	bl	8006360 <PixelPatterns::Scanner(unsigned long, unsigned long, unsigned long)>
 8001312:	e7e5      	b.n	80012e0 <PixelTestPattern::SetPattern(pixelpatterns::Pattern)+0x24>
 8001314:	2200      	movs	r2, #0
 8001316:	2364      	movs	r3, #100	; 0x64
 8001318:	e9cd 3201 	strd	r3, r2, [sp, #4]
 800131c:	230a      	movs	r3, #10
 800131e:	9300      	str	r3, [sp, #0]
 8001320:	4611      	mov	r1, r2
 8001322:	4b17      	ldr	r3, [pc, #92]	; (8001380 <PixelTestPattern::SetPattern(pixelpatterns::Pattern)+0xc4>)
 8001324:	f005 f84e 	bl	80063c4 <PixelPatterns::Fade(unsigned long, unsigned long, unsigned long, unsigned long, unsigned long, pixelpatterns::Direction)>
 8001328:	e7da      	b.n	80012e0 <PixelTestPattern::SetPattern(pixelpatterns::Pattern)+0x24>
 800132a:	4b16      	ldr	r3, [pc, #88]	; (8001384 <PixelTestPattern::SetPattern(pixelpatterns::Pattern)+0xc8>)
 800132c:	4e16      	ldr	r6, [pc, #88]	; (8001388 <PixelTestPattern::SetPattern(pixelpatterns::Pattern)+0xcc>)
 800132e:	4f17      	ldr	r7, [pc, #92]	; (800138c <PixelTestPattern::SetPattern(pixelpatterns::Pattern)+0xd0>)
 8001330:	2400      	movs	r4, #0
 8001332:	61dc      	str	r4, [r3, #28]
 8001334:	4625      	mov	r5, r4
 8001336:	6833      	ldr	r3, [r6, #0]
 8001338:	429c      	cmp	r4, r3
 800133a:	d308      	bcc.n	800134e <PixelTestPattern::SetPattern(pixelpatterns::Pattern)+0x92>
 800133c:	f008 f904 	bl	8009548 <gd32_spi_dma_tx_is_active()>
 8001340:	2800      	cmp	r0, #0
 8001342:	d1fb      	bne.n	800133c <PixelTestPattern::SetPattern(pixelpatterns::Pattern)+0x80>
 8001344:	4b11      	ldr	r3, [pc, #68]	; (800138c <PixelTestPattern::SetPattern(pixelpatterns::Pattern)+0xd0>)
 8001346:	6818      	ldr	r0, [r3, #0]
 8001348:	f005 fc7e 	bl	8006c48 <WS28xx::Update()>
 800134c:	e7c8      	b.n	80012e0 <PixelTestPattern::SetPattern(pixelpatterns::Pattern)+0x24>
 800134e:	6838      	ldr	r0, [r7, #0]
 8001350:	6803      	ldr	r3, [r0, #0]
 8001352:	2b07      	cmp	r3, #7
 8001354:	d007      	beq.n	8001366 <PixelTestPattern::SetPattern(pixelpatterns::Pattern)+0xaa>
 8001356:	2300      	movs	r3, #0
 8001358:	9500      	str	r5, [sp, #0]
 800135a:	461a      	mov	r2, r3
 800135c:	4621      	mov	r1, r4
 800135e:	f005 f9d7 	bl	8006710 <WS28xx::SetPixel(unsigned long, unsigned char, unsigned char, unsigned char)>
 8001362:	3401      	adds	r4, #1
 8001364:	e7e7      	b.n	8001336 <PixelTestPattern::SetPattern(pixelpatterns::Pattern)+0x7a>
 8001366:	2300      	movs	r3, #0
 8001368:	e9cd 5500 	strd	r5, r5, [sp]
 800136c:	461a      	mov	r2, r3
 800136e:	4621      	mov	r1, r4
 8001370:	f005 faf0 	bl	8006954 <WS28xx::SetPixel(unsigned long, unsigned char, unsigned char, unsigned char, unsigned char)>
 8001374:	e7f5      	b.n	8001362 <PixelTestPattern::SetPattern(pixelpatterns::Pattern)+0xa6>
 8001376:	2000      	movs	r0, #0
 8001378:	e7b3      	b.n	80012e2 <PixelTestPattern::SetPattern(pixelpatterns::Pattern)+0x26>
 800137a:	bf00      	nop
 800137c:	20001624 	andcs	r1, r0, r4, lsr #12
 8001380:	00646464 	rsbeq	r6, r4, r4, ror #8
 8001384:	200015f4 	strdcs	r1, [r0], -r4
 8001388:	20001614 	andcs	r1, r0, r4, lsl r6
 800138c:	2000161c 	andcs	r1, r0, ip, lsl r6

08001390 <rdm::selftest::Get()>:
 8001390:	4b01      	ldr	r3, [pc, #4]	; (8001398 <rdm::selftest::Get()+0x8>)
 8001392:	7818      	ldrb	r0, [r3, #0]
 8001394:	4770      	bx	lr
 8001396:	bf00      	nop
 8001398:	20001624 	andcs	r1, r0, r4, lsr #12

0800139c <rdm::selftest::Set(unsigned char)>:
 800139c:	4b14      	ldr	r3, [pc, #80]	; (80013f0 <rdm::selftest::Set(unsigned char)+0x54>)
 800139e:	b573      	push	{r0, r1, r4, r5, r6, lr}
 80013a0:	4601      	mov	r1, r0
 80013a2:	4604      	mov	r4, r0
 80013a4:	6818      	ldr	r0, [r3, #0]
 80013a6:	f7ff ff89 	bl	80012bc <PixelTestPattern::SetPattern(pixelpatterns::Pattern)>
 80013aa:	4605      	mov	r5, r0
 80013ac:	b1b0      	cbz	r0, 80013dc <rdm::selftest::Set(unsigned char)+0x40>
 80013ae:	4b11      	ldr	r3, [pc, #68]	; (80013f4 <rdm::selftest::Set(unsigned char)+0x58>)
 80013b0:	b1bc      	cbz	r4, 80013e2 <rdm::selftest::Set(unsigned char)+0x46>
 80013b2:	4e11      	ldr	r6, [pc, #68]	; (80013f8 <rdm::selftest::Set(unsigned char)+0x5c>)
 80013b4:	2201      	movs	r2, #1
 80013b6:	701a      	strb	r2, [r3, #0]
 80013b8:	6833      	ldr	r3, [r6, #0]
 80013ba:	69d8      	ldr	r0, [r3, #28]
 80013bc:	b118      	cbz	r0, 80013c6 <rdm::selftest::Set(unsigned char)+0x2a>
 80013be:	6803      	ldr	r3, [r0, #0]
 80013c0:	2106      	movs	r1, #6
 80013c2:	691b      	ldr	r3, [r3, #16]
 80013c4:	4798      	blx	r3
 80013c6:	4620      	mov	r0, r4
 80013c8:	6836      	ldr	r6, [r6, #0]
 80013ca:	f004 ff73 	bl	80062b4 <PixelPatterns::GetName(pixelpatterns::Pattern)>
 80013ce:	4a0b      	ldr	r2, [pc, #44]	; (80013fc <rdm::selftest::Set(unsigned char)+0x60>)
 80013d0:	9400      	str	r4, [sp, #0]
 80013d2:	4603      	mov	r3, r0
 80013d4:	2106      	movs	r1, #6
 80013d6:	4630      	mov	r0, r6
 80013d8:	f7ff fb4b 	bl	8000a72 <Display::Printf(unsigned long, char const*, ...)>
 80013dc:	4628      	mov	r0, r5
 80013de:	b002      	add	sp, #8
 80013e0:	bd70      	pop	{r4, r5, r6, pc}
 80013e2:	701c      	strb	r4, [r3, #0]
 80013e4:	4b06      	ldr	r3, [pc, #24]	; (8001400 <rdm::selftest::Set(unsigned char)+0x64>)
 80013e6:	6818      	ldr	r0, [r3, #0]
 80013e8:	f005 fd40 	bl	8006e6c <DisplayUdf::Show()>
 80013ec:	e7f6      	b.n	80013dc <rdm::selftest::Set(unsigned char)+0x40>
 80013ee:	bf00      	nop
 80013f0:	20001620 	andcs	r1, r0, r0, lsr #12
 80013f4:	20001080 	andcs	r1, r0, r0, lsl #1
 80013f8:	2000266c 	andcs	r2, r0, ip, ror #12
 80013fc:	08009d50 	stmdaeq	r0, {r4, r6, r8, sl, fp, ip, pc}
 8001400:	20001634 	andcs	r1, r0, r4, lsr r6

08001404 <rdm::selftest::GetDescription(unsigned char, unsigned long&)>:
 8001404:	b510      	push	{r4, lr}
 8001406:	460c      	mov	r4, r1
 8001408:	f004 ff54 	bl	80062b4 <PixelPatterns::GetName(pixelpatterns::Pattern)>
 800140c:	b140      	cbz	r0, 8001420 <rdm::selftest::GetDescription(unsigned char, unsigned long&)+0x1c>
 800140e:	4602      	mov	r2, r0
 8001410:	4613      	mov	r3, r2
 8001412:	3201      	adds	r2, #1
 8001414:	7819      	ldrb	r1, [r3, #0]
 8001416:	2900      	cmp	r1, #0
 8001418:	d1fa      	bne.n	8001410 <rdm::selftest::GetDescription(unsigned char, unsigned long&)+0xc>
 800141a:	1a1b      	subs	r3, r3, r0
 800141c:	6023      	str	r3, [r4, #0]
 800141e:	bd10      	pop	{r4, pc}
 8001420:	4603      	mov	r3, r0
 8001422:	e7fb      	b.n	800141c <rdm::selftest::GetDescription(unsigned char, unsigned long&)+0x18>

08001424 <PixelTestPattern::SetPattern(pixelpatterns::Pattern) [clone .isra.0]>:
 8001424:	b5f0      	push	{r4, r5, r6, r7, lr}
 8001426:	2905      	cmp	r1, #5
 8001428:	b085      	sub	sp, #20
 800142a:	dc18      	bgt.n	800145e <PixelTestPattern::SetPattern(pixelpatterns::Pattern) [clone .isra.0]+0x3a>
 800142c:	4b2e      	ldr	r3, [pc, #184]	; (80014e8 <PixelTestPattern::SetPattern(pixelpatterns::Pattern) [clone .isra.0]+0xc4>)
 800142e:	6019      	str	r1, [r3, #0]
 8001430:	2905      	cmp	r1, #5
 8001432:	d814      	bhi.n	800145e <PixelTestPattern::SetPattern(pixelpatterns::Pattern) [clone .isra.0]+0x3a>
 8001434:	e8df f001 	tbb	[pc, r1]
 8001438:	150b0330 	strne	r0, [fp, #-816]	; 0xfffffcd0
 800143c:	2300251c 	movwcs	r2, #1308	; 0x51c
 8001440:	2264      	movs	r2, #100	; 0x64
 8001442:	4619      	mov	r1, r3
 8001444:	b005      	add	sp, #20
 8001446:	e8bd 40f0 	ldmia.w	sp!, {r4, r5, r6, r7, lr}
 800144a:	f004 bf3f 	b.w	80062cc <PixelPatterns::RainbowCycle(unsigned long, unsigned long, pixelpatterns::Direction)>
 800144e:	2364      	movs	r3, #100	; 0x64
 8001450:	2200      	movs	r2, #0
 8001452:	e9cd 3200 	strd	r3, r2, [sp]
 8001456:	4611      	mov	r1, r2
 8001458:	4b24      	ldr	r3, [pc, #144]	; (80014ec <PixelTestPattern::SetPattern(pixelpatterns::Pattern) [clone .isra.0]+0xc8>)
 800145a:	f004 ff4b 	bl	80062f4 <PixelPatterns::TheaterChase(unsigned long, unsigned long, unsigned long, unsigned long, pixelpatterns::Direction)>
 800145e:	b005      	add	sp, #20
 8001460:	bdf0      	pop	{r4, r5, r6, r7, pc}
 8001462:	2100      	movs	r1, #0
 8001464:	4a21      	ldr	r2, [pc, #132]	; (80014ec <PixelTestPattern::SetPattern(pixelpatterns::Pattern) [clone .isra.0]+0xc8>)
 8001466:	9100      	str	r1, [sp, #0]
 8001468:	2364      	movs	r3, #100	; 0x64
 800146a:	f004 ff5f 	bl	800632c <PixelPatterns::ColourWipe(unsigned long, unsigned long, unsigned long, pixelpatterns::Direction)>
 800146e:	e7f6      	b.n	800145e <PixelTestPattern::SetPattern(pixelpatterns::Pattern) [clone .isra.0]+0x3a>
 8001470:	2364      	movs	r3, #100	; 0x64
 8001472:	f06f 427f 	mvn.w	r2, #4278190080	; 0xff000000
 8001476:	2100      	movs	r1, #0
 8001478:	b005      	add	sp, #20
 800147a:	e8bd 40f0 	ldmia.w	sp!, {r4, r5, r6, r7, lr}
 800147e:	f004 bf6f 	b.w	8006360 <PixelPatterns::Scanner(unsigned long, unsigned long, unsigned long)>
 8001482:	2200      	movs	r2, #0
 8001484:	2364      	movs	r3, #100	; 0x64
 8001486:	e9cd 3201 	strd	r3, r2, [sp, #4]
 800148a:	230a      	movs	r3, #10
 800148c:	9300      	str	r3, [sp, #0]
 800148e:	4611      	mov	r1, r2
 8001490:	4b16      	ldr	r3, [pc, #88]	; (80014ec <PixelTestPattern::SetPattern(pixelpatterns::Pattern) [clone .isra.0]+0xc8>)
 8001492:	f004 ff97 	bl	80063c4 <PixelPatterns::Fade(unsigned long, unsigned long, unsigned long, unsigned long, unsigned long, pixelpatterns::Direction)>
 8001496:	e7e2      	b.n	800145e <PixelTestPattern::SetPattern(pixelpatterns::Pattern) [clone .isra.0]+0x3a>
 8001498:	4b15      	ldr	r3, [pc, #84]	; (80014f0 <PixelTestPattern::SetPattern(pixelpatterns::Pattern) [clone .isra.0]+0xcc>)
 800149a:	4e16      	ldr	r6, [pc, #88]	; (80014f4 <PixelTestPattern::SetPattern(pixelpatterns::Pattern) [clone .isra.0]+0xd0>)
 800149c:	4f16      	ldr	r7, [pc, #88]	; (80014f8 <PixelTestPattern::SetPattern(pixelpatterns::Pattern) [clone .isra.0]+0xd4>)
 800149e:	2400      	movs	r4, #0
 80014a0:	61dc      	str	r4, [r3, #28]
 80014a2:	4625      	mov	r5, r4
 80014a4:	6833      	ldr	r3, [r6, #0]
 80014a6:	429c      	cmp	r4, r3
 80014a8:	d30a      	bcc.n	80014c0 <PixelTestPattern::SetPattern(pixelpatterns::Pattern) [clone .isra.0]+0x9c>
 80014aa:	f008 f84d 	bl	8009548 <gd32_spi_dma_tx_is_active()>
 80014ae:	2800      	cmp	r0, #0
 80014b0:	d1fb      	bne.n	80014aa <PixelTestPattern::SetPattern(pixelpatterns::Pattern) [clone .isra.0]+0x86>
 80014b2:	4b11      	ldr	r3, [pc, #68]	; (80014f8 <PixelTestPattern::SetPattern(pixelpatterns::Pattern) [clone .isra.0]+0xd4>)
 80014b4:	6818      	ldr	r0, [r3, #0]
 80014b6:	b005      	add	sp, #20
 80014b8:	e8bd 40f0 	ldmia.w	sp!, {r4, r5, r6, r7, lr}
 80014bc:	f005 bbc4 	b.w	8006c48 <WS28xx::Update()>
 80014c0:	6838      	ldr	r0, [r7, #0]
 80014c2:	6803      	ldr	r3, [r0, #0]
 80014c4:	2b07      	cmp	r3, #7
 80014c6:	d007      	beq.n	80014d8 <PixelTestPattern::SetPattern(pixelpatterns::Pattern) [clone .isra.0]+0xb4>
 80014c8:	2300      	movs	r3, #0
 80014ca:	9500      	str	r5, [sp, #0]
 80014cc:	461a      	mov	r2, r3
 80014ce:	4621      	mov	r1, r4
 80014d0:	f005 f91e 	bl	8006710 <WS28xx::SetPixel(unsigned long, unsigned char, unsigned char, unsigned char)>
 80014d4:	3401      	adds	r4, #1
 80014d6:	e7e5      	b.n	80014a4 <PixelTestPattern::SetPattern(pixelpatterns::Pattern) [clone .isra.0]+0x80>
 80014d8:	2300      	movs	r3, #0
 80014da:	e9cd 5500 	strd	r5, r5, [sp]
 80014de:	461a      	mov	r2, r3
 80014e0:	4621      	mov	r1, r4
 80014e2:	f005 fa37 	bl	8006954 <WS28xx::SetPixel(unsigned long, unsigned char, unsigned char, unsigned char, unsigned char)>
 80014e6:	e7f5      	b.n	80014d4 <PixelTestPattern::SetPattern(pixelpatterns::Pattern) [clone .isra.0]+0xb0>
 80014e8:	20001624 	andcs	r1, r0, r4, lsr #12
 80014ec:	00646464 	rsbeq	r6, r4, r4, ror #8
 80014f0:	200015f4 	strdcs	r1, [r0], -r4
 80014f4:	20001614 	andcs	r1, r0, r4, lsl r6
 80014f8:	2000161c 	andcs	r1, r0, ip, lsl r6

080014fc <RDMIdentify::On(rdm::identify::Mode)>:
 80014fc:	29ff      	cmp	r1, #255	; 0xff
 80014fe:	b510      	push	{r4, lr}
 8001500:	d10f      	bne.n	8001522 <RDMIdentify::On(rdm::identify::Mode)+0x26>
 8001502:	4b08      	ldr	r3, [pc, #32]	; (8001524 <RDMIdentify::On(rdm::identify::Mode)+0x28>)
 8001504:	781a      	ldrb	r2, [r3, #0]
 8001506:	b962      	cbnz	r2, 8001522 <RDMIdentify::On(rdm::identify::Mode)+0x26>
 8001508:	2401      	movs	r4, #1
 800150a:	701c      	strb	r4, [r3, #0]
 800150c:	4b06      	ldr	r3, [pc, #24]	; (8001528 <RDMIdentify::On(rdm::identify::Mode)+0x2c>)
 800150e:	681a      	ldr	r2, [r3, #0]
 8001510:	4b06      	ldr	r3, [pc, #24]	; (800152c <RDMIdentify::On(rdm::identify::Mode)+0x30>)
 8001512:	601a      	str	r2, [r3, #0]
 8001514:	4b06      	ldr	r3, [pc, #24]	; (8001530 <RDMIdentify::On(rdm::identify::Mode)+0x34>)
 8001516:	2105      	movs	r1, #5
 8001518:	6818      	ldr	r0, [r3, #0]
 800151a:	f7ff ff83 	bl	8001424 <PixelTestPattern::SetPattern(pixelpatterns::Pattern) [clone .isra.0]>
 800151e:	4b05      	ldr	r3, [pc, #20]	; (8001534 <RDMIdentify::On(rdm::identify::Mode)+0x38>)
 8001520:	701c      	strb	r4, [r3, #0]
 8001522:	bd10      	pop	{r4, pc}
 8001524:	20001078 	andcs	r1, r0, r8, ror r0
 8001528:	20001624 	andcs	r1, r0, r4, lsr #12
 800152c:	20001074 	andcs	r1, r0, r4, ror r0
 8001530:	20001620 	andcs	r1, r0, r0, lsr #12
 8001534:	20001080 	andcs	r1, r0, r0, lsl #1

08001538 <RDMIdentify::Off(rdm::identify::Mode)>:
 8001538:	4b09      	ldr	r3, [pc, #36]	; (8001560 <RDMIdentify::Off(rdm::identify::Mode)+0x28>)
 800153a:	781a      	ldrb	r2, [r3, #0]
 800153c:	b510      	push	{r4, lr}
 800153e:	b16a      	cbz	r2, 800155c <RDMIdentify::Off(rdm::identify::Mode)+0x24>
 8001540:	2200      	movs	r2, #0
 8001542:	701a      	strb	r2, [r3, #0]
 8001544:	4c07      	ldr	r4, [pc, #28]	; (8001564 <RDMIdentify::Off(rdm::identify::Mode)+0x2c>)
 8001546:	4b08      	ldr	r3, [pc, #32]	; (8001568 <RDMIdentify::Off(rdm::identify::Mode)+0x30>)
 8001548:	6821      	ldr	r1, [r4, #0]
 800154a:	6818      	ldr	r0, [r3, #0]
 800154c:	f7ff ff6a 	bl	8001424 <PixelTestPattern::SetPattern(pixelpatterns::Pattern) [clone .isra.0]>
 8001550:	6823      	ldr	r3, [r4, #0]
 8001552:	4a06      	ldr	r2, [pc, #24]	; (800156c <RDMIdentify::Off(rdm::identify::Mode)+0x34>)
 8001554:	3b00      	subs	r3, #0
 8001556:	bf18      	it	ne
 8001558:	2301      	movne	r3, #1
 800155a:	7013      	strb	r3, [r2, #0]
 800155c:	bd10      	pop	{r4, pc}
 800155e:	bf00      	nop
 8001560:	20001078 	andcs	r1, r0, r8, ror r0
 8001564:	20001074 	andcs	r1, r0, r4, ror r0
 8001568:	20001620 	andcs	r1, r0, r0, lsr #12
 800156c:	20001080 	andcs	r1, r0, r0, lsl #1

08001570 <RDMSlotInfo::GetCategoryTextUndefined(unsigned short, unsigned long&)>:
 8001570:	2805      	cmp	r0, #5
 8001572:	d814      	bhi.n	800159e <RDMSlotInfo::GetCategoryTextUndefined(unsigned short, unsigned long&)+0x2e>
 8001574:	e8df f000 	tbb	[pc, r0]
 8001578:	0a070316 	beq	81c21d8 <_sidata+0x1b64b4>
 800157c:	480b100d 	stmdami	fp, {r0, r2, r3, ip}
 8001580:	2305      	movs	r3, #5
 8001582:	600b      	str	r3, [r1, #0]
 8001584:	4770      	bx	lr
 8001586:	480a      	ldr	r0, [pc, #40]	; (80015b0 <RDMSlotInfo::GetCategoryTextUndefined(unsigned short, unsigned long&)+0x40>)
 8001588:	230e      	movs	r3, #14
 800158a:	e7fa      	b.n	8001582 <RDMSlotInfo::GetCategoryTextUndefined(unsigned short, unsigned long&)+0x12>
 800158c:	4809      	ldr	r0, [pc, #36]	; (80015b4 <RDMSlotInfo::GetCategoryTextUndefined(unsigned short, unsigned long&)+0x44>)
 800158e:	2303      	movs	r3, #3
 8001590:	e7f7      	b.n	8001582 <RDMSlotInfo::GetCategoryTextUndefined(unsigned short, unsigned long&)+0x12>
 8001592:	4809      	ldr	r0, [pc, #36]	; (80015b8 <RDMSlotInfo::GetCategoryTextUndefined(unsigned short, unsigned long&)+0x48>)
 8001594:	230c      	movs	r3, #12
 8001596:	e7f4      	b.n	8001582 <RDMSlotInfo::GetCategoryTextUndefined(unsigned short, unsigned long&)+0x12>
 8001598:	4808      	ldr	r0, [pc, #32]	; (80015bc <RDMSlotInfo::GetCategoryTextUndefined(unsigned short, unsigned long&)+0x4c>)
 800159a:	2307      	movs	r3, #7
 800159c:	e7f1      	b.n	8001582 <RDMSlotInfo::GetCategoryTextUndefined(unsigned short, unsigned long&)+0x12>
 800159e:	4808      	ldr	r0, [pc, #32]	; (80015c0 <RDMSlotInfo::GetCategoryTextUndefined(unsigned short, unsigned long&)+0x50>)
 80015a0:	2309      	movs	r3, #9
 80015a2:	e7ee      	b.n	8001582 <RDMSlotInfo::GetCategoryTextUndefined(unsigned short, unsigned long&)+0x12>
 80015a4:	4807      	ldr	r0, [pc, #28]	; (80015c4 <RDMSlotInfo::GetCategoryTextUndefined(unsigned short, unsigned long&)+0x54>)
 80015a6:	2304      	movs	r3, #4
 80015a8:	e7eb      	b.n	8001582 <RDMSlotInfo::GetCategoryTextUndefined(unsigned short, unsigned long&)+0x12>
 80015aa:	bf00      	nop
 80015ac:	08009ea8 	stmdaeq	r0, {r3, r5, r7, r9, sl, fp, ip, pc}
 80015b0:	08009e9f 	stmdaeq	r0, {r0, r1, r2, r3, r4, r7, r9, sl, fp, ip, pc}
 80015b4:	08009eae 	stmdaeq	r0, {r1, r2, r3, r5, r7, r9, sl, fp, ip, pc}
 80015b8:	08009eb2 	stmdaeq	r0, {r1, r4, r5, r7, r9, sl, fp, ip, pc}
 80015bc:	08009ebf 	stmdaeq	r0, {r0, r1, r2, r3, r4, r5, r7, r9, sl, fp, ip, pc}
 80015c0:	08009ec7 	stmdaeq	r0, {r0, r1, r2, r6, r7, r9, sl, fp, ip, pc}
 80015c4:	08009e9a 	stmdaeq	r0, {r1, r3, r4, r7, r9, sl, fp, ip, pc}

080015c8 <RDMSoftwareVersion::GetVersion()>:
 80015c8:	4800      	ldr	r0, [pc, #0]	; (80015cc <RDMSoftwareVersion::GetVersion()+0x4>)
 80015ca:	4770      	bx	lr
 80015cc:	08009ed1 	stmdaeq	r0, {r0, r4, r6, r7, r9, sl, fp, ip, pc}

080015d0 <RDMSoftwareVersion::GetVersionLength()>:
 80015d0:	2003      	movs	r0, #3
 80015d2:	4770      	bx	lr

080015d4 <RDMSoftwareVersion::GetVersionId()>:
 80015d4:	4800      	ldr	r0, [pc, #0]	; (80015d8 <RDMSoftwareVersion::GetVersionId()+0x4>)
 80015d6:	4770      	bx	lr
 80015d8:	65bb9dd0 	ldrvs	r9, [fp, #3536]!	; 0xdd0

080015dc <_itostr>:
 80015dc:	b5f0      	push	{r4, r5, r6, r7, lr}
 80015de:	0fc7      	lsrs	r7, r0, #31
 80015e0:	b091      	sub	sp, #68	; 0x44
 80015e2:	f10d 043f 	add.w	r4, sp, #63	; 0x3f
 80015e6:	d01b      	beq.n	8001620 <_itostr+0x44>
 80015e8:	4240      	negs	r0, r0
 80015ea:	4623      	mov	r3, r4
 80015ec:	250a      	movs	r5, #10
 80015ee:	46ec      	mov	ip, sp
 80015f0:	fbb0 f6f5 	udiv	r6, r0, r5
 80015f4:	fb05 0016 	mls	r0, r5, r6, r0
 80015f8:	3030      	adds	r0, #48	; 0x30
 80015fa:	f803 0901 	strb.w	r0, [r3], #-1
 80015fe:	4630      	mov	r0, r6
 8001600:	b10e      	cbz	r6, 8001606 <_itostr+0x2a>
 8001602:	4563      	cmp	r3, ip
 8001604:	d1f4      	bne.n	80015f0 <_itostr+0x14>
 8001606:	b132      	cbz	r2, 8001616 <_itostr+0x3a>
 8001608:	4668      	mov	r0, sp
 800160a:	2530      	movs	r5, #48	; 0x30
 800160c:	1ae6      	subs	r6, r4, r3
 800160e:	4296      	cmp	r6, r2
 8001610:	da01      	bge.n	8001616 <_itostr+0x3a>
 8001612:	4283      	cmp	r3, r0
 8001614:	d816      	bhi.n	8001644 <_itostr+0x68>
 8001616:	b167      	cbz	r7, 8001632 <_itostr+0x56>
 8001618:	222d      	movs	r2, #45	; 0x2d
 800161a:	f803 2901 	strb.w	r2, [r3], #-1
 800161e:	e008      	b.n	8001632 <_itostr+0x56>
 8001620:	2800      	cmp	r0, #0
 8001622:	d1e2      	bne.n	80015ea <_itostr+0xe>
 8001624:	2330      	movs	r3, #48	; 0x30
 8001626:	f88d 303f 	strb.w	r3, [sp, #63]	; 0x3f
 800162a:	f10d 033e 	add.w	r3, sp, #62	; 0x3e
 800162e:	2a00      	cmp	r2, #0
 8001630:	d1ea      	bne.n	8001608 <_itostr+0x2c>
 8001632:	3301      	adds	r3, #1
 8001634:	1ae0      	subs	r0, r4, r3
 8001636:	3901      	subs	r1, #1
 8001638:	aa10      	add	r2, sp, #64	; 0x40
 800163a:	4293      	cmp	r3, r2
 800163c:	d305      	bcc.n	800164a <_itostr+0x6e>
 800163e:	3001      	adds	r0, #1
 8001640:	b011      	add	sp, #68	; 0x44
 8001642:	bdf0      	pop	{r4, r5, r6, r7, pc}
 8001644:	f803 5901 	strb.w	r5, [r3], #-1
 8001648:	e7e0      	b.n	800160c <_itostr+0x30>
 800164a:	f813 2b01 	ldrb.w	r2, [r3], #1
 800164e:	f801 2f01 	strb.w	r2, [r1, #1]!
 8001652:	e7f1      	b.n	8001638 <_itostr+0x5c>

08001654 <_xputch>:
 8001654:	4603      	mov	r3, r0
 8001656:	b410      	push	{r4}
 8001658:	4c09      	ldr	r4, [pc, #36]	; (8001680 <_xputch+0x2c>)
 800165a:	68da      	ldr	r2, [r3, #12]
 800165c:	4608      	mov	r0, r1
 800165e:	6821      	ldr	r1, [r4, #0]
 8001660:	3201      	adds	r2, #1
 8001662:	60da      	str	r2, [r3, #12]
 8001664:	b141      	cbz	r1, 8001678 <_xputch+0x24>
 8001666:	691b      	ldr	r3, [r3, #16]
 8001668:	429a      	cmp	r2, r3
 800166a:	da02      	bge.n	8001672 <_xputch+0x1e>
 800166c:	1c4b      	adds	r3, r1, #1
 800166e:	6023      	str	r3, [r4, #0]
 8001670:	7008      	strb	r0, [r1, #0]
 8001672:	f85d 4b04 	ldr.w	r4, [sp], #4
 8001676:	4770      	bx	lr
 8001678:	f85d 4b04 	ldr.w	r4, [sp], #4
 800167c:	f006 ba82 	b.w	8007b84 <console_putc>
 8001680:	2000107c 	andcs	r1, r0, ip, ror r0

08001684 <_format_int>:
 8001684:	b5f0      	push	{r4, r5, r6, r7, lr}
 8001686:	b091      	sub	sp, #68	; 0x44
 8001688:	4606      	mov	r6, r0
 800168a:	f10d 043f 	add.w	r4, sp, #63	; 0x3f
 800168e:	bb91      	cbnz	r1, 80016f6 <_format_int+0x72>
 8001690:	2330      	movs	r3, #48	; 0x30
 8001692:	f88d 303f 	strb.w	r3, [sp, #63]	; 0x3f
 8001696:	f10d 033e 	add.w	r3, sp, #62	; 0x3e
 800169a:	6832      	ldr	r2, [r6, #0]
 800169c:	07d5      	lsls	r5, r2, #31
 800169e:	d507      	bpl.n	80016b0 <_format_int+0x2c>
 80016a0:	6870      	ldr	r0, [r6, #4]
 80016a2:	4669      	mov	r1, sp
 80016a4:	2530      	movs	r5, #48	; 0x30
 80016a6:	1ae7      	subs	r7, r4, r3
 80016a8:	4287      	cmp	r7, r0
 80016aa:	da01      	bge.n	80016b0 <_format_int+0x2c>
 80016ac:	428b      	cmp	r3, r1
 80016ae:	d833      	bhi.n	8001718 <_format_int+0x94>
 80016b0:	0690      	lsls	r0, r2, #26
 80016b2:	d507      	bpl.n	80016c4 <_format_int+0x40>
 80016b4:	68b0      	ldr	r0, [r6, #8]
 80016b6:	4669      	mov	r1, sp
 80016b8:	2530      	movs	r5, #48	; 0x30
 80016ba:	1ae7      	subs	r7, r4, r3
 80016bc:	4287      	cmp	r7, r0
 80016be:	da01      	bge.n	80016c4 <_format_int+0x40>
 80016c0:	428b      	cmp	r3, r1
 80016c2:	d82c      	bhi.n	800171e <_format_int+0x9a>
 80016c4:	0711      	lsls	r1, r2, #28
 80016c6:	bf44      	itt	mi
 80016c8:	212d      	movmi	r1, #45	; 0x2d
 80016ca:	f803 1901 	strbmi.w	r1, [r3], #-1
 80016ce:	0652      	lsls	r2, r2, #25
 80016d0:	d407      	bmi.n	80016e2 <_format_int+0x5e>
 80016d2:	68b1      	ldr	r1, [r6, #8]
 80016d4:	466a      	mov	r2, sp
 80016d6:	2020      	movs	r0, #32
 80016d8:	1ae5      	subs	r5, r4, r3
 80016da:	428d      	cmp	r5, r1
 80016dc:	da01      	bge.n	80016e2 <_format_int+0x5e>
 80016de:	4293      	cmp	r3, r2
 80016e0:	d820      	bhi.n	8001724 <_format_int+0xa0>
 80016e2:	1ae5      	subs	r5, r4, r3
 80016e4:	1c5c      	adds	r4, r3, #1
 80016e6:	ab10      	add	r3, sp, #64	; 0x40
 80016e8:	429c      	cmp	r4, r3
 80016ea:	d31e      	bcc.n	800172a <_format_int+0xa6>
 80016ec:	68b3      	ldr	r3, [r6, #8]
 80016ee:	42ab      	cmp	r3, r5
 80016f0:	dc21      	bgt.n	8001736 <_format_int+0xb2>
 80016f2:	b011      	add	sp, #68	; 0x44
 80016f4:	bdf0      	pop	{r4, r5, r6, r7, pc}
 80016f6:	4623      	mov	r3, r4
 80016f8:	200a      	movs	r0, #10
 80016fa:	466f      	mov	r7, sp
 80016fc:	fbb1 f5f0 	udiv	r5, r1, r0
 8001700:	fb00 1215 	mls	r2, r0, r5, r1
 8001704:	3230      	adds	r2, #48	; 0x30
 8001706:	f803 2901 	strb.w	r2, [r3], #-1
 800170a:	460a      	mov	r2, r1
 800170c:	2a09      	cmp	r2, #9
 800170e:	4629      	mov	r1, r5
 8001710:	d9c3      	bls.n	800169a <_format_int+0x16>
 8001712:	42bb      	cmp	r3, r7
 8001714:	d1f2      	bne.n	80016fc <_format_int+0x78>
 8001716:	e7c0      	b.n	800169a <_format_int+0x16>
 8001718:	f803 5901 	strb.w	r5, [r3], #-1
 800171c:	e7c3      	b.n	80016a6 <_format_int+0x22>
 800171e:	f803 5901 	strb.w	r5, [r3], #-1
 8001722:	e7ca      	b.n	80016ba <_format_int+0x36>
 8001724:	f803 0901 	strb.w	r0, [r3], #-1
 8001728:	e7d6      	b.n	80016d8 <_format_int+0x54>
 800172a:	f814 1b01 	ldrb.w	r1, [r4], #1
 800172e:	4630      	mov	r0, r6
 8001730:	f7ff ff90 	bl	8001654 <_xputch>
 8001734:	e7d7      	b.n	80016e6 <_format_int+0x62>
 8001736:	2120      	movs	r1, #32
 8001738:	4630      	mov	r0, r6
 800173a:	f7ff ff8b 	bl	8001654 <_xputch>
 800173e:	3501      	adds	r5, #1
 8001740:	e7d4      	b.n	80016ec <_format_int+0x68>

08001742 <_format_hex>:
 8001742:	b5f0      	push	{r4, r5, r6, r7, lr}
 8001744:	b091      	sub	sp, #68	; 0x44
 8001746:	6804      	ldr	r4, [r0, #0]
 8001748:	4606      	mov	r6, r0
 800174a:	f10d 023f 	add.w	r2, sp, #63	; 0x3f
 800174e:	bb61      	cbnz	r1, 80017aa <_format_hex+0x68>
 8001750:	2330      	movs	r3, #48	; 0x30
 8001752:	f88d 303f 	strb.w	r3, [sp, #63]	; 0x3f
 8001756:	f10d 033e 	add.w	r3, sp, #62	; 0x3e
 800175a:	07e5      	lsls	r5, r4, #31
 800175c:	d507      	bpl.n	800176e <_format_hex+0x2c>
 800175e:	6870      	ldr	r0, [r6, #4]
 8001760:	4669      	mov	r1, sp
 8001762:	2530      	movs	r5, #48	; 0x30
 8001764:	1ad7      	subs	r7, r2, r3
 8001766:	4287      	cmp	r7, r0
 8001768:	da01      	bge.n	800176e <_format_hex+0x2c>
 800176a:	428b      	cmp	r3, r1
 800176c:	d831      	bhi.n	80017d2 <_format_hex+0x90>
 800176e:	06a0      	lsls	r0, r4, #26
 8001770:	d507      	bpl.n	8001782 <_format_hex+0x40>
 8001772:	68b0      	ldr	r0, [r6, #8]
 8001774:	4669      	mov	r1, sp
 8001776:	2530      	movs	r5, #48	; 0x30
 8001778:	1ad7      	subs	r7, r2, r3
 800177a:	4287      	cmp	r7, r0
 800177c:	da01      	bge.n	8001782 <_format_hex+0x40>
 800177e:	428b      	cmp	r3, r1
 8001780:	d82a      	bhi.n	80017d8 <_format_hex+0x96>
 8001782:	0661      	lsls	r1, r4, #25
 8001784:	d407      	bmi.n	8001796 <_format_hex+0x54>
 8001786:	68b0      	ldr	r0, [r6, #8]
 8001788:	4669      	mov	r1, sp
 800178a:	2420      	movs	r4, #32
 800178c:	1ad5      	subs	r5, r2, r3
 800178e:	4285      	cmp	r5, r0
 8001790:	da01      	bge.n	8001796 <_format_hex+0x54>
 8001792:	428b      	cmp	r3, r1
 8001794:	d823      	bhi.n	80017de <_format_hex+0x9c>
 8001796:	1ad5      	subs	r5, r2, r3
 8001798:	1c5c      	adds	r4, r3, #1
 800179a:	ab10      	add	r3, sp, #64	; 0x40
 800179c:	429c      	cmp	r4, r3
 800179e:	d321      	bcc.n	80017e4 <_format_hex+0xa2>
 80017a0:	68b3      	ldr	r3, [r6, #8]
 80017a2:	429d      	cmp	r5, r3
 80017a4:	db24      	blt.n	80017f0 <_format_hex+0xae>
 80017a6:	b011      	add	sp, #68	; 0x44
 80017a8:	bdf0      	pop	{r4, r5, r6, r7, pc}
 80017aa:	f014 0f02 	tst.w	r4, #2
 80017ae:	bf0c      	ite	eq
 80017b0:	2757      	moveq	r7, #87	; 0x57
 80017b2:	2737      	movne	r7, #55	; 0x37
 80017b4:	4613      	mov	r3, r2
 80017b6:	466d      	mov	r5, sp
 80017b8:	f001 000f 	and.w	r0, r1, #15
 80017bc:	2809      	cmp	r0, #9
 80017be:	bf94      	ite	ls
 80017c0:	3030      	addls	r0, #48	; 0x30
 80017c2:	19c0      	addhi	r0, r0, r7
 80017c4:	0909      	lsrs	r1, r1, #4
 80017c6:	f803 0901 	strb.w	r0, [r3], #-1
 80017ca:	d0c6      	beq.n	800175a <_format_hex+0x18>
 80017cc:	42ab      	cmp	r3, r5
 80017ce:	d1f3      	bne.n	80017b8 <_format_hex+0x76>
 80017d0:	e7c3      	b.n	800175a <_format_hex+0x18>
 80017d2:	f803 5901 	strb.w	r5, [r3], #-1
 80017d6:	e7c5      	b.n	8001764 <_format_hex+0x22>
 80017d8:	f803 5901 	strb.w	r5, [r3], #-1
 80017dc:	e7cc      	b.n	8001778 <_format_hex+0x36>
 80017de:	f803 4901 	strb.w	r4, [r3], #-1
 80017e2:	e7d3      	b.n	800178c <_format_hex+0x4a>
 80017e4:	f814 1b01 	ldrb.w	r1, [r4], #1
 80017e8:	4630      	mov	r0, r6
 80017ea:	f7ff ff33 	bl	8001654 <_xputch>
 80017ee:	e7d4      	b.n	800179a <_format_hex+0x58>
 80017f0:	2120      	movs	r1, #32
 80017f2:	4630      	mov	r0, r6
 80017f4:	f7ff ff2e 	bl	8001654 <_xputch>
 80017f8:	3501      	adds	r5, #1
 80017fa:	e7d1      	b.n	80017a0 <_format_hex+0x5e>

080017fc <_vprintf>:
 80017fc:	e92d 47f0 	stmdb	sp!, {r4, r5, r6, r7, r8, r9, sl, lr}
 8001800:	2700      	movs	r7, #0
 8001802:	b096      	sub	sp, #88	; 0x58
 8001804:	e9cd 7004 	strd	r7, r0, [sp, #16]
 8001808:	460b      	mov	r3, r1
 800180a:	4614      	mov	r4, r2
 800180c:	f04f 080a 	mov.w	r8, #10
 8001810:	7819      	ldrb	r1, [r3, #0]
 8001812:	b919      	cbnz	r1, 800181c <_vprintf+0x20>
 8001814:	9804      	ldr	r0, [sp, #16]
 8001816:	b016      	add	sp, #88	; 0x58
 8001818:	e8bd 87f0 	ldmia.w	sp!, {r4, r5, r6, r7, r8, r9, sl, pc}
 800181c:	2925      	cmp	r1, #37	; 0x25
 800181e:	f103 0501 	add.w	r5, r3, #1
 8001822:	d004      	beq.n	800182e <_vprintf+0x32>
 8001824:	a801      	add	r0, sp, #4
 8001826:	f7ff ff15 	bl	8001654 <_xputch>
 800182a:	462b      	mov	r3, r5
 800182c:	e7f0      	b.n	8001810 <_vprintf+0x14>
 800182e:	785a      	ldrb	r2, [r3, #1]
 8001830:	9703      	str	r7, [sp, #12]
 8001832:	2a30      	cmp	r2, #48	; 0x30
 8001834:	e9cd 7701 	strd	r7, r7, [sp, #4]
 8001838:	d127      	bne.n	800188a <_vprintf+0x8e>
 800183a:	2220      	movs	r2, #32
 800183c:	9201      	str	r2, [sp, #4]
 800183e:	1c9d      	adds	r5, r3, #2
 8001840:	2200      	movs	r2, #0
 8001842:	462e      	mov	r6, r5
 8001844:	4613      	mov	r3, r2
 8001846:	7831      	ldrb	r1, [r6, #0]
 8001848:	f1a1 0030 	sub.w	r0, r1, #48	; 0x30
 800184c:	2809      	cmp	r0, #9
 800184e:	4635      	mov	r5, r6
 8001850:	f106 0601 	add.w	r6, r6, #1
 8001854:	d91d      	bls.n	8001892 <_vprintf+0x96>
 8001856:	b12a      	cbz	r2, 8001864 <_vprintf+0x68>
 8001858:	9303      	str	r3, [sp, #12]
 800185a:	b11b      	cbz	r3, 8001864 <_vprintf+0x68>
 800185c:	9b01      	ldr	r3, [sp, #4]
 800185e:	f043 0310 	orr.w	r3, r3, #16
 8001862:	9301      	str	r3, [sp, #4]
 8001864:	292e      	cmp	r1, #46	; 0x2e
 8001866:	d123      	bne.n	80018b0 <_vprintf+0xb4>
 8001868:	786b      	ldrb	r3, [r5, #1]
 800186a:	2b2a      	cmp	r3, #42	; 0x2a
 800186c:	d015      	beq.n	800189a <_vprintf+0x9e>
 800186e:	2100      	movs	r1, #0
 8001870:	1c68      	adds	r0, r5, #1
 8001872:	460a      	mov	r2, r1
 8001874:	260a      	movs	r6, #10
 8001876:	7803      	ldrb	r3, [r0, #0]
 8001878:	3b30      	subs	r3, #48	; 0x30
 800187a:	2b09      	cmp	r3, #9
 800187c:	4605      	mov	r5, r0
 800187e:	f100 0001 	add.w	r0, r0, #1
 8001882:	d959      	bls.n	8001938 <_vprintf+0x13c>
 8001884:	b181      	cbz	r1, 80018a8 <_vprintf+0xac>
 8001886:	9202      	str	r2, [sp, #8]
 8001888:	e00e      	b.n	80018a8 <_vprintf+0xac>
 800188a:	2a2d      	cmp	r2, #45	; 0x2d
 800188c:	d1d8      	bne.n	8001840 <_vprintf+0x44>
 800188e:	2240      	movs	r2, #64	; 0x40
 8001890:	e7d4      	b.n	800183c <_vprintf+0x40>
 8001892:	fb08 0303 	mla	r3, r8, r3, r0
 8001896:	2201      	movs	r2, #1
 8001898:	e7d5      	b.n	8001846 <_vprintf+0x4a>
 800189a:	f854 3b04 	ldr.w	r3, [r4], #4
 800189e:	2b00      	cmp	r3, #0
 80018a0:	bfb8      	it	lt
 80018a2:	425b      	neglt	r3, r3
 80018a4:	3502      	adds	r5, #2
 80018a6:	9302      	str	r3, [sp, #8]
 80018a8:	9b01      	ldr	r3, [sp, #4]
 80018aa:	f043 0301 	orr.w	r3, r3, #1
 80018ae:	9301      	str	r3, [sp, #4]
 80018b0:	782b      	ldrb	r3, [r5, #0]
 80018b2:	2b6c      	cmp	r3, #108	; 0x6c
 80018b4:	bf04      	itt	eq
 80018b6:	3501      	addeq	r5, #1
 80018b8:	9b01      	ldreq	r3, [sp, #4]
 80018ba:	7829      	ldrb	r1, [r5, #0]
 80018bc:	bf04      	itt	eq
 80018be:	f043 0304 	orreq.w	r3, r3, #4
 80018c2:	9301      	streq	r3, [sp, #4]
 80018c4:	2958      	cmp	r1, #88	; 0x58
 80018c6:	f000 8143 	beq.w	8001b50 <_vprintf+0x354>
 80018ca:	f1a1 0363 	sub.w	r3, r1, #99	; 0x63
 80018ce:	b2da      	uxtb	r2, r3
 80018d0:	2a15      	cmp	r2, #21
 80018d2:	d8a7      	bhi.n	8001824 <_vprintf+0x28>
 80018d4:	2b15      	cmp	r3, #21
 80018d6:	d8a5      	bhi.n	8001824 <_vprintf+0x28>
 80018d8:	a201      	add	r2, pc, #4	; (adr r2, 80018e0 <_vprintf+0xe4>)
 80018da:	f852 f023 	ldr.w	pc, [r2, r3, lsl #2]
 80018de:	bf00      	nop
 80018e0:	08001941 	stmdaeq	r0, {r0, r6, r8, fp, ip}
 80018e4:	0800194f 	stmdaeq	r0, {r0, r1, r2, r3, r6, r8, fp, ip}
 80018e8:	08001825 	stmdaeq	r0, {r0, r2, r5, fp, ip}
 80018ec:	08001969 	stmdaeq	r0, {r0, r3, r5, r6, r8, fp, ip}
 80018f0:	08001825 	stmdaeq	r0, {r0, r2, r5, fp, ip}
 80018f4:	08001825 	stmdaeq	r0, {r0, r2, r5, fp, ip}
 80018f8:	0800194f 	stmdaeq	r0, {r0, r1, r2, r3, r6, r8, fp, ip}
 80018fc:	08001825 	stmdaeq	r0, {r0, r2, r5, fp, ip}
 8001900:	08001825 	stmdaeq	r0, {r0, r2, r5, fp, ip}
 8001904:	08001825 	stmdaeq	r0, {r0, r2, r5, fp, ip}
 8001908:	08001825 	stmdaeq	r0, {r0, r2, r5, fp, ip}
 800190c:	08001825 	stmdaeq	r0, {r0, r2, r5, fp, ip}
 8001910:	08001825 	stmdaeq	r0, {r0, r2, r5, fp, ip}
 8001914:	08001ab1 	stmdaeq	r0, {r0, r4, r5, r7, r9, fp, ip}
 8001918:	08001825 	stmdaeq	r0, {r0, r2, r5, fp, ip}
 800191c:	08001825 	stmdaeq	r0, {r0, r2, r5, fp, ip}
 8001920:	08001ad7 	stmdaeq	r0, {r0, r1, r2, r4, r6, r7, r9, fp, ip}
 8001924:	08001825 	stmdaeq	r0, {r0, r2, r5, fp, ip}
 8001928:	08001b4b 	stmdaeq	r0, {r0, r1, r3, r6, r8, r9, fp, ip}
 800192c:	08001825 	stmdaeq	r0, {r0, r2, r5, fp, ip}
 8001930:	08001825 	stmdaeq	r0, {r0, r2, r5, fp, ip}
 8001934:	08001b59 	stmdaeq	r0, {r0, r3, r4, r6, r8, r9, fp, ip}
 8001938:	fb06 3202 	mla	r2, r6, r2, r3
 800193c:	2101      	movs	r1, #1
 800193e:	e79a      	b.n	8001876 <_vprintf+0x7a>
 8001940:	f854 1b04 	ldr.w	r1, [r4], #4
 8001944:	a801      	add	r0, sp, #4
 8001946:	f7ff fe85 	bl	8001654 <_xputch>
 800194a:	3501      	adds	r5, #1
 800194c:	e76d      	b.n	800182a <_vprintf+0x2e>
 800194e:	f854 1b04 	ldr.w	r1, [r4], #4
 8001952:	9b01      	ldr	r3, [sp, #4]
 8001954:	2900      	cmp	r1, #0
 8001956:	da03      	bge.n	8001960 <_vprintf+0x164>
 8001958:	f043 0308 	orr.w	r3, r3, #8
 800195c:	9301      	str	r3, [sp, #4]
 800195e:	4249      	negs	r1, r1
 8001960:	a801      	add	r0, sp, #4
 8001962:	f7ff fe8f 	bl	8001684 <_format_int>
 8001966:	e7f0      	b.n	800194a <_vprintf+0x14e>
 8001968:	3407      	adds	r4, #7
 800196a:	f024 0407 	bic.w	r4, r4, #7
 800196e:	e8f4 0102 	ldrd	r0, r1, [r4], #8
 8001972:	f7fe fbed 	bl	8000150 <__aeabi_d2f>
 8001976:	9b01      	ldr	r3, [sp, #4]
 8001978:	ee07 0a90 	vmov	s15, r0
 800197c:	07de      	lsls	r6, r3, #31
 800197e:	eef5 7ac0 	vcmpe.f32	s15, #0.0
 8001982:	bf4c      	ite	mi
 8001984:	9e02      	ldrmi	r6, [sp, #8]
 8001986:	2606      	movpl	r6, #6
 8001988:	eef1 fa10 	vmrs	APSR_nzcv, fpscr
 800198c:	bf48      	it	mi
 800198e:	eef1 7a67 	vnegmi.f32	s15, s15
 8001992:	eebd 7ae7 	vcvt.s32.f32	s14, s15
 8001996:	bf4a      	itet	mi
 8001998:	f10d 0a19 	addmi.w	sl, sp, #25
 800199c:	f10d 0a18 	addpl.w	sl, sp, #24
 80019a0:	232d      	movmi	r3, #45	; 0x2d
 80019a2:	ee17 0a10 	vmov	r0, s14
 80019a6:	f04f 0200 	mov.w	r2, #0
 80019aa:	4651      	mov	r1, sl
 80019ac:	bf48      	it	mi
 80019ae:	f88d 3018 	strbmi.w	r3, [sp, #24]
 80019b2:	f7ff fe13 	bl	80015dc <_itostr>
 80019b6:	eeb8 7ac7 	vcvt.f32.s32	s14, s14
 80019ba:	232e      	movs	r3, #46	; 0x2e
 80019bc:	f80a 3000 	strb.w	r3, [sl, r0]
 80019c0:	eb0a 0900 	add.w	r9, sl, r0
 80019c4:	230a      	movs	r3, #10
 80019c6:	ee77 7ac7 	vsub.f32	s15, s15, s14
 80019ca:	1c72      	adds	r2, r6, #1
 80019cc:	f109 0901 	add.w	r9, r9, #1
 80019d0:	4619      	mov	r1, r3
 80019d2:	2e00      	cmp	r6, #0
 80019d4:	dc41      	bgt.n	8001a5a <_vprintf+0x25e>
 80019d6:	ee07 3a10 	vmov	s14, r3
 80019da:	eeb8 7ac7 	vcvt.f32.s32	s14, s14
 80019de:	4649      	mov	r1, r9
 80019e0:	ee67 7a27 	vmul.f32	s15, s14, s15
 80019e4:	eefd 7ae7 	vcvt.s32.f32	s15, s15
 80019e8:	ee17 0a90 	vmov	r0, s15
 80019ec:	f7ff fdf6 	bl	80015dc <_itostr>
 80019f0:	4448      	add	r0, r9
 80019f2:	f10d 0918 	add.w	r9, sp, #24
 80019f6:	eba0 0009 	sub.w	r0, r0, r9
 80019fa:	1e46      	subs	r6, r0, #1
 80019fc:	eb09 0206 	add.w	r2, r9, r6
 8001a00:	f819 3006 	ldrb.w	r3, [r9, r6]
 8001a04:	2b34      	cmp	r3, #52	; 0x34
 8001a06:	d911      	bls.n	8001a2c <_vprintf+0x230>
 8001a08:	f812 1c01 	ldrb.w	r1, [r2, #-1]
 8001a0c:	292e      	cmp	r1, #46	; 0x2e
 8001a0e:	f102 33ff 	add.w	r3, r2, #4294967295	; 0xffffffff
 8001a12:	d028      	beq.n	8001a66 <_vprintf+0x26a>
 8001a14:	469c      	mov	ip, r3
 8001a16:	f04f 0e30 	mov.w	lr, #48	; 0x30
 8001a1a:	4663      	mov	r3, ip
 8001a1c:	f81c 1901 	ldrb.w	r1, [ip], #-1
 8001a20:	2939      	cmp	r1, #57	; 0x39
 8001a22:	d01d      	beq.n	8001a60 <_vprintf+0x264>
 8001a24:	292e      	cmp	r1, #46	; 0x2e
 8001a26:	d01e      	beq.n	8001a66 <_vprintf+0x26a>
 8001a28:	3101      	adds	r1, #1
 8001a2a:	7019      	strb	r1, [r3, #0]
 8001a2c:	f106 0358 	add.w	r3, r6, #88	; 0x58
 8001a30:	446b      	add	r3, sp
 8001a32:	f813 3c41 	ldrb.w	r3, [r3, #-65]
 8001a36:	2b2e      	cmp	r3, #46	; 0x2e
 8001a38:	bf08      	it	eq
 8001a3a:	f106 36ff 	addeq.w	r6, r6, #4294967295	; 0xffffffff
 8001a3e:	46b2      	mov	sl, r6
 8001a40:	9b03      	ldr	r3, [sp, #12]
 8001a42:	4553      	cmp	r3, sl
 8001a44:	dc2d      	bgt.n	8001aa2 <_vprintf+0x2a6>
 8001a46:	2e00      	cmp	r6, #0
 8001a48:	f77f af7f 	ble.w	800194a <_vprintf+0x14e>
 8001a4c:	f819 1b01 	ldrb.w	r1, [r9], #1
 8001a50:	a801      	add	r0, sp, #4
 8001a52:	f7ff fdff 	bl	8001654 <_xputch>
 8001a56:	3e01      	subs	r6, #1
 8001a58:	e7f5      	b.n	8001a46 <_vprintf+0x24a>
 8001a5a:	434b      	muls	r3, r1
 8001a5c:	3e01      	subs	r6, #1
 8001a5e:	e7b8      	b.n	80019d2 <_vprintf+0x1d6>
 8001a60:	f88c e001 	strb.w	lr, [ip, #1]
 8001a64:	e7d9      	b.n	8001a1a <_vprintf+0x21e>
 8001a66:	3b01      	subs	r3, #1
 8001a68:	f04f 0c30 	mov.w	ip, #48	; 0x30
 8001a6c:	7819      	ldrb	r1, [r3, #0]
 8001a6e:	2939      	cmp	r1, #57	; 0x39
 8001a70:	d10d      	bne.n	8001a8e <_vprintf+0x292>
 8001a72:	454b      	cmp	r3, r9
 8001a74:	d208      	bcs.n	8001a88 <_vprintf+0x28c>
 8001a76:	1c51      	adds	r1, r2, #1
 8001a78:	1c9e      	adds	r6, r3, #2
 8001a7a:	3202      	adds	r2, #2
 8001a7c:	4296      	cmp	r6, r2
 8001a7e:	d10b      	bne.n	8001a98 <_vprintf+0x29c>
 8001a80:	2231      	movs	r2, #49	; 0x31
 8001a82:	705a      	strb	r2, [r3, #1]
 8001a84:	4606      	mov	r6, r0
 8001a86:	e7d1      	b.n	8001a2c <_vprintf+0x230>
 8001a88:	f803 c901 	strb.w	ip, [r3], #-1
 8001a8c:	e7ee      	b.n	8001a6c <_vprintf+0x270>
 8001a8e:	454b      	cmp	r3, r9
 8001a90:	d3f1      	bcc.n	8001a76 <_vprintf+0x27a>
 8001a92:	292d      	cmp	r1, #45	; 0x2d
 8001a94:	d1c8      	bne.n	8001a28 <_vprintf+0x22c>
 8001a96:	e7ee      	b.n	8001a76 <_vprintf+0x27a>
 8001a98:	f811 cd01 	ldrb.w	ip, [r1, #-1]!
 8001a9c:	f802 cd01 	strb.w	ip, [r2, #-1]!
 8001aa0:	e7ec      	b.n	8001a7c <_vprintf+0x280>
 8001aa2:	2120      	movs	r1, #32
 8001aa4:	a801      	add	r0, sp, #4
 8001aa6:	f7ff fdd5 	bl	8001654 <_xputch>
 8001aaa:	f10a 0a01 	add.w	sl, sl, #1
 8001aae:	e7c7      	b.n	8001a40 <_vprintf+0x244>
 8001ab0:	2308      	movs	r3, #8
 8001ab2:	f854 6b04 	ldr.w	r6, [r4], #4
 8001ab6:	9303      	str	r3, [sp, #12]
 8001ab8:	2130      	movs	r1, #48	; 0x30
 8001aba:	2320      	movs	r3, #32
 8001abc:	a801      	add	r0, sp, #4
 8001abe:	9301      	str	r3, [sp, #4]
 8001ac0:	f7ff fdc8 	bl	8001654 <_xputch>
 8001ac4:	2178      	movs	r1, #120	; 0x78
 8001ac6:	a801      	add	r0, sp, #4
 8001ac8:	f7ff fdc4 	bl	8001654 <_xputch>
 8001acc:	4631      	mov	r1, r6
 8001ace:	a801      	add	r0, sp, #4
 8001ad0:	f7ff fe37 	bl	8001742 <_format_hex>
 8001ad4:	e739      	b.n	800194a <_vprintf+0x14e>
 8001ad6:	f854 9b04 	ldr.w	r9, [r4], #4
 8001ada:	2600      	movs	r6, #0
 8001adc:	f819 3006 	ldrb.w	r3, [r9, r6]
 8001ae0:	b993      	cbnz	r3, 8001b08 <_vprintf+0x30c>
 8001ae2:	9b01      	ldr	r3, [sp, #4]
 8001ae4:	07d9      	lsls	r1, r3, #31
 8001ae6:	d503      	bpl.n	8001af0 <_vprintf+0x2f4>
 8001ae8:	9b02      	ldr	r3, [sp, #8]
 8001aea:	429e      	cmp	r6, r3
 8001aec:	bfa8      	it	ge
 8001aee:	461e      	movge	r6, r3
 8001af0:	9b01      	ldr	r3, [sp, #4]
 8001af2:	065a      	lsls	r2, r3, #25
 8001af4:	f106 0a01 	add.w	sl, r6, #1
 8001af8:	d403      	bmi.n	8001b02 <_vprintf+0x306>
 8001afa:	9b03      	ldr	r3, [sp, #12]
 8001afc:	429e      	cmp	r6, r3
 8001afe:	db05      	blt.n	8001b0c <_vprintf+0x310>
 8001b00:	4656      	mov	r6, sl
 8001b02:	f109 39ff 	add.w	r9, r9, #4294967295	; 0xffffffff
 8001b06:	e00d      	b.n	8001b24 <_vprintf+0x328>
 8001b08:	3601      	adds	r6, #1
 8001b0a:	e7e7      	b.n	8001adc <_vprintf+0x2e0>
 8001b0c:	2120      	movs	r1, #32
 8001b0e:	a801      	add	r0, sp, #4
 8001b10:	f7ff fda0 	bl	8001654 <_xputch>
 8001b14:	4656      	mov	r6, sl
 8001b16:	e7eb      	b.n	8001af0 <_vprintf+0x2f4>
 8001b18:	a801      	add	r0, sp, #4
 8001b1a:	f7ff fd9b 	bl	8001654 <_xputch>
 8001b1e:	9b02      	ldr	r3, [sp, #8]
 8001b20:	3b01      	subs	r3, #1
 8001b22:	9302      	str	r3, [sp, #8]
 8001b24:	9b01      	ldr	r3, [sp, #4]
 8001b26:	07db      	lsls	r3, r3, #31
 8001b28:	d501      	bpl.n	8001b2e <_vprintf+0x332>
 8001b2a:	9b02      	ldr	r3, [sp, #8]
 8001b2c:	b11b      	cbz	r3, 8001b36 <_vprintf+0x33a>
 8001b2e:	f819 1f01 	ldrb.w	r1, [r9, #1]!
 8001b32:	2900      	cmp	r1, #0
 8001b34:	d1f0      	bne.n	8001b18 <_vprintf+0x31c>
 8001b36:	9b03      	ldr	r3, [sp, #12]
 8001b38:	429e      	cmp	r6, r3
 8001b3a:	f6bf af06 	bge.w	800194a <_vprintf+0x14e>
 8001b3e:	2120      	movs	r1, #32
 8001b40:	a801      	add	r0, sp, #4
 8001b42:	f7ff fd87 	bl	8001654 <_xputch>
 8001b46:	3601      	adds	r6, #1
 8001b48:	e7f5      	b.n	8001b36 <_vprintf+0x33a>
 8001b4a:	f854 1b04 	ldr.w	r1, [r4], #4
 8001b4e:	e707      	b.n	8001960 <_vprintf+0x164>
 8001b50:	9b01      	ldr	r3, [sp, #4]
 8001b52:	f043 0302 	orr.w	r3, r3, #2
 8001b56:	9301      	str	r3, [sp, #4]
 8001b58:	f854 1b04 	ldr.w	r1, [r4], #4
 8001b5c:	e7b7      	b.n	8001ace <_vprintf+0x2d2>
 8001b5e:	bf00      	nop

08001b60 <printf>:
 8001b60:	b40f      	push	{r0, r1, r2, r3}
 8001b62:	b507      	push	{r0, r1, r2, lr}
 8001b64:	aa04      	add	r2, sp, #16
 8001b66:	f06f 4000 	mvn.w	r0, #2147483648	; 0x80000000
 8001b6a:	f852 1b04 	ldr.w	r1, [r2], #4
 8001b6e:	9201      	str	r2, [sp, #4]
 8001b70:	f7ff fe44 	bl	80017fc <_vprintf>
 8001b74:	b003      	add	sp, #12
 8001b76:	f85d eb04 	ldr.w	lr, [sp], #4
 8001b7a:	b004      	add	sp, #16
 8001b7c:	4770      	bx	lr
	...

08001b80 <snprintf>:
 8001b80:	b40c      	push	{r2, r3}
 8001b82:	b513      	push	{r0, r1, r4, lr}
 8001b84:	4c09      	ldr	r4, [pc, #36]	; (8001bac <snprintf+0x2c>)
 8001b86:	aa04      	add	r2, sp, #16
 8001b88:	460b      	mov	r3, r1
 8001b8a:	6020      	str	r0, [r4, #0]
 8001b8c:	f852 1b04 	ldr.w	r1, [r2], #4
 8001b90:	9201      	str	r2, [sp, #4]
 8001b92:	4618      	mov	r0, r3
 8001b94:	f7ff fe32 	bl	80017fc <_vprintf>
 8001b98:	6822      	ldr	r2, [r4, #0]
 8001b9a:	2300      	movs	r3, #0
 8001b9c:	7013      	strb	r3, [r2, #0]
 8001b9e:	6023      	str	r3, [r4, #0]
 8001ba0:	b002      	add	sp, #8
 8001ba2:	e8bd 4010 	ldmia.w	sp!, {r4, lr}
 8001ba6:	b002      	add	sp, #8
 8001ba8:	4770      	bx	lr
 8001baa:	bf00      	nop
 8001bac:	2000107c 	andcs	r1, r0, ip, ror r0

08001bb0 <vsnprintf>:
 8001bb0:	b538      	push	{r3, r4, r5, lr}
 8001bb2:	4c06      	ldr	r4, [pc, #24]	; (8001bcc <vsnprintf+0x1c>)
 8001bb4:	4605      	mov	r5, r0
 8001bb6:	4608      	mov	r0, r1
 8001bb8:	4611      	mov	r1, r2
 8001bba:	461a      	mov	r2, r3
 8001bbc:	6025      	str	r5, [r4, #0]
 8001bbe:	f7ff fe1d 	bl	80017fc <_vprintf>
 8001bc2:	6822      	ldr	r2, [r4, #0]
 8001bc4:	2300      	movs	r3, #0
 8001bc6:	7013      	strb	r3, [r2, #0]
 8001bc8:	6023      	str	r3, [r4, #0]
 8001bca:	bd38      	pop	{r3, r4, r5, pc}
 8001bcc:	2000107c 	andcs	r1, r0, ip, ror r0

08001bd0 <puts>:
 8001bd0:	b508      	push	{r3, lr}
 8001bd2:	f005 ffd9 	bl	8007b88 <console_puts>
 8001bd6:	200a      	movs	r0, #10
 8001bd8:	f005 ffd4 	bl	8007b84 <console_putc>
 8001bdc:	2001      	movs	r0, #1
 8001bde:	bd08      	pop	{r3, pc}

08001be0 <RDMSensorBH170::Initialize()>:
 8001be0:	f890 0048 	ldrb.w	r0, [r0, #72]	; 0x48
 8001be4:	4770      	bx	lr

08001be6 <RDMSensorMCP9808::Initialize()>:
 8001be6:	f890 0048 	ldrb.w	r0, [r0, #72]	; 0x48
 8001bea:	4770      	bx	lr

08001bec <RDMSensorHTU21DHumidity::Initialize()>:
 8001bec:	f890 0048 	ldrb.w	r0, [r0, #72]	; 0x48
 8001bf0:	4770      	bx	lr

08001bf2 <RDMSensorHTU21DTemperature::Initialize()>:
 8001bf2:	f890 0048 	ldrb.w	r0, [r0, #72]	; 0x48
 8001bf6:	4770      	bx	lr

08001bf8 <RDMSensorINA219Current::Initialize()>:
 8001bf8:	f890 0048 	ldrb.w	r0, [r0, #72]	; 0x48
 8001bfc:	4770      	bx	lr

08001bfe <RDMSensorINA219Power::Initialize()>:
 8001bfe:	f890 0048 	ldrb.w	r0, [r0, #72]	; 0x48
 8001c02:	4770      	bx	lr

08001c04 <RDMSensorINA219Voltage::Initialize()>:
 8001c04:	f890 0048 	ldrb.w	r0, [r0, #72]	; 0x48
 8001c08:	4770      	bx	lr

08001c0a <RDMSensorSI7021Humidity::Initialize()>:
 8001c0a:	f890 0048 	ldrb.w	r0, [r0, #72]	; 0x48
 8001c0e:	4770      	bx	lr

08001c10 <RDMSensorSI7021Temperature::Initialize()>:
 8001c10:	f890 0048 	ldrb.w	r0, [r0, #72]	; 0x48
 8001c14:	4770      	bx	lr

08001c16 <RDMSensorThermistor::Initialize()>:
 8001c16:	f890 0048 	ldrb.w	r0, [r0, #72]	; 0x48
 8001c1a:	4770      	bx	lr

08001c1c <RDMSensorThermistor::~RDMSensorThermistor()>:
 8001c1c:	4770      	bx	lr

08001c1e <RDMSensorSI7021Temperature::~RDMSensorSI7021Temperature()>:
 8001c1e:	4770      	bx	lr

08001c20 <RDMSensorSI7021Humidity::~RDMSensorSI7021Humidity()>:
 8001c20:	4770      	bx	lr

08001c22 <RDMSensorINA219Voltage::~RDMSensorINA219Voltage()>:
 8001c22:	4770      	bx	lr

08001c24 <RDMSensorINA219Power::~RDMSensorINA219Power()>:
 8001c24:	4770      	bx	lr

08001c26 <RDMSensorINA219Current::~RDMSensorINA219Current()>:
 8001c26:	4770      	bx	lr

08001c28 <RDMSensorHTU21DTemperature::~RDMSensorHTU21DTemperature()>:
 8001c28:	4770      	bx	lr

08001c2a <RDMSensorHTU21DHumidity::~RDMSensorHTU21DHumidity()>:
 8001c2a:	4770      	bx	lr

08001c2c <RDMSensorMCP9808::~RDMSensorMCP9808()>:
 8001c2c:	4770      	bx	lr

08001c2e <RDMSensorBH170::~RDMSensorBH170()>:
 8001c2e:	4770      	bx	lr

08001c30 <RDMSensorThermistor::~RDMSensorThermistor()>:
 8001c30:	b510      	push	{r4, lr}
 8001c32:	2160      	movs	r1, #96	; 0x60
 8001c34:	4604      	mov	r4, r0
 8001c36:	f006 fa00 	bl	800803a <operator delete(void*, unsigned int)>
 8001c3a:	4620      	mov	r0, r4
 8001c3c:	bd10      	pop	{r4, pc}

08001c3e <RDMSensorSI7021Temperature::~RDMSensorSI7021Temperature()>:
 8001c3e:	b510      	push	{r4, lr}
 8001c40:	214c      	movs	r1, #76	; 0x4c
 8001c42:	4604      	mov	r4, r0
 8001c44:	f006 f9f9 	bl	800803a <operator delete(void*, unsigned int)>
 8001c48:	4620      	mov	r0, r4
 8001c4a:	bd10      	pop	{r4, pc}

08001c4c <RDMSensorSI7021Humidity::~RDMSensorSI7021Humidity()>:
 8001c4c:	b510      	push	{r4, lr}
 8001c4e:	214c      	movs	r1, #76	; 0x4c
 8001c50:	4604      	mov	r4, r0
 8001c52:	f006 f9f2 	bl	800803a <operator delete(void*, unsigned int)>
 8001c56:	4620      	mov	r0, r4
 8001c58:	bd10      	pop	{r4, pc}

08001c5a <RDMSensorINA219Voltage::~RDMSensorINA219Voltage()>:
 8001c5a:	b510      	push	{r4, lr}
 8001c5c:	2160      	movs	r1, #96	; 0x60
 8001c5e:	4604      	mov	r4, r0
 8001c60:	f006 f9eb 	bl	800803a <operator delete(void*, unsigned int)>
 8001c64:	4620      	mov	r0, r4
 8001c66:	bd10      	pop	{r4, pc}

08001c68 <RDMSensorINA219Power::~RDMSensorINA219Power()>:
 8001c68:	b510      	push	{r4, lr}
 8001c6a:	2160      	movs	r1, #96	; 0x60
 8001c6c:	4604      	mov	r4, r0
 8001c6e:	f006 f9e4 	bl	800803a <operator delete(void*, unsigned int)>
 8001c72:	4620      	mov	r0, r4
 8001c74:	bd10      	pop	{r4, pc}

08001c76 <RDMSensorINA219Current::~RDMSensorINA219Current()>:
 8001c76:	b510      	push	{r4, lr}
 8001c78:	2160      	movs	r1, #96	; 0x60
 8001c7a:	4604      	mov	r4, r0
 8001c7c:	f006 f9dd 	bl	800803a <operator delete(void*, unsigned int)>
 8001c80:	4620      	mov	r0, r4
 8001c82:	bd10      	pop	{r4, pc}

08001c84 <RDMSensorHTU21DTemperature::~RDMSensorHTU21DTemperature()>:
 8001c84:	b510      	push	{r4, lr}
 8001c86:	214c      	movs	r1, #76	; 0x4c
 8001c88:	4604      	mov	r4, r0
 8001c8a:	f006 f9d6 	bl	800803a <operator delete(void*, unsigned int)>
 8001c8e:	4620      	mov	r0, r4
 8001c90:	bd10      	pop	{r4, pc}

08001c92 <RDMSensorHTU21DHumidity::~RDMSensorHTU21DHumidity()>:
 8001c92:	b510      	push	{r4, lr}
 8001c94:	214c      	movs	r1, #76	; 0x4c
 8001c96:	4604      	mov	r4, r0
 8001c98:	f006 f9cf 	bl	800803a <operator delete(void*, unsigned int)>
 8001c9c:	4620      	mov	r0, r4
 8001c9e:	bd10      	pop	{r4, pc}

08001ca0 <RDMSensorMCP9808::~RDMSensorMCP9808()>:
 8001ca0:	b510      	push	{r4, lr}
 8001ca2:	214c      	movs	r1, #76	; 0x4c
 8001ca4:	4604      	mov	r4, r0
 8001ca6:	f006 f9c8 	bl	800803a <operator delete(void*, unsigned int)>
 8001caa:	4620      	mov	r0, r4
 8001cac:	bd10      	pop	{r4, pc}

08001cae <RDMSensorBH170::~RDMSensorBH170()>:
 8001cae:	b510      	push	{r4, lr}
 8001cb0:	214c      	movs	r1, #76	; 0x4c
 8001cb2:	4604      	mov	r4, r0
 8001cb4:	f006 f9c1 	bl	800803a <operator delete(void*, unsigned int)>
 8001cb8:	4620      	mov	r0, r4
 8001cba:	bd10      	pop	{r4, pc}
 8001cbc:	0000      	movs	r0, r0
	...

08001cc0 <RDMSensorThermistor::GetValue()>:
 8001cc0:	e92d 41f0 	stmdb	sp!, {r4, r5, r6, r7, r8, lr}
 8001cc4:	4604      	mov	r4, r0
 8001cc6:	2504      	movs	r5, #4
 8001cc8:	2600      	movs	r6, #0
 8001cca:	2700      	movs	r7, #0
 8001ccc:	f100 0840 	add.w	r8, r0, #64	; 0x40
 8001cd0:	f894 105c 	ldrb.w	r1, [r4, #92]	; 0x5c
 8001cd4:	4640      	mov	r0, r8
 8001cd6:	f000 fe11 	bl	80028fc <MCP3424::GetVoltage(unsigned long)>
 8001cda:	4630      	mov	r0, r6
 8001cdc:	4639      	mov	r1, r7
 8001cde:	ec53 2b10 	vmov	r2, r3, d0
 8001ce2:	f7fe fa8b 	bl	80001fc <__adddf3>
 8001ce6:	3d01      	subs	r5, #1
 8001ce8:	4606      	mov	r6, r0
 8001cea:	460f      	mov	r7, r1
 8001cec:	d1f0      	bne.n	8001cd0 <RDMSensorThermistor::GetValue()+0x10>
 8001cee:	4b1c      	ldr	r3, [pc, #112]	; (8001d60 <RDMSensorThermistor::GetValue()+0xa0>)
 8001cf0:	2200      	movs	r2, #0
 8001cf2:	f7fe fc39 	bl	8000568 <__aeabi_dmul>
 8001cf6:	4602      	mov	r2, r0
 8001cf8:	460b      	mov	r3, r1
 8001cfa:	a117      	add	r1, pc, #92	; (adr r1, 8001d58 <RDMSensorThermistor::GetValue()+0x98>)
 8001cfc:	e9d1 0100 	ldrd	r0, r1, [r1]
 8001d00:	f7fe fd5c 	bl	80007bc <__aeabi_ddiv>
 8001d04:	f7fe fe42 	bl	800098c <__aeabi_d2iz>
 8001d08:	6da2      	ldr	r2, [r4, #88]	; 0x58
 8001d0a:	eddf 7a16 	vldr	s15, [pc, #88]	; 8001d64 <RDMSensorThermistor::GetValue()+0xa4>
 8001d0e:	f5a0 4383 	sub.w	r3, r0, #16768	; 0x4180
 8001d12:	3b20      	subs	r3, #32
 8001d14:	4413      	add	r3, r2
 8001d16:	ee00 3a10 	vmov	s0, r3
 8001d1a:	eeb8 0a40 	vcvt.f32.u32	s0, s0
 8001d1e:	ee80 0a27 	vdiv.f32	s0, s0, s15
 8001d22:	f006 f9f5 	bl	8008110 <logf>
 8001d26:	ed9f 7a10 	vldr	s14, [pc, #64]	; 8001d68 <RDMSensorThermistor::GetValue()+0xa8>
 8001d2a:	eec0 7a07 	vdiv.f32	s15, s0, s14
 8001d2e:	ed9f 7a0f 	vldr	s14, [pc, #60]	; 8001d6c <RDMSensorThermistor::GetValue()+0xac>
 8001d32:	ee37 7a87 	vadd.f32	s14, s15, s14
 8001d36:	eef7 6a00 	vmov.f32	s13, #112	; 0x3f800000  1.0
 8001d3a:	eec6 7a87 	vdiv.f32	s15, s13, s14
 8001d3e:	ed9f 7a0c 	vldr	s14, [pc, #48]	; 8001d70 <RDMSensorThermistor::GetValue()+0xb0>
 8001d42:	ee77 7ac7 	vsub.f32	s15, s15, s14
 8001d46:	eefd 7ae7 	vcvt.s32.f32	s15, s15
 8001d4a:	ee17 3a90 	vmov	r3, s15
 8001d4e:	b218      	sxth	r0, r3
 8001d50:	e8bd 81f0 	ldmia.w	sp!, {r4, r5, r6, r7, r8, pc}
 8001d54:	f3af 8000 	nop.w
 8001d58:	00000000 	andeq	r0, r0, r0
 8001d5c:	40e09a00 	rscmi	r9, r0, r0, lsl #20
 8001d60:	3fd00000 	svccc	0x00d00000
 8001d64:	461c4000 	ldrmi	r4, [ip], -r0
 8001d68:	4576e000 	ldrbmi	lr, [r6, #-0]!
 8001d6c:	3b5bcf0f 	blcc	96f59b0 <_sidata+0x16e9c8c>
 8001d70:	43889333 	orrmi	r9, r8, #-872415232	; 0xcc000000

08001d74 <RDMSensorSI7021Temperature::GetValue()>:
 8001d74:	b508      	push	{r3, lr}
 8001d76:	3040      	adds	r0, #64	; 0x40
 8001d78:	f000 fea6 	bl	8002ac8 <sensor::SI7021::GetTemperature()>
 8001d7c:	eebd 0ac0 	vcvt.s32.f32	s0, s0
 8001d80:	ee10 3a10 	vmov	r3, s0
 8001d84:	b218      	sxth	r0, r3
 8001d86:	bd08      	pop	{r3, pc}

08001d88 <RDMSensorSI7021Humidity::GetValue()>:
 8001d88:	b508      	push	{r3, lr}
 8001d8a:	3040      	adds	r0, #64	; 0x40
 8001d8c:	f000 feb0 	bl	8002af0 <sensor::SI7021::GetHumidity()>
 8001d90:	eebd 0ac0 	vcvt.s32.f32	s0, s0
 8001d94:	ee10 3a10 	vmov	r3, s0
 8001d98:	b218      	sxth	r0, r3
 8001d9a:	bd08      	pop	{r3, pc}

08001d9c <RDMSensorINA219Voltage::GetValue()>:
 8001d9c:	b508      	push	{r3, lr}
 8001d9e:	3040      	adds	r0, #64	; 0x40
 8001da0:	f000 fcc2 	bl	8002728 <sensor::INA219::GetBusVoltage()>
 8001da4:	eddf 7a04 	vldr	s15, [pc, #16]	; 8001db8 <RDMSensorINA219Voltage::GetValue()+0x1c>
 8001da8:	ee20 0a27 	vmul.f32	s0, s0, s15
 8001dac:	eebd 0ac0 	vcvt.s32.f32	s0, s0
 8001db0:	ee10 3a10 	vmov	r3, s0
 8001db4:	b218      	sxth	r0, r3
 8001db6:	bd08      	pop	{r3, pc}
 8001db8:	447a0000 	ldrbtmi	r0, [sl], #-0

08001dbc <RDMSensorINA219Power::GetValue()>:
 8001dbc:	b508      	push	{r3, lr}
 8001dbe:	3040      	adds	r0, #64	; 0x40
 8001dc0:	f000 fcc0 	bl	8002744 <sensor::INA219::GetBusPower()>
 8001dc4:	eebd 0ac0 	vcvt.s32.f32	s0, s0
 8001dc8:	ee10 3a10 	vmov	r3, s0
 8001dcc:	b218      	sxth	r0, r3
 8001dce:	bd08      	pop	{r3, pc}

08001dd0 <RDMSensorINA219Current::GetValue()>:
 8001dd0:	b508      	push	{r3, lr}
 8001dd2:	3040      	adds	r0, #64	; 0x40
 8001dd4:	f000 fc8c 	bl	80026f0 <sensor::INA219::GetShuntCurrent()>
 8001dd8:	eddf 7a04 	vldr	s15, [pc, #16]	; 8001dec <RDMSensorINA219Current::GetValue()+0x1c>
 8001ddc:	ee20 0a27 	vmul.f32	s0, s0, s15
 8001de0:	eebd 0ac0 	vcvt.s32.f32	s0, s0
 8001de4:	ee10 3a10 	vmov	r3, s0
 8001de8:	b218      	sxth	r0, r3
 8001dea:	bd08      	pop	{r3, pc}
 8001dec:	447a0000 	ldrbtmi	r0, [sl], #-0

08001df0 <RDMSensorHTU21DTemperature::GetValue()>:
 8001df0:	b508      	push	{r3, lr}
 8001df2:	3040      	adds	r0, #64	; 0x40
 8001df4:	f000 fb5c 	bl	80024b0 <sensor::HTU21D::GetTemperature()>
 8001df8:	eebd 0ac0 	vcvt.s32.f32	s0, s0
 8001dfc:	ee10 3a10 	vmov	r3, s0
 8001e00:	b218      	sxth	r0, r3
 8001e02:	bd08      	pop	{r3, pc}

08001e04 <RDMSensorHTU21DHumidity::GetValue()>:
 8001e04:	b508      	push	{r3, lr}
 8001e06:	3040      	adds	r0, #64	; 0x40
 8001e08:	f000 fb66 	bl	80024d8 <sensor::HTU21D::GetHumidity()>
 8001e0c:	eebd 0ac0 	vcvt.s32.f32	s0, s0
 8001e10:	ee10 3a10 	vmov	r3, s0
 8001e14:	b218      	sxth	r0, r3
 8001e16:	bd08      	pop	{r3, pc}

08001e18 <RDMSensorMCP9808::GetValue()>:
 8001e18:	b508      	push	{r3, lr}
 8001e1a:	3040      	adds	r0, #64	; 0x40
 8001e1c:	f000 fdde 	bl	80029dc <sensor::MCP9808::Get()>
 8001e20:	eebd 0ac0 	vcvt.s32.f32	s0, s0
 8001e24:	ee10 3a10 	vmov	r3, s0
 8001e28:	b218      	sxth	r0, r3
 8001e2a:	bd08      	pop	{r3, pc}

08001e2c <RDMSensorBH170::GetValue()>:
 8001e2c:	b508      	push	{r3, lr}
 8001e2e:	3040      	adds	r0, #64	; 0x40
 8001e30:	f000 fab8 	bl	80023a4 <sensor::BH170::Get()>
 8001e34:	f3c0 000e 	ubfx	r0, r0, #0, #15
 8001e38:	bd08      	pop	{r3, pc}
	...

08001e3c <RDMSensor::RDMSensor(unsigned char)>:
 8001e3c:	4a07      	ldr	r2, [pc, #28]	; (8001e5c <RDMSensor::RDMSensor(unsigned char)+0x20>)
 8001e3e:	6002      	str	r2, [r0, #0]
 8001e40:	2203      	movs	r2, #3
 8001e42:	f880 2033 	strb.w	r2, [r0, #51]	; 0x33
 8001e46:	f647 72ff 	movw	r2, #32767	; 0x7fff
 8001e4a:	86c2      	strh	r2, [r0, #54]	; 0x36
 8001e4c:	f44f 4200 	mov.w	r2, #32768	; 0x8000
 8001e50:	7101      	strb	r1, [r0, #4]
 8001e52:	7181      	strb	r1, [r0, #6]
 8001e54:	f880 103c 	strb.w	r1, [r0, #60]	; 0x3c
 8001e58:	8702      	strh	r2, [r0, #56]	; 0x38
 8001e5a:	4770      	bx	lr
 8001e5c:	08009ee0 	stmdaeq	r0, {r5, r6, r7, r9, sl, fp, ip, pc}

08001e60 <RDMSensor::SetDescription(char const*)>:
 8001e60:	b510      	push	{r4, lr}
 8001e62:	2300      	movs	r3, #0
 8001e64:	f100 0411 	add.w	r4, r0, #17
 8001e68:	5cca      	ldrb	r2, [r1, r3]
 8001e6a:	b122      	cbz	r2, 8001e76 <RDMSensor::SetDescription(char const*)+0x16>
 8001e6c:	3301      	adds	r3, #1
 8001e6e:	2b20      	cmp	r3, #32
 8001e70:	f804 2f01 	strb.w	r2, [r4, #1]!
 8001e74:	d1f8      	bne.n	8001e68 <RDMSensor::SetDescription(char const*)+0x8>
 8001e76:	f880 3032 	strb.w	r3, [r0, #50]	; 0x32
 8001e7a:	bd10      	pop	{r4, pc}

08001e7c <RDMSensorsParamsStore::Copy(rdm::sensorsparams::Params*)>:
 8001e7c:	b507      	push	{r0, r1, r2, lr}
 8001e7e:	2300      	movs	r3, #0
 8001e80:	2101      	movs	r1, #1
 8001e82:	e9cd 3100 	strd	r3, r1, [sp]
 8001e86:	4602      	mov	r2, r0
 8001e88:	4804      	ldr	r0, [pc, #16]	; (8001e9c <RDMSensorsParamsStore::Copy(rdm::sensorsparams::Params*)+0x20>)
 8001e8a:	233c      	movs	r3, #60	; 0x3c
 8001e8c:	6800      	ldr	r0, [r0, #0]
 8001e8e:	2115      	movs	r1, #21
 8001e90:	f005 f940 	bl	8007114 <ConfigStore::Copy(configstore::Store, void*, unsigned long, unsigned long, bool)>
 8001e94:	b003      	add	sp, #12
 8001e96:	f85d fb04 	ldr.w	pc, [sp], #4
 8001e9a:	bf00      	nop
 8001e9c:	20001638 	andcs	r1, r0, r8, lsr r6

08001ea0 <RDMSensorThermistor::RDMSensorThermistor(unsigned char, unsigned char, unsigned char, long)>:
 8001ea0:	b570      	push	{r4, r5, r6, lr}
 8001ea2:	4604      	mov	r4, r0
 8001ea4:	4616      	mov	r6, r2
 8001ea6:	461d      	mov	r5, r3
 8001ea8:	f7ff ffc8 	bl	8001e3c <RDMSensor::RDMSensor(unsigned char)>
 8001eac:	4631      	mov	r1, r6
 8001eae:	f104 0040 	add.w	r0, r4, #64	; 0x40
 8001eb2:	f000 fc8d 	bl	80027d0 <MCP3424::MCP3424(unsigned char)>
 8001eb6:	4b0a      	ldr	r3, [pc, #40]	; (8001ee0 <RDMSensorThermistor::RDMSensorThermistor(unsigned char, unsigned char, unsigned char, long)+0x40>)
 8001eb8:	6023      	str	r3, [r4, #0]
 8001eba:	9b04      	ldr	r3, [sp, #16]
 8001ebc:	65a3      	str	r3, [r4, #88]	; 0x58
 8001ebe:	2300      	movs	r3, #0
 8001ec0:	71e3      	strb	r3, [r4, #7]
 8001ec2:	4b08      	ldr	r3, [pc, #32]	; (8001ee4 <RDMSensorThermistor::RDMSensorThermistor(unsigned char, unsigned char, unsigned char, long)+0x44>)
 8001ec4:	60a3      	str	r3, [r4, #8]
 8001ec6:	337c      	adds	r3, #124	; 0x7c
 8001ec8:	60e3      	str	r3, [r4, #12]
 8001eca:	237d      	movs	r3, #125	; 0x7d
 8001ecc:	4620      	mov	r0, r4
 8001ece:	4906      	ldr	r1, [pc, #24]	; (8001ee8 <RDMSensorThermistor::RDMSensorThermistor(unsigned char, unsigned char, unsigned char, long)+0x48>)
 8001ed0:	f884 505c 	strb.w	r5, [r4, #92]	; 0x5c
 8001ed4:	8223      	strh	r3, [r4, #16]
 8001ed6:	f7ff ffc3 	bl	8001e60 <RDMSensor::SetDescription(char const*)>
 8001eda:	4620      	mov	r0, r4
 8001edc:	bd70      	pop	{r4, r5, r6, pc}
 8001ede:	bf00      	nop
 8001ee0:	08009fd0 	stmdaeq	r0, {r4, r6, r7, r8, r9, sl, fp, ip, pc}
 8001ee4:	ffc90001 			; <UNDEFINED> instruction: 0xffc90001
 8001ee8:	08009fe0 	stmdaeq	r0, {r5, r6, r7, r8, r9, sl, fp, ip, pc}

08001eec <RDMSensorsParams::RDMSensorsParams()>:
 8001eec:	b510      	push	{r4, lr}
 8001eee:	223c      	movs	r2, #60	; 0x3c
 8001ef0:	4604      	mov	r4, r0
 8001ef2:	2100      	movs	r1, #0
 8001ef4:	f006 f973 	bl	80081de <memset>
 8001ef8:	4620      	mov	r0, r4
 8001efa:	bd10      	pop	{r4, pc}

08001efc <RDMSensorsParams::Load()>:
 8001efc:	b538      	push	{r3, r4, r5, lr}
 8001efe:	2500      	movs	r5, #0
 8001f00:	4604      	mov	r4, r0
 8001f02:	7005      	strb	r5, [r0, #0]
 8001f04:	7045      	strb	r5, [r0, #1]
 8001f06:	7085      	strb	r5, [r0, #2]
 8001f08:	70c5      	strb	r5, [r0, #3]
 8001f0a:	f7ff ffb7 	bl	8001e7c <RDMSensorsParamsStore::Copy(rdm::sensorsparams::Params*)>
 8001f0e:	6823      	ldr	r3, [r4, #0]
 8001f10:	2b07      	cmp	r3, #7
 8001f12:	d906      	bls.n	8001f22 <RDMSensorsParams::Load()+0x26>
 8001f14:	4629      	mov	r1, r5
 8001f16:	4620      	mov	r0, r4
 8001f18:	223c      	movs	r2, #60	; 0x3c
 8001f1a:	e8bd 4038 	ldmia.w	sp!, {r3, r4, r5, lr}
 8001f1e:	f006 b95e 	b.w	80081de <memset>
 8001f22:	bd38      	pop	{r3, r4, r5, pc}

08001f24 <RDMSensorsParams::Add(RDMSensor*)>:
 8001f24:	b538      	push	{r3, r4, r5, lr}
 8001f26:	680b      	ldr	r3, [r1, #0]
 8001f28:	4608      	mov	r0, r1
 8001f2a:	689b      	ldr	r3, [r3, #8]
 8001f2c:	460c      	mov	r4, r1
 8001f2e:	4798      	blx	r3
 8001f30:	4605      	mov	r5, r0
 8001f32:	b160      	cbz	r0, 8001f4e <RDMSensorsParams::Add(RDMSensor*)+0x2a>
 8001f34:	4b08      	ldr	r3, [pc, #32]	; (8001f58 <RDMSensorsParams::Add(RDMSensor*)+0x34>)
 8001f36:	681a      	ldr	r2, [r3, #0]
 8001f38:	6811      	ldr	r1, [r2, #0]
 8001f3a:	b131      	cbz	r1, 8001f4a <RDMSensorsParams::Add(RDMSensor*)+0x26>
 8001f3c:	7913      	ldrb	r3, [r2, #4]
 8001f3e:	2b10      	cmp	r3, #16
 8001f40:	d003      	beq.n	8001f4a <RDMSensorsParams::Add(RDMSensor*)+0x26>
 8001f42:	1c58      	adds	r0, r3, #1
 8001f44:	7110      	strb	r0, [r2, #4]
 8001f46:	f841 4023 	str.w	r4, [r1, r3, lsl #2]
 8001f4a:	4628      	mov	r0, r5
 8001f4c:	bd38      	pop	{r3, r4, r5, pc}
 8001f4e:	6823      	ldr	r3, [r4, #0]
 8001f50:	4620      	mov	r0, r4
 8001f52:	685b      	ldr	r3, [r3, #4]
 8001f54:	4798      	blx	r3
 8001f56:	e7f8      	b.n	8001f4a <RDMSensorsParams::Add(RDMSensor*)+0x26>
 8001f58:	20001094 	mulcs	r0, r4, r0

08001f5c <RDMSensorsParams::Set()>:
 8001f5c:	e92d 4ff0 	stmdb	sp!, {r4, r5, r6, r7, r8, r9, sl, fp, lr}
 8001f60:	f8df b3b0 	ldr.w	fp, [pc, #944]	; 8002314 <RDMSensorsParams::Set()+0x3b8>
 8001f64:	b085      	sub	sp, #20
 8001f66:	4605      	mov	r5, r0
 8001f68:	4607      	mov	r7, r0
 8001f6a:	f04f 0800 	mov.w	r8, #0
 8001f6e:	682b      	ldr	r3, [r5, #0]
 8001f70:	4543      	cmp	r3, r8
 8001f72:	d802      	bhi.n	8001f7a <RDMSensorsParams::Set()+0x1e>
 8001f74:	b005      	add	sp, #20
 8001f76:	e8bd 8ff0 	ldmia.w	sp!, {r4, r5, r6, r7, r8, r9, sl, fp, pc}
 8001f7a:	4bcc      	ldr	r3, [pc, #816]	; (80022ac <RDMSensorsParams::Set()+0x350>)
 8001f7c:	797e      	ldrb	r6, [r7, #5]
 8001f7e:	681b      	ldr	r3, [r3, #0]
 8001f80:	791c      	ldrb	r4, [r3, #4]
 8001f82:	793b      	ldrb	r3, [r7, #4]
 8001f84:	2b05      	cmp	r3, #5
 8001f86:	d86b      	bhi.n	8002060 <RDMSensorsParams::Set()+0x104>
 8001f88:	e8df f013 	tbh	[pc, r3, lsl #1]
 8001f8c:	00250006 	eoreq	r0, r5, r6
 8001f90:	00d6006e 	sbcseq	r0, r6, lr, rrx
 8001f94:	013200f1 	ldrsheq	r0, [r2, -r1]!
 8001f98:	204c      	movs	r0, #76	; 0x4c
 8001f9a:	f006 f850 	bl	800803e <operator new(unsigned int)>
 8001f9e:	4621      	mov	r1, r4
 8001fa0:	4681      	mov	r9, r0
 8001fa2:	f7ff ff4b 	bl	8001e3c <RDMSensor::RDMSensor(unsigned char)>
 8001fa6:	4631      	mov	r1, r6
 8001fa8:	f109 0040 	add.w	r0, r9, #64	; 0x40
 8001fac:	f000 f9c6 	bl	800233c <sensor::BH170::BH170(unsigned char)>
 8001fb0:	4bbf      	ldr	r3, [pc, #764]	; (80022b0 <RDMSensorsParams::Set()+0x354>)
 8001fb2:	f8c9 3000 	str.w	r3, [r9]
 8001fb6:	2318      	movs	r3, #24
 8001fb8:	f889 3007 	strb.w	r3, [r9, #7]
 8001fbc:	241a      	movs	r4, #26
 8001fbe:	f647 73ff 	movw	r3, #32767	; 0x7fff
 8001fc2:	e9c9 4302 	strd	r4, r3, [r9, #8]
 8001fc6:	49bb      	ldr	r1, [pc, #748]	; (80022b4 <RDMSensorsParams::Set()+0x358>)
 8001fc8:	f8a9 3010 	strh.w	r3, [r9, #16]
 8001fcc:	4648      	mov	r0, r9
 8001fce:	f7ff ff47 	bl	8001e60 <RDMSensor::SetDescription(char const*)>
 8001fd2:	4649      	mov	r1, r9
 8001fd4:	e041      	b.n	800205a <RDMSensorsParams::Set()+0xfe>
 8001fd6:	204c      	movs	r0, #76	; 0x4c
 8001fd8:	f006 f831 	bl	800803e <operator new(unsigned int)>
 8001fdc:	4621      	mov	r1, r4
 8001fde:	4682      	mov	sl, r0
 8001fe0:	f7ff ff2c 	bl	8001e3c <RDMSensor::RDMSensor(unsigned char)>
 8001fe4:	4631      	mov	r1, r6
 8001fe6:	f10a 0040 	add.w	r0, sl, #64	; 0x40
 8001fea:	f000 f9ff 	bl	80023ec <sensor::HTU21D::HTU21D(unsigned char)>
 8001fee:	4ab2      	ldr	r2, [pc, #712]	; (80022b8 <RDMSensorsParams::Set()+0x35c>)
 8001ff0:	f8ca 2000 	str.w	r2, [sl]
 8001ff4:	221f      	movs	r2, #31
 8001ff6:	f88a 2007 	strb.w	r2, [sl, #7]
 8001ffa:	f04f 0900 	mov.w	r9, #0
 8001ffe:	2264      	movs	r2, #100	; 0x64
 8002000:	49ae      	ldr	r1, [pc, #696]	; (80022bc <RDMSensorsParams::Set()+0x360>)
 8002002:	f8aa 2010 	strh.w	r2, [sl, #16]
 8002006:	4650      	mov	r0, sl
 8002008:	e9ca 9202 	strd	r9, r2, [sl, #8]
 800200c:	f7ff ff28 	bl	8001e60 <RDMSensor::SetDescription(char const*)>
 8002010:	4651      	mov	r1, sl
 8002012:	4628      	mov	r0, r5
 8002014:	f7ff ff86 	bl	8001f24 <RDMSensorsParams::Add(RDMSensor*)>
 8002018:	b310      	cbz	r0, 8002060 <RDMSensorsParams::Set()+0x104>
 800201a:	204c      	movs	r0, #76	; 0x4c
 800201c:	f006 f80f 	bl	800803e <operator new(unsigned int)>
 8002020:	1c61      	adds	r1, r4, #1
 8002022:	4682      	mov	sl, r0
 8002024:	b2c9      	uxtb	r1, r1
 8002026:	f7ff ff09 	bl	8001e3c <RDMSensor::RDMSensor(unsigned char)>
 800202a:	4631      	mov	r1, r6
 800202c:	f10a 0040 	add.w	r0, sl, #64	; 0x40
 8002030:	f000 f9dc 	bl	80023ec <sensor::HTU21D::HTU21D(unsigned char)>
 8002034:	4aa2      	ldr	r2, [pc, #648]	; (80022c0 <RDMSensorsParams::Set()+0x364>)
 8002036:	f8ca 2000 	str.w	r2, [sl]
 800203a:	4aa2      	ldr	r2, [pc, #648]	; (80022c4 <RDMSensorsParams::Set()+0x368>)
 800203c:	f8ca 2008 	str.w	r2, [sl, #8]
 8002040:	327c      	adds	r2, #124	; 0x7c
 8002042:	f8ca 200c 	str.w	r2, [sl, #12]
 8002046:	49a0      	ldr	r1, [pc, #640]	; (80022c8 <RDMSensorsParams::Set()+0x36c>)
 8002048:	f88a 9007 	strb.w	r9, [sl, #7]
 800204c:	227d      	movs	r2, #125	; 0x7d
 800204e:	f8aa 2010 	strh.w	r2, [sl, #16]
 8002052:	4650      	mov	r0, sl
 8002054:	f7ff ff04 	bl	8001e60 <RDMSensor::SetDescription(char const*)>
 8002058:	4651      	mov	r1, sl
 800205a:	4628      	mov	r0, r5
 800205c:	f7ff ff62 	bl	8001f24 <RDMSensorsParams::Add(RDMSensor*)>
 8002060:	f108 0801 	add.w	r8, r8, #1
 8002064:	3703      	adds	r7, #3
 8002066:	e782      	b.n	8001f6e <RDMSensorsParams::Set()+0x12>
 8002068:	2060      	movs	r0, #96	; 0x60
 800206a:	f005 ffe8 	bl	800803e <operator new(unsigned int)>
 800206e:	4621      	mov	r1, r4
 8002070:	4682      	mov	sl, r0
 8002072:	f7ff fee3 	bl	8001e3c <RDMSensor::RDMSensor(unsigned char)>
 8002076:	4631      	mov	r1, r6
 8002078:	f10a 0040 	add.w	r0, sl, #64	; 0x40
 800207c:	f000 faf6 	bl	800266c <sensor::INA219::INA219(unsigned char)>
 8002080:	4a92      	ldr	r2, [pc, #584]	; (80022cc <RDMSensorsParams::Set()+0x370>)
 8002082:	4b93      	ldr	r3, [pc, #588]	; (80022d0 <RDMSensorsParams::Set()+0x374>)
 8002084:	f8ca 2000 	str.w	r2, [sl]
 8002088:	f04f 0902 	mov.w	r9, #2
 800208c:	f44f 62fa 	mov.w	r2, #2000	; 0x7d0
 8002090:	4990      	ldr	r1, [pc, #576]	; (80022d4 <RDMSensorsParams::Set()+0x378>)
 8002092:	f88a 9007 	strb.w	r9, [sl, #7]
 8002096:	4650      	mov	r0, sl
 8002098:	e9ca 3b02 	strd	r3, fp, [sl, #8]
 800209c:	f8aa 2010 	strh.w	r2, [sl, #16]
 80020a0:	f7ff fede 	bl	8001e60 <RDMSensor::SetDescription(char const*)>
 80020a4:	4651      	mov	r1, sl
 80020a6:	4628      	mov	r0, r5
 80020a8:	f7ff ff3c 	bl	8001f24 <RDMSensorsParams::Add(RDMSensor*)>
 80020ac:	2800      	cmp	r0, #0
 80020ae:	d0d7      	beq.n	8002060 <RDMSensorsParams::Set()+0x104>
 80020b0:	2060      	movs	r0, #96	; 0x60
 80020b2:	f005 ffc4 	bl	800803e <operator new(unsigned int)>
 80020b6:	1c61      	adds	r1, r4, #1
 80020b8:	4682      	mov	sl, r0
 80020ba:	b2c9      	uxtb	r1, r1
 80020bc:	f7ff febe 	bl	8001e3c <RDMSensor::RDMSensor(unsigned char)>
 80020c0:	4631      	mov	r1, r6
 80020c2:	f10a 0040 	add.w	r0, sl, #64	; 0x40
 80020c6:	f000 fad1 	bl	800266c <sensor::INA219::INA219(unsigned char)>
 80020ca:	4a83      	ldr	r2, [pc, #524]	; (80022d8 <RDMSensorsParams::Set()+0x37c>)
 80020cc:	f8ca 2000 	str.w	r2, [sl]
 80020d0:	4a82      	ldr	r2, [pc, #520]	; (80022dc <RDMSensorsParams::Set()+0x380>)
 80020d2:	f8ca 2008 	str.w	r2, [sl, #8]
 80020d6:	f46f 7031 	mvn.w	r0, #708	; 0x2c4
 80020da:	4402      	add	r2, r0
 80020dc:	f8ca 200c 	str.w	r2, [sl, #12]
 80020e0:	2240      	movs	r2, #64	; 0x40
 80020e2:	497f      	ldr	r1, [pc, #508]	; (80022e0 <RDMSensorsParams::Set()+0x384>)
 80020e4:	f88a 9007 	strb.w	r9, [sl, #7]
 80020e8:	4650      	mov	r0, sl
 80020ea:	f8aa 2010 	strh.w	r2, [sl, #16]
 80020ee:	f7ff feb7 	bl	8001e60 <RDMSensor::SetDescription(char const*)>
 80020f2:	4651      	mov	r1, sl
 80020f4:	4628      	mov	r0, r5
 80020f6:	f7ff ff15 	bl	8001f24 <RDMSensorsParams::Add(RDMSensor*)>
 80020fa:	2800      	cmp	r0, #0
 80020fc:	d0b0      	beq.n	8002060 <RDMSensorsParams::Set()+0x104>
 80020fe:	2060      	movs	r0, #96	; 0x60
 8002100:	f005 ff9d 	bl	800803e <operator new(unsigned int)>
 8002104:	eb04 0109 	add.w	r1, r4, r9
 8002108:	4682      	mov	sl, r0
 800210a:	b2c9      	uxtb	r1, r1
 800210c:	f7ff fe96 	bl	8001e3c <RDMSensor::RDMSensor(unsigned char)>
 8002110:	4631      	mov	r1, r6
 8002112:	f10a 0040 	add.w	r0, sl, #64	; 0x40
 8002116:	f000 faa9 	bl	800266c <sensor::INA219::INA219(unsigned char)>
 800211a:	4a72      	ldr	r2, [pc, #456]	; (80022e4 <RDMSensorsParams::Set()+0x388>)
 800211c:	4972      	ldr	r1, [pc, #456]	; (80022e8 <RDMSensorsParams::Set()+0x38c>)
 800211e:	f8ca 2000 	str.w	r2, [sl]
 8002122:	4a72      	ldr	r2, [pc, #456]	; (80022ec <RDMSensorsParams::Set()+0x390>)
 8002124:	f88a 9007 	strb.w	r9, [sl, #7]
 8002128:	e9ca 1202 	strd	r1, r2, [sl, #8]
 800212c:	f44f 42fa 	mov.w	r2, #32000	; 0x7d00
 8002130:	496f      	ldr	r1, [pc, #444]	; (80022f0 <RDMSensorsParams::Set()+0x394>)
 8002132:	f8aa 2010 	strh.w	r2, [sl, #16]
 8002136:	e78c      	b.n	8002052 <RDMSensorsParams::Set()+0xf6>
 8002138:	204c      	movs	r0, #76	; 0x4c
 800213a:	f005 ff80 	bl	800803e <operator new(unsigned int)>
 800213e:	4621      	mov	r1, r4
 8002140:	4681      	mov	r9, r0
 8002142:	f7ff fe7b 	bl	8001e3c <RDMSensor::RDMSensor(unsigned char)>
 8002146:	4631      	mov	r1, r6
 8002148:	f109 0040 	add.w	r0, r9, #64	; 0x40
 800214c:	f000 fc08 	bl	8002960 <sensor::MCP9808::MCP9808(unsigned char)>
 8002150:	4b68      	ldr	r3, [pc, #416]	; (80022f4 <RDMSensorsParams::Set()+0x398>)
 8002152:	f8c9 3000 	str.w	r3, [r9]
 8002156:	2300      	movs	r3, #0
 8002158:	4a67      	ldr	r2, [pc, #412]	; (80022f8 <RDMSensorsParams::Set()+0x39c>)
 800215a:	f889 3007 	strb.w	r3, [r9, #7]
 800215e:	4b67      	ldr	r3, [pc, #412]	; (80022fc <RDMSensorsParams::Set()+0x3a0>)
 8002160:	4967      	ldr	r1, [pc, #412]	; (8002300 <RDMSensorsParams::Set()+0x3a4>)
 8002162:	e9c9 2302 	strd	r2, r3, [r9, #8]
 8002166:	2328      	movs	r3, #40	; 0x28
 8002168:	f8a9 3010 	strh.w	r3, [r9, #16]
 800216c:	e72e      	b.n	8001fcc <RDMSensorsParams::Set()+0x70>
 800216e:	204c      	movs	r0, #76	; 0x4c
 8002170:	f005 ff65 	bl	800803e <operator new(unsigned int)>
 8002174:	4621      	mov	r1, r4
 8002176:	4682      	mov	sl, r0
 8002178:	f7ff fe60 	bl	8001e3c <RDMSensor::RDMSensor(unsigned char)>
 800217c:	4631      	mov	r1, r6
 800217e:	f10a 0040 	add.w	r0, sl, #64	; 0x40
 8002182:	f000 fc3f 	bl	8002a04 <sensor::SI7021::SI7021(unsigned char)>
 8002186:	4a5f      	ldr	r2, [pc, #380]	; (8002304 <RDMSensorsParams::Set()+0x3a8>)
 8002188:	f8ca 2000 	str.w	r2, [sl]
 800218c:	221f      	movs	r2, #31
 800218e:	f88a 2007 	strb.w	r2, [sl, #7]
 8002192:	f04f 0900 	mov.w	r9, #0
 8002196:	2264      	movs	r2, #100	; 0x64
 8002198:	495b      	ldr	r1, [pc, #364]	; (8002308 <RDMSensorsParams::Set()+0x3ac>)
 800219a:	f8aa 2010 	strh.w	r2, [sl, #16]
 800219e:	4650      	mov	r0, sl
 80021a0:	e9ca 9202 	strd	r9, r2, [sl, #8]
 80021a4:	f7ff fe5c 	bl	8001e60 <RDMSensor::SetDescription(char const*)>
 80021a8:	4651      	mov	r1, sl
 80021aa:	4628      	mov	r0, r5
 80021ac:	f7ff feba 	bl	8001f24 <RDMSensorsParams::Add(RDMSensor*)>
 80021b0:	2800      	cmp	r0, #0
 80021b2:	f43f af55 	beq.w	8002060 <RDMSensorsParams::Set()+0x104>
 80021b6:	204c      	movs	r0, #76	; 0x4c
 80021b8:	f005 ff41 	bl	800803e <operator new(unsigned int)>
 80021bc:	1c61      	adds	r1, r4, #1
 80021be:	4682      	mov	sl, r0
 80021c0:	b2c9      	uxtb	r1, r1
 80021c2:	f7ff fe3b 	bl	8001e3c <RDMSensor::RDMSensor(unsigned char)>
 80021c6:	4631      	mov	r1, r6
 80021c8:	f10a 0040 	add.w	r0, sl, #64	; 0x40
 80021cc:	f000 fc1a 	bl	8002a04 <sensor::SI7021::SI7021(unsigned char)>
 80021d0:	4a4e      	ldr	r2, [pc, #312]	; (800230c <RDMSensorsParams::Set()+0x3b0>)
 80021d2:	f8ca 2000 	str.w	r2, [sl]
 80021d6:	4a3b      	ldr	r2, [pc, #236]	; (80022c4 <RDMSensorsParams::Set()+0x368>)
 80021d8:	f8ca 2008 	str.w	r2, [sl, #8]
 80021dc:	327c      	adds	r2, #124	; 0x7c
 80021de:	f8ca 200c 	str.w	r2, [sl, #12]
 80021e2:	227d      	movs	r2, #125	; 0x7d
 80021e4:	494a      	ldr	r1, [pc, #296]	; (8002310 <RDMSensorsParams::Set()+0x3b4>)
 80021e6:	f88a 9007 	strb.w	r9, [sl, #7]
 80021ea:	f8aa 2010 	strh.w	r2, [sl, #16]
 80021ee:	e730      	b.n	8002052 <RDMSensorsParams::Set()+0xf6>
 80021f0:	2060      	movs	r0, #96	; 0x60
 80021f2:	f005 ff24 	bl	800803e <operator new(unsigned int)>
 80021f6:	f104 030c 	add.w	r3, r4, #12
 80021fa:	eb05 0343 	add.w	r3, r5, r3, lsl #1
 80021fe:	4681      	mov	r9, r0
 8002200:	f9b3 3004 	ldrsh.w	r3, [r3, #4]
 8002204:	9300      	str	r3, [sp, #0]
 8002206:	4621      	mov	r1, r4
 8002208:	2300      	movs	r3, #0
 800220a:	4632      	mov	r2, r6
 800220c:	f7ff fe48 	bl	8001ea0 <RDMSensorThermistor::RDMSensorThermistor(unsigned char, unsigned char, unsigned char, long)>
 8002210:	4649      	mov	r1, r9
 8002212:	4628      	mov	r0, r5
 8002214:	f7ff fe86 	bl	8001f24 <RDMSensorsParams::Add(RDMSensor*)>
 8002218:	2800      	cmp	r0, #0
 800221a:	f43f af21 	beq.w	8002060 <RDMSensorsParams::Set()+0x104>
 800221e:	1c61      	adds	r1, r4, #1
 8002220:	b2c9      	uxtb	r1, r1
 8002222:	2060      	movs	r0, #96	; 0x60
 8002224:	9103      	str	r1, [sp, #12]
 8002226:	f005 ff0a 	bl	800803e <operator new(unsigned int)>
 800222a:	9903      	ldr	r1, [sp, #12]
 800222c:	f101 030c 	add.w	r3, r1, #12
 8002230:	eb05 0343 	add.w	r3, r5, r3, lsl #1
 8002234:	4681      	mov	r9, r0
 8002236:	f9b3 3004 	ldrsh.w	r3, [r3, #4]
 800223a:	9300      	str	r3, [sp, #0]
 800223c:	4632      	mov	r2, r6
 800223e:	2301      	movs	r3, #1
 8002240:	f7ff fe2e 	bl	8001ea0 <RDMSensorThermistor::RDMSensorThermistor(unsigned char, unsigned char, unsigned char, long)>
 8002244:	4649      	mov	r1, r9
 8002246:	4628      	mov	r0, r5
 8002248:	f7ff fe6c 	bl	8001f24 <RDMSensorsParams::Add(RDMSensor*)>
 800224c:	2800      	cmp	r0, #0
 800224e:	f43f af07 	beq.w	8002060 <RDMSensorsParams::Set()+0x104>
 8002252:	1ca1      	adds	r1, r4, #2
 8002254:	b2c9      	uxtb	r1, r1
 8002256:	2060      	movs	r0, #96	; 0x60
 8002258:	9103      	str	r1, [sp, #12]
 800225a:	f005 fef0 	bl	800803e <operator new(unsigned int)>
 800225e:	9903      	ldr	r1, [sp, #12]
 8002260:	f101 030c 	add.w	r3, r1, #12
 8002264:	eb05 0343 	add.w	r3, r5, r3, lsl #1
 8002268:	4681      	mov	r9, r0
 800226a:	f9b3 3004 	ldrsh.w	r3, [r3, #4]
 800226e:	9300      	str	r3, [sp, #0]
 8002270:	4632      	mov	r2, r6
 8002272:	2302      	movs	r3, #2
 8002274:	f7ff fe14 	bl	8001ea0 <RDMSensorThermistor::RDMSensorThermistor(unsigned char, unsigned char, unsigned char, long)>
 8002278:	4649      	mov	r1, r9
 800227a:	4628      	mov	r0, r5
 800227c:	f7ff fe52 	bl	8001f24 <RDMSensorsParams::Add(RDMSensor*)>
 8002280:	2800      	cmp	r0, #0
 8002282:	f43f aeed 	beq.w	8002060 <RDMSensorsParams::Set()+0x104>
 8002286:	3403      	adds	r4, #3
 8002288:	b2e4      	uxtb	r4, r4
 800228a:	2060      	movs	r0, #96	; 0x60
 800228c:	f005 fed7 	bl	800803e <operator new(unsigned int)>
 8002290:	f104 030c 	add.w	r3, r4, #12
 8002294:	eb05 0343 	add.w	r3, r5, r3, lsl #1
 8002298:	4632      	mov	r2, r6
 800229a:	f9b3 3004 	ldrsh.w	r3, [r3, #4]
 800229e:	9300      	str	r3, [sp, #0]
 80022a0:	4621      	mov	r1, r4
 80022a2:	2303      	movs	r3, #3
 80022a4:	4681      	mov	r9, r0
 80022a6:	f7ff fdfb 	bl	8001ea0 <RDMSensorThermistor::RDMSensorThermistor(unsigned char, unsigned char, unsigned char, long)>
 80022aa:	e692      	b.n	8001fd2 <RDMSensorsParams::Set()+0x76>
 80022ac:	20001094 	mulcs	r0, r4, r0
 80022b0:	08009ef8 	stmdaeq	r0, {r3, r4, r5, r6, r7, r9, sl, fp, ip, pc}
 80022b4:	0800a06a 	stmdaeq	r0, {r1, r3, r5, r6, sp, pc}
 80022b8:	08009f28 	stmdaeq	r0, {r3, r5, r8, r9, sl, fp, ip, pc}
 80022bc:	0800a030 	stmdaeq	r0, {r4, r5, sp, pc}
 80022c0:	08009f40 	stmdaeq	r0, {r6, r8, r9, sl, fp, ip, pc}
 80022c4:	ffd80001 			; <UNDEFINED> instruction: 0xffd80001
 80022c8:	0800a042 	stmdaeq	r0, {r1, r6, sp, pc}
 80022cc:	08009f58 	stmdaeq	r0, {r3, r4, r6, r8, r9, sl, fp, ip, pc}
 80022d0:	f8300305 			; <UNDEFINED> instruction: 0xf8300305
 80022d4:	0800a028 	stmdaeq	r0, {r3, r5, sp, pc}
 80022d8:	08009f70 	stmdaeq	r0, {r4, r5, r6, r8, r9, sl, fp, ip, pc}
 80022dc:	ffc00305 			; <UNDEFINED> instruction: 0xffc00305
 80022e0:	0800a01a 	stmdaeq	r0, {r1, r3, r4, sp, pc}
 80022e4:	08009f88 	stmdaeq	r0, {r3, r7, r8, r9, sl, fp, ip, pc}
 80022e8:	83000305 	movwhi	r0, #773	; 0x305
 80022ec:	83007d00 	movwhi	r7, #3328	; 0xd00
 80022f0:	0800a020 	stmdaeq	r0, {r5, sp, pc}
 80022f4:	08009f10 	stmdaeq	r0, {r4, r8, r9, sl, fp, ip, pc}
 80022f8:	ffec0001 			; <UNDEFINED> instruction: 0xffec0001
 80022fc:	00120064 	andseq	r0, r2, r4, rrx
 8002300:	0800a056 	stmdaeq	r0, {r1, r2, r4, r6, sp, pc}
 8002304:	08009fa0 	stmdaeq	r0, {r5, r7, r8, r9, sl, fp, ip, pc}
 8002308:	08009ff4 	stmdaeq	r0, {r2, r4, r5, r6, r7, r8, r9, sl, fp, ip, pc}
 800230c:	08009fb8 	stmdaeq	r0, {r3, r4, r5, r7, r8, r9, sl, fp, ip, pc}
 8002310:	0800a006 	stmdaeq	r0, {r1, r2, sp, pc}
 8002314:	f83007d0 			; <UNDEFINED> instruction: 0xf83007d0

08002318 <HAL_I2C::Write(unsigned char)>:
 8002318:	b537      	push	{r0, r1, r2, r4, r5, lr}
 800231a:	4604      	mov	r4, r0
 800231c:	7800      	ldrb	r0, [r0, #0]
 800231e:	460d      	mov	r5, r1
 8002320:	f006 ff54 	bl	80091cc <gd32_i2c_set_address>
 8002324:	6860      	ldr	r0, [r4, #4]
 8002326:	f006 ff49 	bl	80091bc <gd32_i2c_set_baudrate>
 800232a:	2101      	movs	r1, #1
 800232c:	a801      	add	r0, sp, #4
 800232e:	f88d 5004 	strb.w	r5, [sp, #4]
 8002332:	f006 ff51 	bl	80091d8 <gd32_i2c_write>
 8002336:	b003      	add	sp, #12
 8002338:	bd30      	pop	{r4, r5, pc}
	...

0800233c <sensor::BH170::BH170(unsigned char)>:
 800233c:	b5f7      	push	{r0, r1, r2, r4, r5, r6, r7, lr}
 800233e:	1e0c      	subs	r4, r1, #0
 8002340:	bf08      	it	eq
 8002342:	2423      	moveq	r4, #35	; 0x23
 8002344:	4f16      	ldr	r7, [pc, #88]	; (80023a0 <sensor::BH170::BH170(unsigned char)+0x64>)
 8002346:	7004      	strb	r4, [r0, #0]
 8002348:	2600      	movs	r6, #0
 800234a:	6047      	str	r7, [r0, #4]
 800234c:	7206      	strb	r6, [r0, #8]
 800234e:	4605      	mov	r5, r0
 8002350:	4620      	mov	r0, r4
 8002352:	f006 ff3b 	bl	80091cc <gd32_i2c_set_address>
 8002356:	4638      	mov	r0, r7
 8002358:	f006 ff30 	bl	80091bc <gd32_i2c_set_baudrate>
 800235c:	f1a4 0330 	sub.w	r3, r4, #48	; 0x30
 8002360:	2b07      	cmp	r3, #7
 8002362:	d902      	bls.n	800236a <sensor::BH170::BH170(unsigned char)+0x2e>
 8002364:	3c50      	subs	r4, #80	; 0x50
 8002366:	2c0f      	cmp	r4, #15
 8002368:	d814      	bhi.n	8002394 <sensor::BH170::BH170(unsigned char)+0x58>
 800236a:	2101      	movs	r1, #1
 800236c:	f10d 0007 	add.w	r0, sp, #7
 8002370:	f006 ff98 	bl	80092a4 <gd32_i2c_read>
 8002374:	fab0 f080 	clz	r0, r0
 8002378:	0940      	lsrs	r0, r0, #5
 800237a:	7228      	strb	r0, [r5, #8]
 800237c:	b138      	cbz	r0, 800238e <sensor::BH170::BH170(unsigned char)+0x52>
 800237e:	2101      	movs	r1, #1
 8002380:	4628      	mov	r0, r5
 8002382:	f7ff ffc9 	bl	8002318 <HAL_I2C::Write(unsigned char)>
 8002386:	2110      	movs	r1, #16
 8002388:	4628      	mov	r0, r5
 800238a:	f7ff ffc5 	bl	8002318 <HAL_I2C::Write(unsigned char)>
 800238e:	4628      	mov	r0, r5
 8002390:	b003      	add	sp, #12
 8002392:	bdf0      	pop	{r4, r5, r6, r7, pc}
 8002394:	4631      	mov	r1, r6
 8002396:	4630      	mov	r0, r6
 8002398:	f006 ff1e 	bl	80091d8 <gd32_i2c_write>
 800239c:	e7ea      	b.n	8002374 <sensor::BH170::BH170(unsigned char)+0x38>
 800239e:	bf00      	nop
 80023a0:	00061a80 	andeq	r1, r6, r0, lsl #21

080023a4 <sensor::BH170::Get()>:
 80023a4:	b513      	push	{r0, r1, r4, lr}
 80023a6:	4604      	mov	r4, r0
 80023a8:	2300      	movs	r3, #0
 80023aa:	7800      	ldrb	r0, [r0, #0]
 80023ac:	f8ad 3004 	strh.w	r3, [sp, #4]
 80023b0:	f006 ff0c 	bl	80091cc <gd32_i2c_set_address>
 80023b4:	6860      	ldr	r0, [r4, #4]
 80023b6:	f006 ff01 	bl	80091bc <gd32_i2c_set_baudrate>
 80023ba:	2102      	movs	r1, #2
 80023bc:	a801      	add	r0, sp, #4
 80023be:	f006 ff71 	bl	80092a4 <gd32_i2c_read>
 80023c2:	f8bd 3004 	ldrh.w	r3, [sp, #4]
 80023c6:	eddf 6a08 	vldr	s13, [pc, #32]	; 80023e8 <sensor::BH170::Get()+0x44>
 80023ca:	ba5b      	rev16	r3, r3
 80023cc:	b29b      	uxth	r3, r3
 80023ce:	ee07 3a90 	vmov	s15, r3
 80023d2:	eef8 7a67 	vcvt.f32.u32	s15, s15
 80023d6:	ee87 7aa6 	vdiv.f32	s14, s15, s13
 80023da:	eefc 7ac7 	vcvt.u32.f32	s15, s14
 80023de:	ee17 3a90 	vmov	r3, s15
 80023e2:	b298      	uxth	r0, r3
 80023e4:	b002      	add	sp, #8
 80023e6:	bd10      	pop	{r4, pc}
 80023e8:	3f99999a 	svccc	0x0099999a

080023ec <sensor::HTU21D::HTU21D(unsigned char)>:
 80023ec:	b5f7      	push	{r0, r1, r2, r4, r5, r6, r7, lr}
 80023ee:	1e0c      	subs	r4, r1, #0
 80023f0:	bf08      	it	eq
 80023f2:	2440      	moveq	r4, #64	; 0x40
 80023f4:	4f11      	ldr	r7, [pc, #68]	; (800243c <sensor::HTU21D::HTU21D(unsigned char)+0x50>)
 80023f6:	7004      	strb	r4, [r0, #0]
 80023f8:	2600      	movs	r6, #0
 80023fa:	6047      	str	r7, [r0, #4]
 80023fc:	7206      	strb	r6, [r0, #8]
 80023fe:	4605      	mov	r5, r0
 8002400:	4620      	mov	r0, r4
 8002402:	f006 fee3 	bl	80091cc <gd32_i2c_set_address>
 8002406:	4638      	mov	r0, r7
 8002408:	f006 fed8 	bl	80091bc <gd32_i2c_set_baudrate>
 800240c:	f1a4 0330 	sub.w	r3, r4, #48	; 0x30
 8002410:	2b07      	cmp	r3, #7
 8002412:	d902      	bls.n	800241a <sensor::HTU21D::HTU21D(unsigned char)+0x2e>
 8002414:	3c50      	subs	r4, #80	; 0x50
 8002416:	2c0f      	cmp	r4, #15
 8002418:	d80b      	bhi.n	8002432 <sensor::HTU21D::HTU21D(unsigned char)+0x46>
 800241a:	2101      	movs	r1, #1
 800241c:	f10d 0007 	add.w	r0, sp, #7
 8002420:	f006 ff40 	bl	80092a4 <gd32_i2c_read>
 8002424:	fab0 f380 	clz	r3, r0
 8002428:	095b      	lsrs	r3, r3, #5
 800242a:	4628      	mov	r0, r5
 800242c:	722b      	strb	r3, [r5, #8]
 800242e:	b003      	add	sp, #12
 8002430:	bdf0      	pop	{r4, r5, r6, r7, pc}
 8002432:	4631      	mov	r1, r6
 8002434:	4630      	mov	r0, r6
 8002436:	f006 fecf 	bl	80091d8 <gd32_i2c_write>
 800243a:	e7f3      	b.n	8002424 <sensor::HTU21D::HTU21D(unsigned char)+0x38>
 800243c:	00061a80 	andeq	r1, r6, r0, lsl #21

08002440 <sensor::HTU21D::ReadRaw(unsigned char)>:
 8002440:	b537      	push	{r0, r1, r2, r4, r5, lr}
 8002442:	4604      	mov	r4, r0
 8002444:	7800      	ldrb	r0, [r0, #0]
 8002446:	460d      	mov	r5, r1
 8002448:	f006 fec0 	bl	80091cc <gd32_i2c_set_address>
 800244c:	6860      	ldr	r0, [r4, #4]
 800244e:	f006 feb5 	bl	80091bc <gd32_i2c_set_baudrate>
 8002452:	2101      	movs	r1, #1
 8002454:	a801      	add	r0, sp, #4
 8002456:	f88d 5004 	strb.w	r5, [sp, #4]
 800245a:	f006 febd 	bl	80091d8 <gd32_i2c_write>
 800245e:	4b13      	ldr	r3, [pc, #76]	; (80024ac <sensor::HTU21D::ReadRaw(unsigned char)+0x6c>)
 8002460:	881b      	ldrh	r3, [r3, #0]
 8002462:	f8ad 3004 	strh.w	r3, [sp, #4]
 8002466:	2300      	movs	r3, #0
 8002468:	f88d 3006 	strb.w	r3, [sp, #6]
 800246c:	2508      	movs	r5, #8
 800246e:	2100      	movs	r1, #0
 8002470:	f242 7010 	movw	r0, #10000	; 0x2710
 8002474:	f007 f9b4 	bl	80097e0 <udelay(unsigned long, unsigned long)>
 8002478:	7820      	ldrb	r0, [r4, #0]
 800247a:	f006 fea7 	bl	80091cc <gd32_i2c_set_address>
 800247e:	6860      	ldr	r0, [r4, #4]
 8002480:	f006 fe9c 	bl	80091bc <gd32_i2c_set_baudrate>
 8002484:	2103      	movs	r1, #3
 8002486:	a801      	add	r0, sp, #4
 8002488:	f006 ff0c 	bl	80092a4 <gd32_i2c_read>
 800248c:	f89d 3004 	ldrb.w	r3, [sp, #4]
 8002490:	f003 0303 	and.w	r3, r3, #3
 8002494:	2b02      	cmp	r3, #2
 8002496:	d001      	beq.n	800249c <sensor::HTU21D::ReadRaw(unsigned char)+0x5c>
 8002498:	3d01      	subs	r5, #1
 800249a:	d1e8      	bne.n	800246e <sensor::HTU21D::ReadRaw(unsigned char)+0x2e>
 800249c:	f8bd 0004 	ldrh.w	r0, [sp, #4]
 80024a0:	ba40      	rev16	r0, r0
 80024a2:	f020 0003 	bic.w	r0, r0, #3
 80024a6:	b280      	uxth	r0, r0
 80024a8:	b003      	add	sp, #12
 80024aa:	bd30      	pop	{r4, r5, pc}
 80024ac:	08009c78 	stmdaeq	r0, {r3, r4, r5, r6, sl, fp, ip, pc}

080024b0 <sensor::HTU21D::GetTemperature()>:
 80024b0:	b508      	push	{r3, lr}
 80024b2:	21f3      	movs	r1, #243	; 0xf3
 80024b4:	f7ff ffc4 	bl	8002440 <sensor::HTU21D::ReadRaw(unsigned char)>
 80024b8:	ee07 0a90 	vmov	s15, r0
 80024bc:	ed9f 7a04 	vldr	s14, [pc, #16]	; 80024d0 <sensor::HTU21D::GetTemperature()+0x20>
 80024c0:	ed9f 0a04 	vldr	s0, [pc, #16]	; 80024d4 <sensor::HTU21D::GetTemperature()+0x24>
 80024c4:	eefb 7ac8 	vcvt.f32.u32	s15, s15, #16
 80024c8:	eea7 0a87 	vfma.f32	s0, s15, s14
 80024cc:	bd08      	pop	{r3, pc}
 80024ce:	bf00      	nop
 80024d0:	432fb852 			; <UNDEFINED> instruction: 0x432fb852
 80024d4:	c23b6666 	eorsgt	r6, fp, #106954752	; 0x6600000

080024d8 <sensor::HTU21D::GetHumidity()>:
 80024d8:	b508      	push	{r3, lr}
 80024da:	21f5      	movs	r1, #245	; 0xf5
 80024dc:	f7ff ffb0 	bl	8002440 <sensor::HTU21D::ReadRaw(unsigned char)>
 80024e0:	ee07 0a90 	vmov	s15, r0
 80024e4:	ed9f 7a04 	vldr	s14, [pc, #16]	; 80024f8 <sensor::HTU21D::GetHumidity()+0x20>
 80024e8:	eefb 7ac8 	vcvt.f32.u32	s15, s15, #16
 80024ec:	eeb9 0a08 	vmov.f32	s0, #152	; 0xc0c00000 -6.0
 80024f0:	eea7 0a87 	vfma.f32	s0, s15, s14
 80024f4:	bd08      	pop	{r3, pc}
 80024f6:	bf00      	nop
 80024f8:	42fa0000 	rscsmi	r0, sl, #0

080024fc <HAL_I2C::WriteRegister(unsigned char, unsigned short)>:
 80024fc:	b513      	push	{r0, r1, r4, lr}
 80024fe:	4604      	mov	r4, r0
 8002500:	0a13      	lsrs	r3, r2, #8
 8002502:	7800      	ldrb	r0, [r0, #0]
 8002504:	f88d 1004 	strb.w	r1, [sp, #4]
 8002508:	f88d 3005 	strb.w	r3, [sp, #5]
 800250c:	f88d 2006 	strb.w	r2, [sp, #6]
 8002510:	f006 fe5c 	bl	80091cc <gd32_i2c_set_address>
 8002514:	6860      	ldr	r0, [r4, #4]
 8002516:	f006 fe51 	bl	80091bc <gd32_i2c_set_baudrate>
 800251a:	2103      	movs	r1, #3
 800251c:	a801      	add	r0, sp, #4
 800251e:	f006 fe5b 	bl	80091d8 <gd32_i2c_write>
 8002522:	b002      	add	sp, #8
 8002524:	bd10      	pop	{r4, pc}

08002526 <HAL_I2C::ReadRegister16DelayUs(unsigned char, unsigned long)>:
 8002526:	b573      	push	{r0, r1, r4, r5, r6, lr}
 8002528:	4604      	mov	r4, r0
 800252a:	2600      	movs	r6, #0
 800252c:	7800      	ldrb	r0, [r0, #0]
 800252e:	f8ad 6004 	strh.w	r6, [sp, #4]
 8002532:	4615      	mov	r5, r2
 8002534:	f88d 1004 	strb.w	r1, [sp, #4]
 8002538:	f006 fe48 	bl	80091cc <gd32_i2c_set_address>
 800253c:	6860      	ldr	r0, [r4, #4]
 800253e:	f006 fe3d 	bl	80091bc <gd32_i2c_set_baudrate>
 8002542:	2101      	movs	r1, #1
 8002544:	a801      	add	r0, sp, #4
 8002546:	f006 fe47 	bl	80091d8 <gd32_i2c_write>
 800254a:	4631      	mov	r1, r6
 800254c:	4628      	mov	r0, r5
 800254e:	f007 f947 	bl	80097e0 <udelay(unsigned long, unsigned long)>
 8002552:	2102      	movs	r1, #2
 8002554:	a801      	add	r0, sp, #4
 8002556:	f006 fea5 	bl	80092a4 <gd32_i2c_read>
 800255a:	f8bd 0004 	ldrh.w	r0, [sp, #4]
 800255e:	ba40      	rev16	r0, r0
 8002560:	b280      	uxth	r0, r0
 8002562:	b002      	add	sp, #8
 8002564:	bd70      	pop	{r4, r5, r6, pc}
	...

08002568 <sensor::INA219::Configure(sensor::ina219::Config&)>:
 8002568:	880b      	ldrh	r3, [r1, #0]
 800256a:	b510      	push	{r4, lr}
 800256c:	b1d3      	cbz	r3, 80025a4 <sensor::INA219::Configure(sensor::ina219::Config&)+0x3c>
 800256e:	f5b3 5f00 	cmp.w	r3, #8192	; 0x2000
 8002572:	d102      	bne.n	800257a <sensor::INA219::Configure(sensor::ina219::Config&)+0x12>
 8002574:	f04f 4284 	mov.w	r2, #1107296256	; 0x42000000
 8002578:	6182      	str	r2, [r0, #24]
 800257a:	884a      	ldrh	r2, [r1, #2]
 800257c:	f5b2 5f80 	cmp.w	r2, #4096	; 0x1000
 8002580:	d019      	beq.n	80025b6 <sensor::INA219::Configure(sensor::ina219::Config&)+0x4e>
 8002582:	d812      	bhi.n	80025aa <sensor::INA219::Configure(sensor::ina219::Config&)+0x42>
 8002584:	b1da      	cbz	r2, 80025be <sensor::INA219::Configure(sensor::ina219::Config&)+0x56>
 8002586:	f5b2 6f00 	cmp.w	r2, #2048	; 0x800
 800258a:	d016      	beq.n	80025ba <sensor::INA219::Configure(sensor::ina219::Config&)+0x52>
 800258c:	431a      	orrs	r2, r3
 800258e:	888b      	ldrh	r3, [r1, #4]
 8002590:	431a      	orrs	r2, r3
 8002592:	88cb      	ldrh	r3, [r1, #6]
 8002594:	431a      	orrs	r2, r3
 8002596:	890b      	ldrh	r3, [r1, #8]
 8002598:	431a      	orrs	r2, r3
 800259a:	b292      	uxth	r2, r2
 800259c:	2100      	movs	r1, #0
 800259e:	f7ff ffad 	bl	80024fc <HAL_I2C::WriteRegister(unsigned char, unsigned short)>
 80025a2:	bd10      	pop	{r4, pc}
 80025a4:	f04f 4283 	mov.w	r2, #1098907648	; 0x41800000
 80025a8:	e7e6      	b.n	8002578 <sensor::INA219::Configure(sensor::ina219::Config&)+0x10>
 80025aa:	f5b2 5fc0 	cmp.w	r2, #6144	; 0x1800
 80025ae:	d1ed      	bne.n	800258c <sensor::INA219::Configure(sensor::ina219::Config&)+0x24>
 80025b0:	4c04      	ldr	r4, [pc, #16]	; (80025c4 <sensor::INA219::Configure(sensor::ina219::Config&)+0x5c>)
 80025b2:	6144      	str	r4, [r0, #20]
 80025b4:	e7ea      	b.n	800258c <sensor::INA219::Configure(sensor::ina219::Config&)+0x24>
 80025b6:	4c04      	ldr	r4, [pc, #16]	; (80025c8 <sensor::INA219::Configure(sensor::ina219::Config&)+0x60>)
 80025b8:	e7fb      	b.n	80025b2 <sensor::INA219::Configure(sensor::ina219::Config&)+0x4a>
 80025ba:	4c04      	ldr	r4, [pc, #16]	; (80025cc <sensor::INA219::Configure(sensor::ina219::Config&)+0x64>)
 80025bc:	e7f9      	b.n	80025b2 <sensor::INA219::Configure(sensor::ina219::Config&)+0x4a>
 80025be:	4c04      	ldr	r4, [pc, #16]	; (80025d0 <sensor::INA219::Configure(sensor::ina219::Config&)+0x68>)
 80025c0:	e7f7      	b.n	80025b2 <sensor::INA219::Configure(sensor::ina219::Config&)+0x4a>
 80025c2:	bf00      	nop
 80025c4:	3ea3d70a 	cdpcc	7, 10, cr13, cr3, cr10, {0}
 80025c8:	3e23d70a 	cdpcc	7, 2, cr13, cr3, cr10, {0}
 80025cc:	3da3d70a 	stccc	7, cr13, [r3, #40]!	; 0x28
 80025d0:	3d23d70a 	stccc	7, cr13, [r3, #-40]!	; 0xffffffd8

080025d4 <sensor::INA219::Calibrate(float, float)>:
 80025d4:	ed9f 7a21 	vldr	s14, [pc, #132]	; 800265c <sensor::INA219::Calibrate(float, float)+0x88>
 80025d8:	eddf 6a21 	vldr	s13, [pc, #132]	; 8002660 <sensor::INA219::Calibrate(float, float)+0x8c>
 80025dc:	ed80 0a07 	vstr	s0, [r0, #28]
 80025e0:	eec0 7a87 	vdiv.f32	s15, s1, s14
 80025e4:	b508      	push	{r3, lr}
 80025e6:	2105      	movs	r1, #5
 80025e8:	ed9f 7a1e 	vldr	s14, [pc, #120]	; 8002664 <sensor::INA219::Calibrate(float, float)+0x90>
 80025ec:	ee67 7a87 	vmul.f32	s15, s15, s14
 80025f0:	eefc 7ae7 	vcvt.u32.f32	s15, s15
 80025f4:	ee17 3a90 	vmov	r3, s15
 80025f8:	b29b      	uxth	r3, r3
 80025fa:	ee07 3a90 	vmov	s15, r3
 80025fe:	eef8 7a67 	vcvt.f32.u32	s15, s15
 8002602:	eec7 5a87 	vdiv.f32	s11, s15, s14
 8002606:	ee85 6aa6 	vdiv.f32	s12, s11, s13
 800260a:	eebd 7ac6 	vcvt.s32.f32	s14, s12
 800260e:	eef8 7ac7 	vcvt.f32.s32	s15, s14
 8002612:	eeb4 6a67 	vcmp.f32	s12, s15
 8002616:	eef1 fa10 	vmrs	APSR_nzcv, fpscr
 800261a:	bf1f      	itttt	ne
 800261c:	ee17 3a10 	vmovne	r3, s14
 8002620:	3301      	addne	r3, #1
 8002622:	ee07 3a10 	vmovne	s14, r3
 8002626:	eef8 7ac7 	vcvtne.f32.s32	s15, s14
 800262a:	eeb3 7a04 	vmov.f32	s14, #52	; 0x41a00000  20.0
 800262e:	ee67 7aa6 	vmul.f32	s15, s15, s13
 8002632:	eddf 6a0d 	vldr	s13, [pc, #52]	; 8002668 <sensor::INA219::Calibrate(float, float)+0x94>
 8002636:	edc0 7a03 	vstr	s15, [r0, #12]
 800263a:	ee27 7a87 	vmul.f32	s14, s15, s14
 800263e:	ee67 7a80 	vmul.f32	s15, s15, s0
 8002642:	ed80 7a04 	vstr	s14, [r0, #16]
 8002646:	ee86 7aa7 	vdiv.f32	s14, s13, s15
 800264a:	eefc 7ac7 	vcvt.u32.f32	s15, s14
 800264e:	ee17 3a90 	vmov	r3, s15
 8002652:	b29a      	uxth	r2, r3
 8002654:	f7ff ff52 	bl	80024fc <HAL_I2C::WriteRegister(unsigned char, unsigned short)>
 8002658:	bd08      	pop	{r3, pc}
 800265a:	bf00      	nop
 800265c:	46fffe00 	ldrbtmi	pc, [pc], r0, lsl #28	; <UNPREDICTABLE>
 8002660:	38d1b717 	ldmcc	r1, {r0, r1, r2, r4, r8, r9, sl, ip, sp, pc}^
 8002664:	4cbebc20 	ldcmi	12, cr11, [lr], #128	; 0x80
 8002668:	3d27c5ac 	cfstr32cc	mvfx12, [r7, #-688]!	; 0xfffffd50

0800266c <sensor::INA219::INA219(unsigned char)>:
 800266c:	b5f0      	push	{r4, r5, r6, r7, lr}
 800266e:	1e0c      	subs	r4, r1, #0
 8002670:	bf08      	it	eq
 8002672:	2440      	moveq	r4, #64	; 0x40
 8002674:	4f1b      	ldr	r7, [pc, #108]	; (80026e4 <sensor::INA219::INA219(unsigned char)+0x78>)
 8002676:	7004      	strb	r4, [r0, #0]
 8002678:	2600      	movs	r6, #0
 800267a:	b085      	sub	sp, #20
 800267c:	6047      	str	r7, [r0, #4]
 800267e:	7206      	strb	r6, [r0, #8]
 8002680:	4605      	mov	r5, r0
 8002682:	4620      	mov	r0, r4
 8002684:	f006 fda2 	bl	80091cc <gd32_i2c_set_address>
 8002688:	4638      	mov	r0, r7
 800268a:	f006 fd97 	bl	80091bc <gd32_i2c_set_baudrate>
 800268e:	f1a4 0330 	sub.w	r3, r4, #48	; 0x30
 8002692:	2b07      	cmp	r3, #7
 8002694:	d902      	bls.n	800269c <sensor::INA219::INA219(unsigned char)+0x30>
 8002696:	3c50      	subs	r4, #80	; 0x50
 8002698:	2c0f      	cmp	r4, #15
 800269a:	d81d      	bhi.n	80026d8 <sensor::INA219::INA219(unsigned char)+0x6c>
 800269c:	2101      	movs	r1, #1
 800269e:	a801      	add	r0, sp, #4
 80026a0:	f006 fe00 	bl	80092a4 <gd32_i2c_read>
 80026a4:	fab0 f080 	clz	r0, r0
 80026a8:	0940      	lsrs	r0, r0, #5
 80026aa:	7228      	strb	r0, [r5, #8]
 80026ac:	b188      	cbz	r0, 80026d2 <sensor::INA219::INA219(unsigned char)+0x66>
 80026ae:	4a0e      	ldr	r2, [pc, #56]	; (80026e8 <sensor::INA219::INA219(unsigned char)+0x7c>)
 80026b0:	6810      	ldr	r0, [r2, #0]
 80026b2:	6851      	ldr	r1, [r2, #4]
 80026b4:	8912      	ldrh	r2, [r2, #8]
 80026b6:	ab01      	add	r3, sp, #4
 80026b8:	c303      	stmia	r3!, {r0, r1}
 80026ba:	4628      	mov	r0, r5
 80026bc:	801a      	strh	r2, [r3, #0]
 80026be:	a901      	add	r1, sp, #4
 80026c0:	f7ff ff52 	bl	8002568 <sensor::INA219::Configure(sensor::ina219::Config&)>
 80026c4:	ed9f 0a09 	vldr	s0, [pc, #36]	; 80026ec <sensor::INA219::INA219(unsigned char)+0x80>
 80026c8:	eef0 0a00 	vmov.f32	s1, #0	; 0x40000000  2.0
 80026cc:	4628      	mov	r0, r5
 80026ce:	f7ff ff81 	bl	80025d4 <sensor::INA219::Calibrate(float, float)>
 80026d2:	4628      	mov	r0, r5
 80026d4:	b005      	add	sp, #20
 80026d6:	bdf0      	pop	{r4, r5, r6, r7, pc}
 80026d8:	4631      	mov	r1, r6
 80026da:	4630      	mov	r0, r6
 80026dc:	f006 fd7c 	bl	80091d8 <gd32_i2c_write>
 80026e0:	e7e0      	b.n	80026a4 <sensor::INA219::INA219(unsigned char)+0x38>
 80026e2:	bf00      	nop
 80026e4:	00061a80 	andeq	r1, r6, r0, lsl #21
 80026e8:	08009c7c 	stmdaeq	r0, {r2, r3, r4, r5, r6, sl, fp, ip, pc}
 80026ec:	3dcccccd 	stclcc	12, cr12, [ip, #820]	; 0x334

080026f0 <sensor::INA219::GetShuntCurrent()>:
 80026f0:	b510      	push	{r4, lr}
 80026f2:	f44f 7248 	mov.w	r2, #800	; 0x320
 80026f6:	2104      	movs	r1, #4
 80026f8:	4604      	mov	r4, r0
 80026fa:	f7ff ff14 	bl	8002526 <HAL_I2C::ReadRegister16DelayUs(unsigned char, unsigned long)>
 80026fe:	ee07 0a90 	vmov	s15, r0
 8002702:	ed94 0a03 	vldr	s0, [r4, #12]
 8002706:	eef8 7ae7 	vcvt.f32.s32	s15, s15
 800270a:	ee27 0a80 	vmul.f32	s0, s15, s0
 800270e:	bd10      	pop	{r4, pc}

08002710 <sensor::INA219::GetBusVoltageRaw()>:
 8002710:	b508      	push	{r3, lr}
 8002712:	f44f 7248 	mov.w	r2, #800	; 0x320
 8002716:	2102      	movs	r1, #2
 8002718:	f7ff ff05 	bl	8002526 <HAL_I2C::ReadRegister16DelayUs(unsigned char, unsigned long)>
 800271c:	f340 004f 	sbfx	r0, r0, #1, #16
 8002720:	f020 0003 	bic.w	r0, r0, #3
 8002724:	bd08      	pop	{r3, pc}
	...

08002728 <sensor::INA219::GetBusVoltage()>:
 8002728:	b508      	push	{r3, lr}
 800272a:	f7ff fff1 	bl	8002710 <sensor::INA219::GetBusVoltageRaw()>
 800272e:	ee07 0a90 	vmov	s15, r0
 8002732:	ed9f 0a03 	vldr	s0, [pc, #12]	; 8002740 <sensor::INA219::GetBusVoltage()+0x18>
 8002736:	eef8 7ae7 	vcvt.f32.s32	s15, s15
 800273a:	ee27 0a80 	vmul.f32	s0, s15, s0
 800273e:	bd08      	pop	{r3, pc}
 8002740:	3a83126f 	bcc	60c7104 <__heap_size+0x60c6104>

08002744 <sensor::INA219::GetBusPower()>:
 8002744:	b510      	push	{r4, lr}
 8002746:	f44f 7248 	mov.w	r2, #800	; 0x320
 800274a:	2103      	movs	r1, #3
 800274c:	4604      	mov	r4, r0
 800274e:	f7ff feea 	bl	8002526 <HAL_I2C::ReadRegister16DelayUs(unsigned char, unsigned long)>
 8002752:	ee07 0a90 	vmov	s15, r0
 8002756:	ed94 0a04 	vldr	s0, [r4, #16]
 800275a:	eef8 7ae7 	vcvt.f32.s32	s15, s15
 800275e:	ee27 0a80 	vmul.f32	s0, s15, s0
 8002762:	bd10      	pop	{r4, pc}
 8002764:	0000      	movs	r0, r0
	...

08002768 <MCP3424::SetResolution(adc::mcp3424::Resolution)>:
 8002768:	7a42      	ldrb	r2, [r0, #9]
 800276a:	008b      	lsls	r3, r1, #2
 800276c:	f003 030c 	and.w	r3, r3, #12
 8002770:	f022 020c 	bic.w	r2, r2, #12
 8002774:	b530      	push	{r4, r5, lr}
 8002776:	4313      	orrs	r3, r2
 8002778:	2903      	cmp	r1, #3
 800277a:	d80a      	bhi.n	8002792 <MCP3424::SetResolution(adc::mcp3424::Resolution)+0x2a>
 800277c:	e8df f001 	tbb	[pc, r1]
 8002780:	0911020d 	ldmdbeq	r1, {r0, r2, r3, r9}
 8002784:	a50a      	add	r5, pc, #40	; (adr r5, 80027b0 <MCP3424::SetResolution(adc::mcp3424::Resolution)+0x48>)
 8002786:	e9d5 4500 	ldrd	r4, r5, [r5]
 800278a:	e9c0 4504 	strd	r4, r5, [r0, #16]
 800278e:	7243      	strb	r3, [r0, #9]
 8002790:	bd30      	pop	{r4, r5, pc}
 8002792:	a509      	add	r5, pc, #36	; (adr r5, 80027b8 <MCP3424::SetResolution(adc::mcp3424::Resolution)+0x50>)
 8002794:	e9d5 4500 	ldrd	r4, r5, [r5]
 8002798:	e7f7      	b.n	800278a <MCP3424::SetResolution(adc::mcp3424::Resolution)+0x22>
 800279a:	a509      	add	r5, pc, #36	; (adr r5, 80027c0 <MCP3424::SetResolution(adc::mcp3424::Resolution)+0x58>)
 800279c:	e9d5 4500 	ldrd	r4, r5, [r5]
 80027a0:	e7f3      	b.n	800278a <MCP3424::SetResolution(adc::mcp3424::Resolution)+0x22>
 80027a2:	a509      	add	r5, pc, #36	; (adr r5, 80027c8 <MCP3424::SetResolution(adc::mcp3424::Resolution)+0x60>)
 80027a4:	e9d5 4500 	ldrd	r4, r5, [r5]
 80027a8:	e7ef      	b.n	800278a <MCP3424::SetResolution(adc::mcp3424::Resolution)+0x22>
 80027aa:	bf00      	nop
 80027ac:	f3af 8000 	nop.w
 80027b0:	e0000000 	and	r0, r0, r0
 80027b4:	3f20624d 	svccc	0x0020624d
 80027b8:	e0000000 	and	r0, r0, r0
 80027bc:	3ee0624d 	cdpcc	2, 14, cr6, cr0, cr13, {2}
 80027c0:	e0000000 	and	r0, r0, r0
 80027c4:	3f40624d 	svccc	0x0040624d
 80027c8:	e0000000 	and	r0, r0, r0
 80027cc:	3f00624d 	svccc	0x0000624d

080027d0 <MCP3424::MCP3424(unsigned char)>:
 80027d0:	b5f7      	push	{r0, r1, r2, r4, r5, r6, r7, lr}
 80027d2:	1e0d      	subs	r5, r1, #0
 80027d4:	bf08      	it	eq
 80027d6:	2568      	moveq	r5, #104	; 0x68
 80027d8:	4f19      	ldr	r7, [pc, #100]	; (8002840 <MCP3424::MCP3424(unsigned char)+0x70>)
 80027da:	7005      	strb	r5, [r0, #0]
 80027dc:	2600      	movs	r6, #0
 80027de:	6047      	str	r7, [r0, #4]
 80027e0:	7206      	strb	r6, [r0, #8]
 80027e2:	4604      	mov	r4, r0
 80027e4:	4628      	mov	r0, r5
 80027e6:	f006 fcf1 	bl	80091cc <gd32_i2c_set_address>
 80027ea:	4638      	mov	r0, r7
 80027ec:	f006 fce6 	bl	80091bc <gd32_i2c_set_baudrate>
 80027f0:	f1a5 0330 	sub.w	r3, r5, #48	; 0x30
 80027f4:	2b07      	cmp	r3, #7
 80027f6:	d902      	bls.n	80027fe <MCP3424::MCP3424(unsigned char)+0x2e>
 80027f8:	3d50      	subs	r5, #80	; 0x50
 80027fa:	2d0f      	cmp	r5, #15
 80027fc:	d81a      	bhi.n	8002834 <MCP3424::MCP3424(unsigned char)+0x64>
 80027fe:	2101      	movs	r1, #1
 8002800:	f10d 0007 	add.w	r0, sp, #7
 8002804:	f006 fd4e 	bl	80092a4 <gd32_i2c_read>
 8002808:	fab0 f080 	clz	r0, r0
 800280c:	0940      	lsrs	r0, r0, #5
 800280e:	7220      	strb	r0, [r4, #8]
 8002810:	b168      	cbz	r0, 800282e <MCP3424::MCP3424(unsigned char)+0x5e>
 8002812:	7a63      	ldrb	r3, [r4, #9]
 8002814:	f023 0303 	bic.w	r3, r3, #3
 8002818:	7263      	strb	r3, [r4, #9]
 800281a:	2100      	movs	r1, #0
 800281c:	4620      	mov	r0, r4
 800281e:	f7ff ffa3 	bl	8002768 <MCP3424::SetResolution(adc::mcp3424::Resolution)>
 8002822:	7a63      	ldrb	r3, [r4, #9]
 8002824:	f023 0310 	bic.w	r3, r3, #16
 8002828:	f043 0310 	orr.w	r3, r3, #16
 800282c:	7263      	strb	r3, [r4, #9]
 800282e:	4620      	mov	r0, r4
 8002830:	b003      	add	sp, #12
 8002832:	bdf0      	pop	{r4, r5, r6, r7, pc}
 8002834:	4631      	mov	r1, r6
 8002836:	4630      	mov	r0, r6
 8002838:	f006 fcce 	bl	80091d8 <gd32_i2c_write>
 800283c:	e7e4      	b.n	8002808 <MCP3424::MCP3424(unsigned char)+0x38>
 800283e:	bf00      	nop
 8002840:	00061a80 	andeq	r1, r6, r0, lsl #21

08002844 <MCP3424::GetRaw(unsigned long)>:
 8002844:	b5f7      	push	{r0, r1, r2, r4, r5, r6, r7, lr}
 8002846:	7a43      	ldrb	r3, [r0, #9]
 8002848:	0149      	lsls	r1, r1, #5
 800284a:	f023 0360 	bic.w	r3, r3, #96	; 0x60
 800284e:	f001 0160 	and.w	r1, r1, #96	; 0x60
 8002852:	430b      	orrs	r3, r1
 8002854:	7243      	strb	r3, [r0, #9]
 8002856:	f003 030c 	and.w	r3, r3, #12
 800285a:	2b0c      	cmp	r3, #12
 800285c:	f04f 0300 	mov.w	r3, #0
 8002860:	4604      	mov	r4, r0
 8002862:	bf0c      	ite	eq
 8002864:	2604      	moveq	r6, #4
 8002866:	2603      	movne	r6, #3
 8002868:	9301      	str	r3, [sp, #4]
 800286a:	f641 7541 	movw	r5, #8001	; 0x1f41
 800286e:	7820      	ldrb	r0, [r4, #0]
 8002870:	7a67      	ldrb	r7, [r4, #9]
 8002872:	f006 fcab 	bl	80091cc <gd32_i2c_set_address>
 8002876:	6860      	ldr	r0, [r4, #4]
 8002878:	f006 fca0 	bl	80091bc <gd32_i2c_set_baudrate>
 800287c:	2101      	movs	r1, #1
 800287e:	4668      	mov	r0, sp
 8002880:	f88d 7000 	strb.w	r7, [sp]
 8002884:	f006 fca8 	bl	80091d8 <gd32_i2c_write>
 8002888:	7820      	ldrb	r0, [r4, #0]
 800288a:	f006 fc9f 	bl	80091cc <gd32_i2c_set_address>
 800288e:	6860      	ldr	r0, [r4, #4]
 8002890:	f006 fc94 	bl	80091bc <gd32_i2c_set_baudrate>
 8002894:	4631      	mov	r1, r6
 8002896:	a801      	add	r0, sp, #4
 8002898:	f006 fd04 	bl	80092a4 <gd32_i2c_read>
 800289c:	2e04      	cmp	r6, #4
 800289e:	bf0c      	ite	eq
 80028a0:	f99d 3007 	ldrsbeq.w	r3, [sp, #7]
 80028a4:	f99d 3006 	ldrsbne.w	r3, [sp, #6]
 80028a8:	2b00      	cmp	r3, #0
 80028aa:	da04      	bge.n	80028b6 <MCP3424::GetRaw(unsigned long)+0x72>
 80028ac:	3d01      	subs	r5, #1
 80028ae:	d1de      	bne.n	800286e <MCP3424::GetRaw(unsigned long)+0x2a>
 80028b0:	f04f 30ff 	mov.w	r0, #4294967295	; 0xffffffff
 80028b4:	e013      	b.n	80028de <MCP3424::GetRaw(unsigned long)+0x9a>
 80028b6:	7a62      	ldrb	r2, [r4, #9]
 80028b8:	f89d 3004 	ldrb.w	r3, [sp, #4]
 80028bc:	f89d 0005 	ldrb.w	r0, [sp, #5]
 80028c0:	f3c2 0281 	ubfx	r2, r2, #2, #2
 80028c4:	2a02      	cmp	r2, #2
 80028c6:	d00c      	beq.n	80028e2 <MCP3424::GetRaw(unsigned long)+0x9e>
 80028c8:	2a03      	cmp	r2, #3
 80028ca:	d00f      	beq.n	80028ec <MCP3424::GetRaw(unsigned long)+0xa8>
 80028cc:	2a01      	cmp	r2, #1
 80028ce:	ea4f 2303 	mov.w	r3, r3, lsl #8
 80028d2:	bf14      	ite	ne
 80028d4:	f403 6370 	andne.w	r3, r3, #3840	; 0xf00
 80028d8:	f403 537c 	andeq.w	r3, r3, #16128	; 0x3f00
 80028dc:	4318      	orrs	r0, r3
 80028de:	b003      	add	sp, #12
 80028e0:	bdf0      	pop	{r4, r5, r6, r7, pc}
 80028e2:	f8bd 0004 	ldrh.w	r0, [sp, #4]
 80028e6:	ba40      	rev16	r0, r0
 80028e8:	b280      	uxth	r0, r0
 80028ea:	e7f8      	b.n	80028de <MCP3424::GetRaw(unsigned long)+0x9a>
 80028ec:	f8bd 0005 	ldrh.w	r0, [sp, #5]
 80028f0:	041b      	lsls	r3, r3, #16
 80028f2:	ba40      	rev16	r0, r0
 80028f4:	f403 3340 	and.w	r3, r3, #196608	; 0x30000
 80028f8:	b280      	uxth	r0, r0
 80028fa:	e7ef      	b.n	80028dc <MCP3424::GetRaw(unsigned long)+0x98>

080028fc <MCP3424::GetVoltage(unsigned long)>:
 80028fc:	b510      	push	{r4, lr}
 80028fe:	4604      	mov	r4, r0
 8002900:	f7ff ffa0 	bl	8002844 <MCP3424::GetRaw(unsigned long)>
 8002904:	f7fd fdb6 	bl	8000474 <__aeabi_ui2d>
 8002908:	4602      	mov	r2, r0
 800290a:	460b      	mov	r3, r1
 800290c:	f7fd fc76 	bl	80001fc <__adddf3>
 8002910:	e9d4 2304 	ldrd	r2, r3, [r4, #16]
 8002914:	f7fd fe28 	bl	8000568 <__aeabi_dmul>
 8002918:	ec41 0b10 	vmov	d0, r0, r1
 800291c:	bd10      	pop	{r4, pc}

0800291e <HAL_I2C::ReadRegister16(unsigned char)>:
 800291e:	b513      	push	{r0, r1, r4, lr}
 8002920:	4604      	mov	r4, r0
 8002922:	7800      	ldrb	r0, [r0, #0]
 8002924:	f88d 1000 	strb.w	r1, [sp]
 8002928:	f006 fc50 	bl	80091cc <gd32_i2c_set_address>
 800292c:	6860      	ldr	r0, [r4, #4]
 800292e:	f006 fc45 	bl	80091bc <gd32_i2c_set_baudrate>
 8002932:	2101      	movs	r1, #1
 8002934:	4668      	mov	r0, sp
 8002936:	f006 fc4f 	bl	80091d8 <gd32_i2c_write>
 800293a:	2300      	movs	r3, #0
 800293c:	7820      	ldrb	r0, [r4, #0]
 800293e:	f8ad 3004 	strh.w	r3, [sp, #4]
 8002942:	f006 fc43 	bl	80091cc <gd32_i2c_set_address>
 8002946:	6860      	ldr	r0, [r4, #4]
 8002948:	f006 fc38 	bl	80091bc <gd32_i2c_set_baudrate>
 800294c:	2102      	movs	r1, #2
 800294e:	a801      	add	r0, sp, #4
 8002950:	f006 fca8 	bl	80092a4 <gd32_i2c_read>
 8002954:	f8bd 0004 	ldrh.w	r0, [sp, #4]
 8002958:	ba40      	rev16	r0, r0
 800295a:	b280      	uxth	r0, r0
 800295c:	b002      	add	sp, #8
 800295e:	bd10      	pop	{r4, pc}

08002960 <sensor::MCP9808::MCP9808(unsigned char)>:
 8002960:	b5f7      	push	{r0, r1, r2, r4, r5, r6, r7, lr}
 8002962:	1e0d      	subs	r5, r1, #0
 8002964:	bf08      	it	eq
 8002966:	2518      	moveq	r5, #24
 8002968:	4f1b      	ldr	r7, [pc, #108]	; (80029d8 <sensor::MCP9808::MCP9808(unsigned char)+0x78>)
 800296a:	7005      	strb	r5, [r0, #0]
 800296c:	2600      	movs	r6, #0
 800296e:	6047      	str	r7, [r0, #4]
 8002970:	7206      	strb	r6, [r0, #8]
 8002972:	4604      	mov	r4, r0
 8002974:	4628      	mov	r0, r5
 8002976:	f006 fc29 	bl	80091cc <gd32_i2c_set_address>
 800297a:	4638      	mov	r0, r7
 800297c:	f006 fc1e 	bl	80091bc <gd32_i2c_set_baudrate>
 8002980:	f1a5 0330 	sub.w	r3, r5, #48	; 0x30
 8002984:	2b07      	cmp	r3, #7
 8002986:	d902      	bls.n	800298e <sensor::MCP9808::MCP9808(unsigned char)+0x2e>
 8002988:	3d50      	subs	r5, #80	; 0x50
 800298a:	2d0f      	cmp	r5, #15
 800298c:	d81f      	bhi.n	80029ce <sensor::MCP9808::MCP9808(unsigned char)+0x6e>
 800298e:	2101      	movs	r1, #1
 8002990:	f10d 0007 	add.w	r0, sp, #7
 8002994:	f006 fc86 	bl	80092a4 <gd32_i2c_read>
 8002998:	fab0 f080 	clz	r0, r0
 800299c:	0940      	lsrs	r0, r0, #5
 800299e:	7220      	strb	r0, [r4, #8]
 80029a0:	b190      	cbz	r0, 80029c8 <sensor::MCP9808::MCP9808(unsigned char)+0x68>
 80029a2:	2106      	movs	r1, #6
 80029a4:	4620      	mov	r0, r4
 80029a6:	f7ff ffba 	bl	800291e <HAL_I2C::ReadRegister16(unsigned char)>
 80029aa:	2854      	cmp	r0, #84	; 0x54
 80029ac:	bf0c      	ite	eq
 80029ae:	2301      	moveq	r3, #1
 80029b0:	2300      	movne	r3, #0
 80029b2:	7223      	strb	r3, [r4, #8]
 80029b4:	d108      	bne.n	80029c8 <sensor::MCP9808::MCP9808(unsigned char)+0x68>
 80029b6:	2107      	movs	r1, #7
 80029b8:	4620      	mov	r0, r4
 80029ba:	f7ff ffb0 	bl	800291e <HAL_I2C::ReadRegister16(unsigned char)>
 80029be:	f5a0 6380 	sub.w	r3, r0, #1024	; 0x400
 80029c2:	4258      	negs	r0, r3
 80029c4:	4158      	adcs	r0, r3
 80029c6:	7220      	strb	r0, [r4, #8]
 80029c8:	4620      	mov	r0, r4
 80029ca:	b003      	add	sp, #12
 80029cc:	bdf0      	pop	{r4, r5, r6, r7, pc}
 80029ce:	4631      	mov	r1, r6
 80029d0:	4630      	mov	r0, r6
 80029d2:	f006 fc01 	bl	80091d8 <gd32_i2c_write>
 80029d6:	e7df      	b.n	8002998 <sensor::MCP9808::MCP9808(unsigned char)+0x38>
 80029d8:	00061a80 	andeq	r1, r6, r0, lsl #21

080029dc <sensor::MCP9808::Get()>:
 80029dc:	b508      	push	{r3, lr}
 80029de:	2105      	movs	r1, #5
 80029e0:	f7ff ff9d 	bl	800291e <HAL_I2C::ReadRegister16(unsigned char)>
 80029e4:	f3c0 030b 	ubfx	r3, r0, #0, #12
 80029e8:	ee00 3a10 	vmov	s0, r3
 80029ec:	04c3      	lsls	r3, r0, #19
 80029ee:	eeba 0ace 	vcvt.f32.s32	s0, s0, #4
 80029f2:	bf44      	itt	mi
 80029f4:	eddf 7a02 	vldrmi	s15, [pc, #8]	; 8002a00 <sensor::MCP9808::Get()+0x24>
 80029f8:	ee30 0a67 	vsubmi.f32	s0, s0, s15
 80029fc:	bd08      	pop	{r3, pc}
 80029fe:	bf00      	nop
 8002a00:	43800000 	orrmi	r0, r0, #0

08002a04 <sensor::SI7021::SI7021(unsigned char)>:
 8002a04:	b5f7      	push	{r0, r1, r2, r4, r5, r6, r7, lr}
 8002a06:	1e0c      	subs	r4, r1, #0
 8002a08:	bf08      	it	eq
 8002a0a:	2440      	moveq	r4, #64	; 0x40
 8002a0c:	4f11      	ldr	r7, [pc, #68]	; (8002a54 <sensor::SI7021::SI7021(unsigned char)+0x50>)
 8002a0e:	7004      	strb	r4, [r0, #0]
 8002a10:	2600      	movs	r6, #0
 8002a12:	6047      	str	r7, [r0, #4]
 8002a14:	7206      	strb	r6, [r0, #8]
 8002a16:	4605      	mov	r5, r0
 8002a18:	4620      	mov	r0, r4
 8002a1a:	f006 fbd7 	bl	80091cc <gd32_i2c_set_address>
 8002a1e:	4638      	mov	r0, r7
 8002a20:	f006 fbcc 	bl	80091bc <gd32_i2c_set_baudrate>
 8002a24:	f1a4 0330 	sub.w	r3, r4, #48	; 0x30
 8002a28:	2b07      	cmp	r3, #7
 8002a2a:	d902      	bls.n	8002a32 <sensor::SI7021::SI7021(unsigned char)+0x2e>
 8002a2c:	3c50      	subs	r4, #80	; 0x50
 8002a2e:	2c0f      	cmp	r4, #15
 8002a30:	d80b      	bhi.n	8002a4a <sensor::SI7021::SI7021(unsigned char)+0x46>
 8002a32:	2101      	movs	r1, #1
 8002a34:	f10d 0007 	add.w	r0, sp, #7
 8002a38:	f006 fc34 	bl	80092a4 <gd32_i2c_read>
 8002a3c:	fab0 f380 	clz	r3, r0
 8002a40:	095b      	lsrs	r3, r3, #5
 8002a42:	4628      	mov	r0, r5
 8002a44:	722b      	strb	r3, [r5, #8]
 8002a46:	b003      	add	sp, #12
 8002a48:	bdf0      	pop	{r4, r5, r6, r7, pc}
 8002a4a:	4631      	mov	r1, r6
 8002a4c:	4630      	mov	r0, r6
 8002a4e:	f006 fbc3 	bl	80091d8 <gd32_i2c_write>
 8002a52:	e7f3      	b.n	8002a3c <sensor::SI7021::SI7021(unsigned char)+0x38>
 8002a54:	00061a80 	andeq	r1, r6, r0, lsl #21

08002a58 <sensor::SI7021::ReadRaw(unsigned char)>:
 8002a58:	b537      	push	{r0, r1, r2, r4, r5, lr}
 8002a5a:	4604      	mov	r4, r0
 8002a5c:	7800      	ldrb	r0, [r0, #0]
 8002a5e:	460d      	mov	r5, r1
 8002a60:	f006 fbb4 	bl	80091cc <gd32_i2c_set_address>
 8002a64:	6860      	ldr	r0, [r4, #4]
 8002a66:	f006 fba9 	bl	80091bc <gd32_i2c_set_baudrate>
 8002a6a:	2101      	movs	r1, #1
 8002a6c:	a801      	add	r0, sp, #4
 8002a6e:	f88d 5004 	strb.w	r5, [sp, #4]
 8002a72:	f006 fbb1 	bl	80091d8 <gd32_i2c_write>
 8002a76:	4b13      	ldr	r3, [pc, #76]	; (8002ac4 <sensor::SI7021::ReadRaw(unsigned char)+0x6c>)
 8002a78:	881b      	ldrh	r3, [r3, #0]
 8002a7a:	f8ad 3004 	strh.w	r3, [sp, #4]
 8002a7e:	2300      	movs	r3, #0
 8002a80:	f88d 3006 	strb.w	r3, [sp, #6]
 8002a84:	2508      	movs	r5, #8
 8002a86:	2100      	movs	r1, #0
 8002a88:	f242 7010 	movw	r0, #10000	; 0x2710
 8002a8c:	f006 fea8 	bl	80097e0 <udelay(unsigned long, unsigned long)>
 8002a90:	7820      	ldrb	r0, [r4, #0]
 8002a92:	f006 fb9b 	bl	80091cc <gd32_i2c_set_address>
 8002a96:	6860      	ldr	r0, [r4, #4]
 8002a98:	f006 fb90 	bl	80091bc <gd32_i2c_set_baudrate>
 8002a9c:	2103      	movs	r1, #3
 8002a9e:	a801      	add	r0, sp, #4
 8002aa0:	f006 fc00 	bl	80092a4 <gd32_i2c_read>
 8002aa4:	f89d 3004 	ldrb.w	r3, [sp, #4]
 8002aa8:	f003 0303 	and.w	r3, r3, #3
 8002aac:	2b02      	cmp	r3, #2
 8002aae:	d001      	beq.n	8002ab4 <sensor::SI7021::ReadRaw(unsigned char)+0x5c>
 8002ab0:	3d01      	subs	r5, #1
 8002ab2:	d1e8      	bne.n	8002a86 <sensor::SI7021::ReadRaw(unsigned char)+0x2e>
 8002ab4:	f8bd 0004 	ldrh.w	r0, [sp, #4]
 8002ab8:	ba40      	rev16	r0, r0
 8002aba:	f020 0003 	bic.w	r0, r0, #3
 8002abe:	b280      	uxth	r0, r0
 8002ac0:	b003      	add	sp, #12
 8002ac2:	bd30      	pop	{r4, r5, pc}
 8002ac4:	08009c86 	stmdaeq	r0, {r1, r2, r7, sl, fp, ip, pc}

08002ac8 <sensor::SI7021::GetTemperature()>:
 8002ac8:	b508      	push	{r3, lr}
 8002aca:	21f3      	movs	r1, #243	; 0xf3
 8002acc:	f7ff ffc4 	bl	8002a58 <sensor::SI7021::ReadRaw(unsigned char)>
 8002ad0:	ee07 0a90 	vmov	s15, r0
 8002ad4:	ed9f 7a04 	vldr	s14, [pc, #16]	; 8002ae8 <sensor::SI7021::GetTemperature()+0x20>
 8002ad8:	ed9f 0a04 	vldr	s0, [pc, #16]	; 8002aec <sensor::SI7021::GetTemperature()+0x24>
 8002adc:	eefb 7ac8 	vcvt.f32.u32	s15, s15, #16
 8002ae0:	eea7 0a87 	vfma.f32	s0, s15, s14
 8002ae4:	bd08      	pop	{r3, pc}
 8002ae6:	bf00      	nop
 8002ae8:	432fb852 			; <UNDEFINED> instruction: 0x432fb852
 8002aec:	c23b6666 	eorsgt	r6, fp, #106954752	; 0x6600000

08002af0 <sensor::SI7021::GetHumidity()>:
 8002af0:	b508      	push	{r3, lr}
 8002af2:	21f5      	movs	r1, #245	; 0xf5
 8002af4:	f7ff ffb0 	bl	8002a58 <sensor::SI7021::ReadRaw(unsigned char)>
 8002af8:	ee07 0a90 	vmov	s15, r0
 8002afc:	ed9f 7a04 	vldr	s14, [pc, #16]	; 8002b10 <sensor::SI7021::GetHumidity()+0x20>
 8002b00:	eefb 7ac8 	vcvt.f32.u32	s15, s15, #16
 8002b04:	eeb9 0a08 	vmov.f32	s0, #152	; 0xc0c00000 -6.0
 8002b08:	eea7 0a87 	vfma.f32	s0, s15, s14
 8002b0c:	bd08      	pop	{r3, pc}
 8002b0e:	bf00      	nop
 8002b10:	42fa0000 	rscsmi	r0, sl, #0

08002b14 <RDMDeviceParamsStore::Copy(rdm::deviceparams::Params*)>:
 8002b14:	b507      	push	{r0, r1, r2, lr}
 8002b16:	2300      	movs	r3, #0
 8002b18:	2101      	movs	r1, #1
 8002b1a:	e9cd 3100 	strd	r3, r1, [sp]
 8002b1e:	4602      	mov	r2, r0
 8002b20:	4804      	ldr	r0, [pc, #16]	; (8002b34 <RDMDeviceParamsStore::Copy(rdm::deviceparams::Params*)+0x20>)
 8002b22:	2329      	movs	r3, #41	; 0x29
 8002b24:	6800      	ldr	r0, [r0, #0]
 8002b26:	2109      	movs	r1, #9
 8002b28:	f004 faf4 	bl	8007114 <ConfigStore::Copy(configstore::Store, void*, unsigned long, unsigned long, bool)>
 8002b2c:	b003      	add	sp, #12
 8002b2e:	f85d fb04 	ldr.w	pc, [sp], #4
 8002b32:	bf00      	nop
 8002b34:	20001638 	andcs	r1, r0, r8, lsr r6

08002b38 <RDMDeviceParams::RDMDeviceParams()>:
 8002b38:	b510      	push	{r4, lr}
 8002b3a:	2225      	movs	r2, #37	; 0x25
 8002b3c:	4604      	mov	r4, r0
 8002b3e:	2100      	movs	r1, #0
 8002b40:	f005 fb4d 	bl	80081de <memset>
 8002b44:	f04f 32ff 	mov.w	r2, #4294967295	; 0xffffffff
 8002b48:	237f      	movs	r3, #127	; 0x7f
 8002b4a:	f884 2025 	strb.w	r2, [r4, #37]	; 0x25
 8002b4e:	f884 3026 	strb.w	r3, [r4, #38]	; 0x26
 8002b52:	f884 2027 	strb.w	r2, [r4, #39]	; 0x27
 8002b56:	f884 3028 	strb.w	r3, [r4, #40]	; 0x28
 8002b5a:	4620      	mov	r0, r4
 8002b5c:	bd10      	pop	{r4, pc}

08002b5e <RDMDeviceParams::Load()>:
 8002b5e:	b508      	push	{r3, lr}
 8002b60:	f7ff ffd8 	bl	8002b14 <RDMDeviceParamsStore::Copy(rdm::deviceparams::Params*)>
 8002b64:	bd08      	pop	{r3, pc}
	...

08002b68 <RDMDeviceParams::Set(RDMDevice*)>:
 8002b68:	e92d 43f0 	stmdb	sp!, {r4, r5, r6, r7, r8, r9, lr}
 8002b6c:	6803      	ldr	r3, [r0, #0]
 8002b6e:	460c      	mov	r4, r1
 8002b70:	07d9      	lsls	r1, r3, #31
 8002b72:	b087      	sub	sp, #28
 8002b74:	4605      	mov	r5, r0
 8002b76:	d52d      	bpl.n	8002bd4 <RDMDeviceParams::Set(RDMDevice*)+0x6c>
 8002b78:	f890 6024 	ldrb.w	r6, [r0, #36]	; 0x24
 8002b7c:	f894 3052 	ldrb.w	r3, [r4, #82]	; 0x52
 8002b80:	2e20      	cmp	r6, #32
 8002b82:	f100 0104 	add.w	r1, r0, #4
 8002b86:	bf28      	it	cs
 8002b88:	2620      	movcs	r6, #32
 8002b8a:	b39b      	cbz	r3, 8002bf4 <RDMDeviceParams::Set(RDMDevice*)+0x8c>
 8002b8c:	f104 0320 	add.w	r3, r4, #32
 8002b90:	2701      	movs	r7, #1
 8002b92:	4632      	mov	r2, r6
 8002b94:	4618      	mov	r0, r3
 8002b96:	f04f 0900 	mov.w	r9, #0
 8002b9a:	f005 fb09 	bl	80081b0 <memmove>
 8002b9e:	f884 6050 	strb.w	r6, [r4, #80]	; 0x50
 8002ba2:	e9cd 7901 	strd	r7, r9, [sp, #4]
 8002ba6:	f8df 805c 	ldr.w	r8, [pc, #92]	; 8002c04 <RDMDeviceParams::Set(RDMDevice*)+0x9c>
 8002baa:	9600      	str	r6, [sp, #0]
 8002bac:	4603      	mov	r3, r0
 8002bae:	2204      	movs	r2, #4
 8002bb0:	f8d8 0000 	ldr.w	r0, [r8]
 8002bb4:	f88d 6017 	strb.w	r6, [sp, #23]
 8002bb8:	2109      	movs	r1, #9
 8002bba:	f004 fa85 	bl	80070c8 <ConfigStore::Update(configstore::Store, unsigned long, void const*, unsigned long, unsigned long, unsigned long)>
 8002bbe:	e9cd 7901 	strd	r7, r9, [sp, #4]
 8002bc2:	9700      	str	r7, [sp, #0]
 8002bc4:	f8d8 0000 	ldr.w	r0, [r8]
 8002bc8:	f10d 0317 	add.w	r3, sp, #23
 8002bcc:	2224      	movs	r2, #36	; 0x24
 8002bce:	2109      	movs	r1, #9
 8002bd0:	f004 fa7a 	bl	80070c8 <ConfigStore::Update(configstore::Store, unsigned long, void const*, unsigned long, unsigned long, unsigned long)>
 8002bd4:	682b      	ldr	r3, [r5, #0]
 8002bd6:	079a      	lsls	r2, r3, #30
 8002bd8:	bf44      	itt	mi
 8002bda:	f8b5 2025 	ldrhmi.w	r2, [r5, #37]	; 0x25
 8002bde:	f8a4 2040 	strhmi.w	r2, [r4, #64]	; 0x40
 8002be2:	075b      	lsls	r3, r3, #29
 8002be4:	bf44      	itt	mi
 8002be6:	f8b5 3027 	ldrhmi.w	r3, [r5, #39]	; 0x27
 8002bea:	f8a4 3042 	strhmi.w	r3, [r4, #66]	; 0x42
 8002bee:	b007      	add	sp, #28
 8002bf0:	e8bd 83f0 	ldmia.w	sp!, {r4, r5, r6, r7, r8, r9, pc}
 8002bf4:	4632      	mov	r2, r6
 8002bf6:	4620      	mov	r0, r4
 8002bf8:	f005 fada 	bl	80081b0 <memmove>
 8002bfc:	f884 6051 	strb.w	r6, [r4, #81]	; 0x51
 8002c00:	e7e8      	b.n	8002bd4 <RDMDeviceParams::Set(RDMDevice*)+0x6c>
 8002c02:	bf00      	nop
 8002c04:	20001638 	andcs	r1, r0, r8, lsr r6

08002c08 <CpuTemperature::Initialize()>:
 8002c08:	2001      	movs	r0, #1
 8002c0a:	4770      	bx	lr

08002c0c <RDMDeviceResponder::PersonalityUpdate(LightSet*)>:
 8002c0c:	4770      	bx	lr

08002c0e <RDMDeviceResponder::DmxStartAddressUpdate()>:
 8002c0e:	4770      	bx	lr

08002c10 <CpuTemperature::~CpuTemperature()>:
 8002c10:	4770      	bx	lr

08002c12 <CpuTemperature::GetValue()>:
 8002c12:	b508      	push	{r3, lr}
 8002c14:	f006 fa52 	bl	80090bc <gd32_adc_gettemp()>
 8002c18:	eebd 0ac0 	vcvt.s32.f32	s0, s0
 8002c1c:	ee10 3a10 	vmov	r3, s0
 8002c20:	b218      	sxth	r0, r3
 8002c22:	bd08      	pop	{r3, pc}

08002c24 <CpuTemperature::~CpuTemperature()>:
 8002c24:	b510      	push	{r4, lr}
 8002c26:	2140      	movs	r1, #64	; 0x40
 8002c28:	4604      	mov	r4, r0
 8002c2a:	f005 fa06 	bl	800803a <operator delete(void*, unsigned int)>
 8002c2e:	4620      	mov	r0, r4
 8002c30:	bd10      	pop	{r4, pc}
	...

08002c34 <RDMSensors::RDMSensors()>:
 8002c34:	4b1e      	ldr	r3, [pc, #120]	; (8002cb0 <RDMSensors::RDMSensors()+0x7c>)
 8002c36:	b570      	push	{r4, r5, r6, lr}
 8002c38:	2500      	movs	r5, #0
 8002c3a:	6018      	str	r0, [r3, #0]
 8002c3c:	4604      	mov	r4, r0
 8002c3e:	6005      	str	r5, [r0, #0]
 8002c40:	7105      	strb	r5, [r0, #4]
 8002c42:	2040      	movs	r0, #64	; 0x40
 8002c44:	f005 f9fd 	bl	8008042 <operator new[](unsigned int)>
 8002c48:	6020      	str	r0, [r4, #0]
 8002c4a:	2040      	movs	r0, #64	; 0x40
 8002c4c:	f005 f9f7 	bl	800803e <operator new(unsigned int)>
 8002c50:	2103      	movs	r1, #3
 8002c52:	f880 1033 	strb.w	r1, [r0, #51]	; 0x33
 8002c56:	f647 71ff 	movw	r1, #32767	; 0x7fff
 8002c5a:	86c1      	strh	r1, [r0, #54]	; 0x36
 8002c5c:	f44f 4100 	mov.w	r1, #32768	; 0x8000
 8002c60:	8701      	strh	r1, [r0, #56]	; 0x38
 8002c62:	4914      	ldr	r1, [pc, #80]	; (8002cb4 <RDMSensors::RDMSensors()+0x80>)
 8002c64:	6001      	str	r1, [r0, #0]
 8002c66:	4914      	ldr	r1, [pc, #80]	; (8002cb8 <RDMSensors::RDMSensors()+0x84>)
 8002c68:	6081      	str	r1, [r0, #8]
 8002c6a:	3154      	adds	r1, #84	; 0x54
 8002c6c:	7922      	ldrb	r2, [r4, #4]
 8002c6e:	60c1      	str	r1, [r0, #12]
 8002c70:	2155      	movs	r1, #85	; 0x55
 8002c72:	4603      	mov	r3, r0
 8002c74:	7102      	strb	r2, [r0, #4]
 8002c76:	7182      	strb	r2, [r0, #6]
 8002c78:	f880 203c 	strb.w	r2, [r0, #60]	; 0x3c
 8002c7c:	71c5      	strb	r5, [r0, #7]
 8002c7e:	8201      	strh	r1, [r0, #16]
 8002c80:	480e      	ldr	r0, [pc, #56]	; (8002cbc <RDMSensors::RDMSensors()+0x88>)
 8002c82:	f103 0611 	add.w	r6, r3, #17
 8002c86:	f810 1b01 	ldrb.w	r1, [r0], #1
 8002c8a:	b121      	cbz	r1, 8002c96 <RDMSensors::RDMSensors()+0x62>
 8002c8c:	3501      	adds	r5, #1
 8002c8e:	2d20      	cmp	r5, #32
 8002c90:	f806 1f01 	strb.w	r1, [r6, #1]!
 8002c94:	d1f7      	bne.n	8002c86 <RDMSensors::RDMSensors()+0x52>
 8002c96:	6821      	ldr	r1, [r4, #0]
 8002c98:	f883 5032 	strb.w	r5, [r3, #50]	; 0x32
 8002c9c:	b129      	cbz	r1, 8002caa <RDMSensors::RDMSensors()+0x76>
 8002c9e:	2a10      	cmp	r2, #16
 8002ca0:	bf1e      	ittt	ne
 8002ca2:	1c50      	addne	r0, r2, #1
 8002ca4:	7120      	strbne	r0, [r4, #4]
 8002ca6:	f841 3022 	strne.w	r3, [r1, r2, lsl #2]
 8002caa:	4620      	mov	r0, r4
 8002cac:	bd70      	pop	{r4, r5, r6, pc}
 8002cae:	bf00      	nop
 8002cb0:	20001094 	mulcs	r0, r4, r0
 8002cb4:	0800a138 	stmdaeq	r0, {r3, r4, r5, r8, sp, pc}
 8002cb8:	ffd80001 			; <UNDEFINED> instruction: 0xffd80001
 8002cbc:	0800a078 	stmdaeq	r0, {r3, r4, r5, r6, sp, pc}

08002cc0 <RDMDeviceResponder::RDMDeviceResponder(RDMPersonality**, unsigned long)>:
 8002cc0:	b570      	push	{r4, r5, r6, lr}
 8002cc2:	4604      	mov	r4, r0
 8002cc4:	3004      	adds	r0, #4
 8002cc6:	460e      	mov	r6, r1
 8002cc8:	4615      	mov	r5, r2
 8002cca:	f001 fc9d 	bl	8004608 <RDMDevice::RDMDevice()>
 8002cce:	4620      	mov	r0, r4
 8002cd0:	4b1f      	ldr	r3, [pc, #124]	; (8002d50 <RDMDeviceResponder::RDMDeviceResponder(RDMPersonality**, unsigned long)+0x90>)
 8002cd2:	f840 3b57 	str.w	r3, [r0], #87
 8002cd6:	f001 fb45 	bl	8004364 <RDMIdentify::RDMIdentify()>
 8002cda:	f104 0058 	add.w	r0, r4, #88	; 0x58
 8002cde:	f7ff ffa9 	bl	8002c34 <RDMSensors::RDMSensors()>
 8002ce2:	4b1c      	ldr	r3, [pc, #112]	; (8002d54 <RDMDeviceResponder::RDMDeviceResponder(RDMPersonality**, unsigned long)+0x94>)
 8002ce4:	66a6      	str	r6, [r4, #104]	; 0x68
 8002ce6:	f104 0260 	add.w	r2, r4, #96	; 0x60
 8002cea:	601a      	str	r2, [r3, #0]
 8002cec:	4b1a      	ldr	r3, [pc, #104]	; (8002d58 <RDMDeviceResponder::RDMDeviceResponder(RDMPersonality**, unsigned long)+0x98>)
 8002cee:	601c      	str	r4, [r3, #0]
 8002cf0:	2365      	movs	r3, #101	; 0x65
 8002cf2:	f884 3097 	strb.w	r3, [r4, #151]	; 0x97
 8002cf6:	f44f 73b7 	mov.w	r3, #366	; 0x16e
 8002cfa:	2000      	movs	r0, #0
 8002cfc:	f8c4 3098 	str.w	r3, [r4, #152]	; 0x98
 8002d00:	2301      	movs	r3, #1
 8002d02:	f8a4 309c 	strh.w	r3, [r4, #156]	; 0x9c
 8002d06:	6620      	str	r0, [r4, #96]	; 0x60
 8002d08:	f8a4 0064 	strh.w	r0, [r4, #100]	; 0x64
 8002d0c:	f104 0271 	add.w	r2, r4, #113	; 0x71
 8002d10:	f104 0384 	add.w	r3, r4, #132	; 0x84
 8002d14:	f802 0b01 	strb.w	r0, [r2], #1
 8002d18:	4293      	cmp	r3, r2
 8002d1a:	d1fb      	bne.n	8002d14 <RDMDeviceResponder::RDMDeviceResponder(RDMPersonality**, unsigned long)+0x54>
 8002d1c:	f104 0297 	add.w	r2, r4, #151	; 0x97
 8002d20:	2100      	movs	r1, #0
 8002d22:	f803 1b01 	strb.w	r1, [r3], #1
 8002d26:	4293      	cmp	r3, r2
 8002d28:	d1fb      	bne.n	8002d22 <RDMDeviceResponder::RDMDeviceResponder(RDMPersonality**, unsigned long)+0x62>
 8002d2a:	f884 507e 	strb.w	r5, [r4, #126]	; 0x7e
 8002d2e:	f7fe fc4b 	bl	80015c8 <RDMSoftwareVersion::GetVersion()>
 8002d32:	66e0      	str	r0, [r4, #108]	; 0x6c
 8002d34:	f7fe fc4c 	bl	80015d0 <RDMSoftwareVersion::GetVersionLength()>
 8002d38:	6ea3      	ldr	r3, [r4, #104]	; 0x68
 8002d3a:	f884 0070 	strb.w	r0, [r4, #112]	; 0x70
 8002d3e:	681b      	ldr	r3, [r3, #0]
 8002d40:	685b      	ldr	r3, [r3, #4]
 8002d42:	b91b      	cbnz	r3, 8002d4c <RDMDeviceResponder::RDMDeviceResponder(RDMPersonality**, unsigned long)+0x8c>
 8002d44:	f64f 73ff 	movw	r3, #65535	; 0xffff
 8002d48:	f8a4 309c 	strh.w	r3, [r4, #156]	; 0x9c
 8002d4c:	4620      	mov	r0, r4
 8002d4e:	bd70      	pop	{r4, r5, r6, pc}
 8002d50:	0800a150 	stmdaeq	r0, {r4, r6, r8, sp, pc}
 8002d54:	20001098 	mulcs	r0, r8, r0
 8002d58:	20001088 	andcs	r1, r0, r8, lsl #1

08002d5c <RDMDeviceResponder::Init()>:
 8002d5c:	b5f0      	push	{r4, r5, r6, r7, lr}
 8002d5e:	4604      	mov	r4, r0
 8002d60:	2301      	movs	r3, #1
 8002d62:	f894 2055 	ldrb.w	r2, [r4, #85]	; 0x55
 8002d66:	f884 3056 	strb.w	r3, [r4, #86]	; 0x56
 8002d6a:	2a20      	cmp	r2, #32
 8002d6c:	bf28      	it	cs
 8002d6e:	2220      	movcs	r2, #32
 8002d70:	b087      	sub	sp, #28
 8002d72:	3004      	adds	r0, #4
 8002d74:	f104 0324 	add.w	r3, r4, #36	; 0x24
 8002d78:	4611      	mov	r1, r2
 8002d7a:	3901      	subs	r1, #1
 8002d7c:	d272      	bcs.n	8002e64 <RDMDeviceResponder::Init()+0x108>
 8002d7e:	2501      	movs	r5, #1
 8002d80:	2700      	movs	r7, #0
 8002d82:	f884 2054 	strb.w	r2, [r4, #84]	; 0x54
 8002d86:	e9cd 5701 	strd	r5, r7, [sp, #4]
 8002d8a:	4e47      	ldr	r6, [pc, #284]	; (8002ea8 <RDMDeviceResponder::Init()+0x14c>)
 8002d8c:	9200      	str	r2, [sp, #0]
 8002d8e:	6830      	ldr	r0, [r6, #0]
 8002d90:	f88d 2017 	strb.w	r2, [sp, #23]
 8002d94:	2109      	movs	r1, #9
 8002d96:	2204      	movs	r2, #4
 8002d98:	f004 f996 	bl	80070c8 <ConfigStore::Update(configstore::Store, unsigned long, void const*, unsigned long, unsigned long, unsigned long)>
 8002d9c:	e9cd 5701 	strd	r5, r7, [sp, #4]
 8002da0:	9500      	str	r5, [sp, #0]
 8002da2:	6830      	ldr	r0, [r6, #0]
 8002da4:	f10d 0317 	add.w	r3, sp, #23
 8002da8:	2224      	movs	r2, #36	; 0x24
 8002daa:	2109      	movs	r1, #9
 8002dac:	f004 f98c 	bl	80070c8 <ConfigStore::Update(configstore::Store, unsigned long, void const*, unsigned long, unsigned long, unsigned long)>
 8002db0:	f06f 0522 	mvn.w	r5, #34	; 0x22
 8002db4:	f894 3055 	ldrb.w	r3, [r4, #85]	; 0x55
 8002db8:	f894 0054 	ldrb.w	r0, [r4, #84]	; 0x54
 8002dbc:	f104 0223 	add.w	r2, r4, #35	; 0x23
 8002dc0:	1b2d      	subs	r5, r5, r4
 8002dc2:	18a9      	adds	r1, r5, r2
 8002dc4:	4288      	cmp	r0, r1
 8002dc6:	d851      	bhi.n	8002e6c <RDMDeviceResponder::Init()+0x110>
 8002dc8:	f8a4 3048 	strh.w	r3, [r4, #72]	; 0x48
 8002dcc:	f7fe fc02 	bl	80015d4 <RDMSoftwareVersion::GetVersionId()>
 8002dd0:	f8b4 3044 	ldrh.w	r3, [r4, #68]	; 0x44
 8002dd4:	f884 3076 	strb.w	r3, [r4, #118]	; 0x76
 8002dd8:	2201      	movs	r2, #1
 8002dda:	f884 2071 	strb.w	r2, [r4, #113]	; 0x71
 8002dde:	2200      	movs	r2, #0
 8002de0:	f8a4 2072 	strh.w	r2, [r4, #114]	; 0x72
 8002de4:	f884 2074 	strb.w	r2, [r4, #116]	; 0x74
 8002de8:	0a1a      	lsrs	r2, r3, #8
 8002dea:	0e03      	lsrs	r3, r0, #24
 8002dec:	f884 3077 	strb.w	r3, [r4, #119]	; 0x77
 8002df0:	0c03      	lsrs	r3, r0, #16
 8002df2:	f884 3078 	strb.w	r3, [r4, #120]	; 0x78
 8002df6:	0a03      	lsrs	r3, r0, #8
 8002df8:	f884 3079 	strb.w	r3, [r4, #121]	; 0x79
 8002dfc:	6ea3      	ldr	r3, [r4, #104]	; 0x68
 8002dfe:	f884 2075 	strb.w	r2, [r4, #117]	; 0x75
 8002e02:	f884 007a 	strb.w	r0, [r4, #122]	; 0x7a
 8002e06:	681b      	ldr	r3, [r3, #0]
 8002e08:	f8b4 6064 	ldrh.w	r6, [r4, #100]	; 0x64
 8002e0c:	685d      	ldr	r5, [r3, #4]
 8002e0e:	bb95      	cbnz	r5, 8002e76 <RDMDeviceResponder::Init()+0x11a>
 8002e10:	f8b4 009c 	ldrh.w	r0, [r4, #156]	; 0x9c
 8002e14:	f884 507b 	strb.w	r5, [r4, #123]	; 0x7b
 8002e18:	0a03      	lsrs	r3, r0, #8
 8002e1a:	f884 507c 	strb.w	r5, [r4, #124]	; 0x7c
 8002e1e:	f884 307f 	strb.w	r3, [r4, #127]	; 0x7f
 8002e22:	2301      	movs	r3, #1
 8002e24:	f884 307d 	strb.w	r3, [r4, #125]	; 0x7d
 8002e28:	0a33      	lsrs	r3, r6, #8
 8002e2a:	b2c0      	uxtb	r0, r0
 8002e2c:	f884 3081 	strb.w	r3, [r4, #129]	; 0x81
 8002e30:	f894 305c 	ldrb.w	r3, [r4, #92]	; 0x5c
 8002e34:	f884 3083 	strb.w	r3, [r4, #131]	; 0x83
 8002e38:	f884 0080 	strb.w	r0, [r4, #128]	; 0x80
 8002e3c:	f884 6082 	strb.w	r6, [r4, #130]	; 0x82
 8002e40:	f104 0371 	add.w	r3, r4, #113	; 0x71
 8002e44:	f104 0284 	add.w	r2, r4, #132	; 0x84
 8002e48:	f813 1b01 	ldrb.w	r1, [r3], #1
 8002e4c:	7499      	strb	r1, [r3, #18]
 8002e4e:	4293      	cmp	r3, r2
 8002e50:	d1fa      	bne.n	8002e48 <RDMDeviceResponder::Init()+0xec>
 8002e52:	f894 3080 	ldrb.w	r3, [r4, #128]	; 0x80
 8002e56:	f894 207d 	ldrb.w	r2, [r4, #125]	; 0x7d
 8002e5a:	4413      	add	r3, r2
 8002e5c:	f8a4 309a 	strh.w	r3, [r4, #154]	; 0x9a
 8002e60:	b007      	add	sp, #28
 8002e62:	bdf0      	pop	{r4, r5, r6, r7, pc}
 8002e64:	f810 5b01 	ldrb.w	r5, [r0], #1
 8002e68:	77c5      	strb	r5, [r0, #31]
 8002e6a:	e786      	b.n	8002d7a <RDMDeviceResponder::Init()+0x1e>
 8002e6c:	f812 1f01 	ldrb.w	r1, [r2, #1]!
 8002e70:	440b      	add	r3, r1
 8002e72:	b29b      	uxth	r3, r3
 8002e74:	e7a5      	b.n	8002dc2 <RDMDeviceResponder::Init()+0x66>
 8002e76:	682b      	ldr	r3, [r5, #0]
 8002e78:	4628      	mov	r0, r5
 8002e7a:	6b1b      	ldr	r3, [r3, #48]	; 0x30
 8002e7c:	4798      	blx	r3
 8002e7e:	0a00      	lsrs	r0, r0, #8
 8002e80:	f884 007b 	strb.w	r0, [r4, #123]	; 0x7b
 8002e84:	682b      	ldr	r3, [r5, #0]
 8002e86:	4628      	mov	r0, r5
 8002e88:	6b1b      	ldr	r3, [r3, #48]	; 0x30
 8002e8a:	4798      	blx	r3
 8002e8c:	f884 007c 	strb.w	r0, [r4, #124]	; 0x7c
 8002e90:	682b      	ldr	r3, [r5, #0]
 8002e92:	4628      	mov	r0, r5
 8002e94:	6adb      	ldr	r3, [r3, #44]	; 0x2c
 8002e96:	4798      	blx	r3
 8002e98:	0a00      	lsrs	r0, r0, #8
 8002e9a:	f884 007f 	strb.w	r0, [r4, #127]	; 0x7f
 8002e9e:	682b      	ldr	r3, [r5, #0]
 8002ea0:	4628      	mov	r0, r5
 8002ea2:	6adb      	ldr	r3, [r3, #44]	; 0x2c
 8002ea4:	4798      	blx	r3
 8002ea6:	e7bc      	b.n	8002e22 <RDMDeviceResponder::Init()+0xc6>
 8002ea8:	20001638 	andcs	r1, r0, r8, lsr r6

08002eac <RDMDeviceResponder::Print()>:
 8002eac:	b573      	push	{r0, r1, r4, r5, r6, lr}
 8002eae:	4604      	mov	r4, r0
 8002eb0:	3004      	adds	r0, #4
 8002eb2:	f001 fbf3 	bl	800469c <RDMDevice::Print()>
 8002eb6:	6ea3      	ldr	r3, [r4, #104]	; 0x68
 8002eb8:	4819      	ldr	r0, [pc, #100]	; (8002f20 <RDMDeviceResponder::Print()+0x74>)
 8002eba:	681d      	ldr	r5, [r3, #0]
 8002ebc:	6aae      	ldr	r6, [r5, #40]	; 0x28
 8002ebe:	f7fe fe87 	bl	8001bd0 <puts>
 8002ec2:	f894 2072 	ldrb.w	r2, [r4, #114]	; 0x72
 8002ec6:	f894 1071 	ldrb.w	r1, [r4, #113]	; 0x71
 8002eca:	4816      	ldr	r0, [pc, #88]	; (8002f24 <RDMDeviceResponder::Print()+0x78>)
 8002ecc:	f7fe fe48 	bl	8001b60 <printf>
 8002ed0:	f8b4 107f 	ldrh.w	r1, [r4, #127]	; 0x7f
 8002ed4:	4814      	ldr	r0, [pc, #80]	; (8002f28 <RDMDeviceResponder::Print()+0x7c>)
 8002ed6:	ba49      	rev16	r1, r1
 8002ed8:	b289      	uxth	r1, r1
 8002eda:	f7fe fe41 	bl	8001b60 <printf>
 8002ede:	f8b4 107b 	ldrh.w	r1, [r4, #123]	; 0x7b
 8002ee2:	4812      	ldr	r0, [pc, #72]	; (8002f2c <RDMDeviceResponder::Print()+0x80>)
 8002ee4:	ba49      	rev16	r1, r1
 8002ee6:	b289      	uxth	r1, r1
 8002ee8:	3508      	adds	r5, #8
 8002eea:	f7fe fe39 	bl	8001b60 <printf>
 8002eee:	9500      	str	r5, [sp, #0]
 8002ef0:	f894 207e 	ldrb.w	r2, [r4, #126]	; 0x7e
 8002ef4:	f894 107d 	ldrb.w	r1, [r4, #125]	; 0x7d
 8002ef8:	480d      	ldr	r0, [pc, #52]	; (8002f30 <RDMDeviceResponder::Print()+0x84>)
 8002efa:	b2f3      	uxtb	r3, r6
 8002efc:	f7fe fe30 	bl	8001b60 <printf>
 8002f00:	f8b4 1081 	ldrh.w	r1, [r4, #129]	; 0x81
 8002f04:	480b      	ldr	r0, [pc, #44]	; (8002f34 <RDMDeviceResponder::Print()+0x88>)
 8002f06:	ba49      	rev16	r1, r1
 8002f08:	b289      	uxth	r1, r1
 8002f0a:	f7fe fe29 	bl	8001b60 <printf>
 8002f0e:	f894 1083 	ldrb.w	r1, [r4, #131]	; 0x83
 8002f12:	4809      	ldr	r0, [pc, #36]	; (8002f38 <RDMDeviceResponder::Print()+0x8c>)
 8002f14:	b002      	add	sp, #8
 8002f16:	e8bd 4070 	ldmia.w	sp!, {r4, r5, r6, lr}
 8002f1a:	f7fe be21 	b.w	8001b60 <printf>
 8002f1e:	bf00      	nop
 8002f20:	0800a07c 	stmdaeq	r0, {r2, r3, r4, r5, r6, sp, pc}
 8002f24:	0800a098 	stmdaeq	r0, {r3, r4, r7, sp, pc}
 8002f28:	0800a0b1 	stmdaeq	r0, {r0, r4, r5, r7, sp, pc}
 8002f2c:	0800a0c9 	stmdaeq	r0, {r0, r3, r6, r7, sp, pc}
 8002f30:	0800a0e1 	stmdaeq	r0, {r0, r5, r6, r7, sp, pc}
 8002f34:	0800a0ff 	stmdaeq	r0, {r0, r1, r2, r3, r4, r5, r6, r7, sp, pc}
 8002f38:	0800a117 	stmdaeq	r0, {r0, r1, r2, r4, r8, sp, pc}

08002f3c <RDMDeviceResponder::GetSlotInfo(unsigned short, unsigned short, lightset::SlotInfo&) [clone .part.0]>:
 8002f3c:	f890 307d 	ldrb.w	r3, [r0, #125]	; 0x7d
 8002f40:	6e80      	ldr	r0, [r0, #104]	; 0x68
 8002f42:	f103 4380 	add.w	r3, r3, #1073741824	; 0x40000000
 8002f46:	3b01      	subs	r3, #1
 8002f48:	f850 3023 	ldr.w	r3, [r0, r3, lsl #2]
 8002f4c:	6858      	ldr	r0, [r3, #4]
 8002f4e:	6803      	ldr	r3, [r0, #0]
 8002f50:	6b5b      	ldr	r3, [r3, #52]	; 0x34
 8002f52:	4718      	bx	r3

08002f54 <RDMSensors::GetValues(unsigned char) [clone .isra.0]>:
 8002f54:	b510      	push	{r4, lr}
 8002f56:	f850 4021 	ldr.w	r4, [r0, r1, lsl #2]
 8002f5a:	6823      	ldr	r3, [r4, #0]
 8002f5c:	4620      	mov	r0, r4
 8002f5e:	68db      	ldr	r3, [r3, #12]
 8002f60:	4798      	blx	r3
 8002f62:	f9b4 3036 	ldrsh.w	r3, [r4, #54]	; 0x36
 8002f66:	86a0      	strh	r0, [r4, #52]	; 0x34
 8002f68:	4283      	cmp	r3, r0
 8002f6a:	bfa8      	it	ge
 8002f6c:	4603      	movge	r3, r0
 8002f6e:	86e3      	strh	r3, [r4, #54]	; 0x36
 8002f70:	f9b4 3038 	ldrsh.w	r3, [r4, #56]	; 0x38
 8002f74:	4283      	cmp	r3, r0
 8002f76:	bfb8      	it	lt
 8002f78:	4603      	movlt	r3, r0
 8002f7a:	8723      	strh	r3, [r4, #56]	; 0x38
 8002f7c:	f104 0034 	add.w	r0, r4, #52	; 0x34
 8002f80:	bd10      	pop	{r4, pc}

08002f82 <memcpy.isra.0>:
 8002f82:	440a      	add	r2, r1
 8002f84:	4291      	cmp	r1, r2
 8002f86:	d100      	bne.n	8002f8a <memcpy.isra.0+0x8>
 8002f88:	4770      	bx	lr
 8002f8a:	f811 3b01 	ldrb.w	r3, [r1], #1
 8002f8e:	f800 3b01 	strb.w	r3, [r0], #1
 8002f92:	e7f7      	b.n	8002f84 <memcpy.isra.0+0x2>

08002f94 <memcmp>:
 8002f94:	b510      	push	{r4, lr}
 8002f96:	3901      	subs	r1, #1
 8002f98:	4402      	add	r2, r0
 8002f9a:	4290      	cmp	r0, r2
 8002f9c:	d101      	bne.n	8002fa2 <memcmp+0xe>
 8002f9e:	2000      	movs	r0, #0
 8002fa0:	e005      	b.n	8002fae <memcmp+0x1a>
 8002fa2:	7803      	ldrb	r3, [r0, #0]
 8002fa4:	f811 4f01 	ldrb.w	r4, [r1, #1]!
 8002fa8:	42a3      	cmp	r3, r4
 8002faa:	d001      	beq.n	8002fb0 <memcmp+0x1c>
 8002fac:	1b18      	subs	r0, r3, r4
 8002fae:	bd10      	pop	{r4, pc}
 8002fb0:	3001      	adds	r0, #1
 8002fb2:	e7f2      	b.n	8002f9a <memcmp+0x6>

08002fb4 <RDMDevice::SetLabel(TRDMDeviceInfoData const*)>:
 8002fb4:	e92d 41f0 	stmdb	sp!, {r4, r5, r6, r7, r8, lr}
 8002fb8:	790c      	ldrb	r4, [r1, #4]
 8002fba:	f890 3052 	ldrb.w	r3, [r0, #82]	; 0x52
 8002fbe:	6809      	ldr	r1, [r1, #0]
 8002fc0:	2c20      	cmp	r4, #32
 8002fc2:	b086      	sub	sp, #24
 8002fc4:	4605      	mov	r5, r0
 8002fc6:	bf28      	it	cs
 8002fc8:	2420      	movcs	r4, #32
 8002fca:	b313      	cbz	r3, 8003012 <RDMDevice::SetLabel(TRDMDeviceInfoData const*)+0x5e>
 8002fcc:	f100 0820 	add.w	r8, r0, #32
 8002fd0:	4622      	mov	r2, r4
 8002fd2:	4640      	mov	r0, r8
 8002fd4:	f7ff ffd5 	bl	8002f82 <memcpy.isra.0>
 8002fd8:	2700      	movs	r7, #0
 8002fda:	f885 4050 	strb.w	r4, [r5, #80]	; 0x50
 8002fde:	2501      	movs	r5, #1
 8002fe0:	e9cd 5701 	strd	r5, r7, [sp, #4]
 8002fe4:	4e0e      	ldr	r6, [pc, #56]	; (8003020 <RDMDevice::SetLabel(TRDMDeviceInfoData const*)+0x6c>)
 8002fe6:	9400      	str	r4, [sp, #0]
 8002fe8:	6830      	ldr	r0, [r6, #0]
 8002fea:	f88d 4017 	strb.w	r4, [sp, #23]
 8002fee:	4643      	mov	r3, r8
 8002ff0:	2204      	movs	r2, #4
 8002ff2:	2109      	movs	r1, #9
 8002ff4:	f004 f868 	bl	80070c8 <ConfigStore::Update(configstore::Store, unsigned long, void const*, unsigned long, unsigned long, unsigned long)>
 8002ff8:	e9cd 5701 	strd	r5, r7, [sp, #4]
 8002ffc:	9500      	str	r5, [sp, #0]
 8002ffe:	6830      	ldr	r0, [r6, #0]
 8003000:	f10d 0317 	add.w	r3, sp, #23
 8003004:	2224      	movs	r2, #36	; 0x24
 8003006:	2109      	movs	r1, #9
 8003008:	f004 f85e 	bl	80070c8 <ConfigStore::Update(configstore::Store, unsigned long, void const*, unsigned long, unsigned long, unsigned long)>
 800300c:	b006      	add	sp, #24
 800300e:	e8bd 81f0 	ldmia.w	sp!, {r4, r5, r6, r7, r8, pc}
 8003012:	4622      	mov	r2, r4
 8003014:	f7ff ffb5 	bl	8002f82 <memcpy.isra.0>
 8003018:	f885 4051 	strb.w	r4, [r5, #81]	; 0x51
 800301c:	e7f6      	b.n	800300c <RDMDevice::SetLabel(TRDMDeviceInfoData const*)+0x58>
 800301e:	bf00      	nop
 8003020:	20001638 	andcs	r1, r0, r8, lsr r6

08003024 <RDMSensor::SetValues()>:
 8003024:	6803      	ldr	r3, [r0, #0]
 8003026:	b510      	push	{r4, lr}
 8003028:	68db      	ldr	r3, [r3, #12]
 800302a:	4604      	mov	r4, r0
 800302c:	4798      	blx	r3
 800302e:	86a0      	strh	r0, [r4, #52]	; 0x34
 8003030:	86e0      	strh	r0, [r4, #54]	; 0x36
 8003032:	8720      	strh	r0, [r4, #56]	; 0x38
 8003034:	8760      	strh	r0, [r4, #58]	; 0x3a
 8003036:	bd10      	pop	{r4, pc}

08003038 <RDMSensor::Record()>:
 8003038:	6803      	ldr	r3, [r0, #0]
 800303a:	b510      	push	{r4, lr}
 800303c:	68db      	ldr	r3, [r3, #12]
 800303e:	4604      	mov	r4, r0
 8003040:	4798      	blx	r3
 8003042:	f9b4 3036 	ldrsh.w	r3, [r4, #54]	; 0x36
 8003046:	86a0      	strh	r0, [r4, #52]	; 0x34
 8003048:	4283      	cmp	r3, r0
 800304a:	bfa8      	it	ge
 800304c:	4603      	movge	r3, r0
 800304e:	86e3      	strh	r3, [r4, #54]	; 0x36
 8003050:	f9b4 3038 	ldrsh.w	r3, [r4, #56]	; 0x38
 8003054:	8760      	strh	r0, [r4, #58]	; 0x3a
 8003056:	4283      	cmp	r3, r0
 8003058:	bfb8      	it	lt
 800305a:	4603      	movlt	r3, r0
 800305c:	8723      	strh	r3, [r4, #56]	; 0x38
 800305e:	bd10      	pop	{r4, pc}

08003060 <RDMDeviceResponder::SetDmxStartAddress(unsigned short, unsigned short)>:
 8003060:	1e53      	subs	r3, r2, #1
 8003062:	f5b3 7f00 	cmp.w	r3, #512	; 0x200
 8003066:	b570      	push	{r4, r5, r6, lr}
 8003068:	4604      	mov	r4, r0
 800306a:	4615      	mov	r5, r2
 800306c:	d225      	bcs.n	80030ba <RDMDeviceResponder::SetDmxStartAddress(unsigned short, unsigned short)+0x5a>
 800306e:	f06f 4240 	mvn.w	r2, #3221225472	; 0xc0000000
 8003072:	b151      	cbz	r1, 800308a <RDMDeviceResponder::SetDmxStartAddress(unsigned short, unsigned short)+0x2a>
 8003074:	6e03      	ldr	r3, [r0, #96]	; 0x60
 8003076:	4411      	add	r1, r2
 8003078:	f853 0021 	ldr.w	r0, [r3, r1, lsl #2]
 800307c:	6803      	ldr	r3, [r0, #0]
 800307e:	8245      	strh	r5, [r0, #18]
 8003080:	699b      	ldr	r3, [r3, #24]
 8003082:	e8bd 4070 	ldmia.w	sp!, {r4, r5, r6, lr}
 8003086:	2100      	movs	r1, #0
 8003088:	4718      	bx	r3
 800308a:	f890 307d 	ldrb.w	r3, [r0, #125]	; 0x7d
 800308e:	4413      	add	r3, r2
 8003090:	6e82      	ldr	r2, [r0, #104]	; 0x68
 8003092:	f852 3023 	ldr.w	r3, [r2, r3, lsl #2]
 8003096:	6858      	ldr	r0, [r3, #4]
 8003098:	b178      	cbz	r0, 80030ba <RDMDeviceResponder::SetDmxStartAddress(unsigned short, unsigned short)+0x5a>
 800309a:	6803      	ldr	r3, [r0, #0]
 800309c:	4629      	mov	r1, r5
 800309e:	6a9b      	ldr	r3, [r3, #40]	; 0x28
 80030a0:	4798      	blx	r3
 80030a2:	b120      	cbz	r0, 80030ae <RDMDeviceResponder::SetDmxStartAddress(unsigned short, unsigned short)+0x4e>
 80030a4:	0a2b      	lsrs	r3, r5, #8
 80030a6:	f884 307f 	strb.w	r3, [r4, #127]	; 0x7f
 80030aa:	f884 5080 	strb.w	r5, [r4, #128]	; 0x80
 80030ae:	6823      	ldr	r3, [r4, #0]
 80030b0:	4620      	mov	r0, r4
 80030b2:	68db      	ldr	r3, [r3, #12]
 80030b4:	e8bd 4070 	ldmia.w	sp!, {r4, r5, r6, lr}
 80030b8:	4718      	bx	r3
 80030ba:	bd70      	pop	{r4, r5, r6, pc}

080030bc <RDMDeviceResponder::GetPersonality(unsigned short, unsigned char)>:
 80030bc:	f06f 4340 	mvn.w	r3, #3221225472	; 0xc0000000
 80030c0:	441a      	add	r2, r3
 80030c2:	b139      	cbz	r1, 80030d4 <RDMDeviceResponder::GetPersonality(unsigned short, unsigned char)+0x18>
 80030c4:	4419      	add	r1, r3
 80030c6:	6e03      	ldr	r3, [r0, #96]	; 0x60
 80030c8:	f853 3021 	ldr.w	r3, [r3, r1, lsl #2]
 80030cc:	685b      	ldr	r3, [r3, #4]
 80030ce:	f853 0022 	ldr.w	r0, [r3, r2, lsl #2]
 80030d2:	4770      	bx	lr
 80030d4:	6e83      	ldr	r3, [r0, #104]	; 0x68
 80030d6:	e7fa      	b.n	80030ce <RDMDeviceResponder::GetPersonality(unsigned short, unsigned char)+0x12>

080030d8 <RDMDeviceResponder::GetPersonalityCount(unsigned short)>:
 80030d8:	b139      	cbz	r1, 80030ea <RDMDeviceResponder::GetPersonalityCount(unsigned short)+0x12>
 80030da:	f101 4180 	add.w	r1, r1, #1073741824	; 0x40000000
 80030de:	6e03      	ldr	r3, [r0, #96]	; 0x60
 80030e0:	3901      	subs	r1, #1
 80030e2:	f853 3021 	ldr.w	r3, [r3, r1, lsl #2]
 80030e6:	7d58      	ldrb	r0, [r3, #21]
 80030e8:	4770      	bx	lr
 80030ea:	f890 007e 	ldrb.w	r0, [r0, #126]	; 0x7e
 80030ee:	4770      	bx	lr

080030f0 <RDMDeviceResponder::SetPersonalityCurrent(unsigned short, unsigned char)>:
 80030f0:	b570      	push	{r4, r5, r6, lr}
 80030f2:	f06f 4340 	mvn.w	r3, #3221225472	; 0xc0000000
 80030f6:	4604      	mov	r4, r0
 80030f8:	b129      	cbz	r1, 8003106 <RDMDeviceResponder::SetPersonalityCurrent(unsigned short, unsigned char)+0x16>
 80030fa:	4419      	add	r1, r3
 80030fc:	6e03      	ldr	r3, [r0, #96]	; 0x60
 80030fe:	f853 3021 	ldr.w	r3, [r3, r1, lsl #2]
 8003102:	751a      	strb	r2, [r3, #20]
 8003104:	bd70      	pop	{r4, r5, r6, pc}
 8003106:	f880 207d 	strb.w	r2, [r0, #125]	; 0x7d
 800310a:	441a      	add	r2, r3
 800310c:	6e83      	ldr	r3, [r0, #104]	; 0x68
 800310e:	f853 3022 	ldr.w	r3, [r3, r2, lsl #2]
 8003112:	685d      	ldr	r5, [r3, #4]
 8003114:	2d00      	cmp	r5, #0
 8003116:	d0f5      	beq.n	8003104 <RDMDeviceResponder::SetPersonalityCurrent(unsigned short, unsigned char)+0x14>
 8003118:	682b      	ldr	r3, [r5, #0]
 800311a:	4628      	mov	r0, r5
 800311c:	6b1b      	ldr	r3, [r3, #48]	; 0x30
 800311e:	4798      	blx	r3
 8003120:	0a00      	lsrs	r0, r0, #8
 8003122:	f884 007b 	strb.w	r0, [r4, #123]	; 0x7b
 8003126:	682b      	ldr	r3, [r5, #0]
 8003128:	4628      	mov	r0, r5
 800312a:	6b1b      	ldr	r3, [r3, #48]	; 0x30
 800312c:	4798      	blx	r3
 800312e:	f884 007c 	strb.w	r0, [r4, #124]	; 0x7c
 8003132:	682b      	ldr	r3, [r5, #0]
 8003134:	4628      	mov	r0, r5
 8003136:	6adb      	ldr	r3, [r3, #44]	; 0x2c
 8003138:	4798      	blx	r3
 800313a:	0a00      	lsrs	r0, r0, #8
 800313c:	f884 007f 	strb.w	r0, [r4, #127]	; 0x7f
 8003140:	682b      	ldr	r3, [r5, #0]
 8003142:	4628      	mov	r0, r5
 8003144:	6adb      	ldr	r3, [r3, #44]	; 0x2c
 8003146:	4798      	blx	r3
 8003148:	6823      	ldr	r3, [r4, #0]
 800314a:	f884 0080 	strb.w	r0, [r4, #128]	; 0x80
 800314e:	4629      	mov	r1, r5
 8003150:	4620      	mov	r0, r4
 8003152:	689b      	ldr	r3, [r3, #8]
 8003154:	e8bd 4070 	ldmia.w	sp!, {r4, r5, r6, lr}
 8003158:	4718      	bx	r3

0800315a <RDMDeviceResponder::SetFactoryDefaults()>:
 800315a:	b573      	push	{r0, r1, r4, r5, r6, lr}
 800315c:	4604      	mov	r4, r0
 800315e:	4669      	mov	r1, sp
 8003160:	f894 3055 	ldrb.w	r3, [r4, #85]	; 0x55
 8003164:	f88d 3004 	strb.w	r3, [sp, #4]
 8003168:	3004      	adds	r0, #4
 800316a:	9000      	str	r0, [sp, #0]
 800316c:	f06f 0522 	mvn.w	r5, #34	; 0x22
 8003170:	f7ff ff20 	bl	8002fb4 <RDMDevice::SetLabel(TRDMDeviceInfoData const*)>
 8003174:	f894 3055 	ldrb.w	r3, [r4, #85]	; 0x55
 8003178:	f894 0054 	ldrb.w	r0, [r4, #84]	; 0x54
 800317c:	f104 0223 	add.w	r2, r4, #35	; 0x23
 8003180:	1b2d      	subs	r5, r5, r4
 8003182:	18a9      	adds	r1, r5, r2
 8003184:	4288      	cmp	r0, r1
 8003186:	d828      	bhi.n	80031da <RDMDeviceResponder::SetFactoryDefaults()+0x80>
 8003188:	f8a4 3048 	strh.w	r3, [r4, #72]	; 0x48
 800318c:	2201      	movs	r2, #1
 800318e:	2100      	movs	r1, #0
 8003190:	4620      	mov	r0, r4
 8003192:	f7ff ffad 	bl	80030f0 <RDMDeviceResponder::SetPersonalityCurrent(unsigned short, unsigned char)>
 8003196:	f8b4 209c 	ldrh.w	r2, [r4, #156]	; 0x9c
 800319a:	2100      	movs	r1, #0
 800319c:	4620      	mov	r0, r4
 800319e:	f7ff ff5f 	bl	8003060 <RDMDeviceResponder::SetDmxStartAddress(unsigned short, unsigned short)>
 80031a2:	f104 0171 	add.w	r1, r4, #113	; 0x71
 80031a6:	2213      	movs	r2, #19
 80031a8:	f104 0084 	add.w	r0, r4, #132	; 0x84
 80031ac:	f7ff fee9 	bl	8002f82 <memcpy.isra.0>
 80031b0:	2601      	movs	r6, #1
 80031b2:	2100      	movs	r1, #0
 80031b4:	f8b4 3064 	ldrh.w	r3, [r4, #100]	; 0x64
 80031b8:	4299      	cmp	r1, r3
 80031ba:	d313      	bcc.n	80031e4 <RDMDeviceResponder::SetFactoryDefaults()+0x8a>
 80031bc:	f894 3080 	ldrb.w	r3, [r4, #128]	; 0x80
 80031c0:	f894 207d 	ldrb.w	r2, [r4, #125]	; 0x7d
 80031c4:	4413      	add	r3, r2
 80031c6:	f8a4 309a 	strh.w	r3, [r4, #154]	; 0x9a
 80031ca:	2301      	movs	r3, #1
 80031cc:	f884 3099 	strb.w	r3, [r4, #153]	; 0x99
 80031d0:	b002      	add	sp, #8
 80031d2:	e8bd 4070 	ldmia.w	sp!, {r4, r5, r6, lr}
 80031d6:	f7fe b805 	b.w	80011e4 <rdm::device::responder::factorydefaults()>
 80031da:	f812 1f01 	ldrb.w	r1, [r2, #1]!
 80031de:	440b      	add	r3, r1
 80031e0:	b29b      	uxth	r3, r3
 80031e2:	e7ce      	b.n	8003182 <RDMDeviceResponder::SetFactoryDefaults()+0x28>
 80031e4:	6e23      	ldr	r3, [r4, #96]	; 0x60
 80031e6:	f853 3021 	ldr.w	r3, [r3, r1, lsl #2]
 80031ea:	b193      	cbz	r3, 8003212 <RDMDeviceResponder::SetFactoryDefaults()+0xb8>
 80031ec:	7a1a      	ldrb	r2, [r3, #8]
 80031ee:	b982      	cbnz	r2, 8003212 <RDMDeviceResponder::SetFactoryDefaults()+0xb8>
 80031f0:	f103 0015 	add.w	r0, r3, #21
 80031f4:	f890 5023 	ldrb.w	r5, [r0, #35]	; 0x23
 80031f8:	b125      	cbz	r5, 8003204 <RDMDeviceResponder::SetFactoryDefaults()+0xaa>
 80031fa:	3201      	adds	r2, #1
 80031fc:	2a20      	cmp	r2, #32
 80031fe:	f800 5f01 	strb.w	r5, [r0, #1]!
 8003202:	d1f7      	bne.n	80031f4 <RDMDeviceResponder::SetFactoryDefaults()+0x9a>
 8003204:	f883 2036 	strb.w	r2, [r3, #54]	; 0x36
 8003208:	899a      	ldrh	r2, [r3, #12]
 800320a:	825a      	strh	r2, [r3, #18]
 800320c:	7b9a      	ldrb	r2, [r3, #14]
 800320e:	751a      	strb	r2, [r3, #20]
 8003210:	721e      	strb	r6, [r3, #8]
 8003212:	3101      	adds	r1, #1
 8003214:	e7ce      	b.n	80031b4 <RDMDeviceResponder::SetFactoryDefaults()+0x5a>
	...

08003218 <RDMHandler::RDMHandler(bool)>:
 8003218:	e92d 43f8 	stmdb	sp!, {r3, r4, r5, r6, r7, r8, r9, lr}
 800321c:	2400      	movs	r4, #0
 800321e:	4e12      	ldr	r6, [pc, #72]	; (8003268 <RDMHandler::RDMHandler(bool)+0x50>)
 8003220:	f8df 9048 	ldr.w	r9, [pc, #72]	; 800326c <RDMHandler::RDMHandler(bool)+0x54>
 8003224:	7001      	strb	r1, [r0, #0]
 8003226:	e9c0 4401 	strd	r4, r4, [r0, #4]
 800322a:	4605      	mov	r5, r0
 800322c:	7044      	strb	r4, [r0, #1]
 800322e:	4637      	mov	r7, r6
 8003230:	f04f 0819 	mov.w	r8, #25
 8003234:	4628      	mov	r0, r5
 8003236:	f002 fe33 	bl	8005ea0 <RDMHandler::GetParameterDescriptionCount() const>
 800323a:	42a0      	cmp	r0, r4
 800323c:	f106 0619 	add.w	r6, r6, #25
 8003240:	d802      	bhi.n	8003248 <RDMHandler::RDMHandler(bool)+0x30>
 8003242:	4628      	mov	r0, r5
 8003244:	e8bd 83f8 	ldmia.w	sp!, {r3, r4, r5, r6, r7, r8, r9, pc}
 8003248:	fb08 f304 	mul.w	r3, r8, r4
 800324c:	f816 2c01 	ldrb.w	r2, [r6, #-1]
 8003250:	5af9      	ldrh	r1, [r7, r3]
 8003252:	18f8      	adds	r0, r7, r3
 8003254:	ba49      	rev16	r1, r1
 8003256:	6943      	ldr	r3, [r0, #20]
 8003258:	3a14      	subs	r2, #20
 800325a:	b289      	uxth	r1, r1
 800325c:	4648      	mov	r0, r9
 800325e:	f7fe fc7f 	bl	8001b60 <printf>
 8003262:	3401      	adds	r4, #1
 8003264:	e7e6      	b.n	8003234 <RDMHandler::RDMHandler(bool)+0x1c>
 8003266:	bf00      	nop
 8003268:	0800acf4 	stmdaeq	r0, {r2, r4, r5, r6, r7, sl, fp, sp, pc}
 800326c:	0800a160 	stmdaeq	r0, {r5, r6, r8, sp, pc}

08003270 <RDMHandler::HandleString(char const*, unsigned long)>:
 8003270:	6883      	ldr	r3, [r0, #8]
 8003272:	f803 2f17 	strb.w	r2, [r3, #23]!
 8003276:	440a      	add	r2, r1
 8003278:	4291      	cmp	r1, r2
 800327a:	d100      	bne.n	800327e <RDMHandler::HandleString(char const*, unsigned long)+0xe>
 800327c:	4770      	bx	lr
 800327e:	f811 0b01 	ldrb.w	r0, [r1], #1
 8003282:	f803 0f01 	strb.w	r0, [r3, #1]!
 8003286:	e7f7      	b.n	8003278 <RDMHandler::HandleString(char const*, unsigned long)+0x8>

08003288 <RDMHandler::CreateRespondMessage(unsigned char, unsigned short)>:
 8003288:	b570      	push	{r4, r5, r6, lr}
 800328a:	e9d0 4301 	ldrd	r4, r3, [r0, #4]
 800328e:	25cc      	movs	r5, #204	; 0xcc
 8003290:	701d      	strb	r5, [r3, #0]
 8003292:	7825      	ldrb	r5, [r4, #0]
 8003294:	705d      	strb	r5, [r3, #1]
 8003296:	7ba5      	ldrb	r5, [r4, #14]
 8003298:	73dd      	strb	r5, [r3, #15]
 800329a:	2500      	movs	r5, #0
 800329c:	745d      	strb	r5, [r3, #17]
 800329e:	7c65      	ldrb	r5, [r4, #17]
 80032a0:	749d      	strb	r5, [r3, #18]
 80032a2:	7ca5      	ldrb	r5, [r4, #18]
 80032a4:	74dd      	strb	r5, [r3, #19]
 80032a6:	7ce5      	ldrb	r5, [r4, #19]
 80032a8:	3501      	adds	r5, #1
 80032aa:	751d      	strb	r5, [r3, #20]
 80032ac:	7d25      	ldrb	r5, [r4, #20]
 80032ae:	755d      	strb	r5, [r3, #21]
 80032b0:	7d65      	ldrb	r5, [r4, #21]
 80032b2:	759d      	strb	r5, [r3, #22]
 80032b4:	b119      	cbz	r1, 80032be <RDMHandler::CreateRespondMessage(unsigned char, unsigned short)+0x36>
 80032b6:	1e4d      	subs	r5, r1, #1
 80032b8:	2d01      	cmp	r5, #1
 80032ba:	d91f      	bls.n	80032fc <RDMHandler::CreateRespondMessage(unsigned char, unsigned short)+0x74>
 80032bc:	bd70      	pop	{r4, r5, r6, pc}
 80032be:	7dda      	ldrb	r2, [r3, #23]
 80032c0:	7419      	strb	r1, [r3, #16]
 80032c2:	3218      	adds	r2, #24
 80032c4:	709a      	strb	r2, [r3, #2]
 80032c6:	4a14      	ldr	r2, [pc, #80]	; (8003318 <RDMHandler::CreateRespondMessage(unsigned char, unsigned short)+0x90>)
 80032c8:	6812      	ldr	r2, [r2, #0]
 80032ca:	1de1      	adds	r1, r4, #7
 80032cc:	1c9d      	adds	r5, r3, #2
 80032ce:	3249      	adds	r2, #73	; 0x49
 80032d0:	340d      	adds	r4, #13
 80032d2:	f811 6f01 	ldrb.w	r6, [r1, #1]!
 80032d6:	f805 6f01 	strb.w	r6, [r5, #1]!
 80032da:	42a1      	cmp	r1, r4
 80032dc:	f812 6f01 	ldrb.w	r6, [r2, #1]!
 80032e0:	71ae      	strb	r6, [r5, #6]
 80032e2:	d1f6      	bne.n	80032d2 <RDMHandler::CreateRespondMessage(unsigned char, unsigned short)+0x4a>
 80032e4:	2200      	movs	r2, #0
 80032e6:	6884      	ldr	r4, [r0, #8]
 80032e8:	7899      	ldrb	r1, [r3, #2]
 80032ea:	4613      	mov	r3, r2
 80032ec:	4291      	cmp	r1, r2
 80032ee:	d80e      	bhi.n	800330e <RDMHandler::CreateRespondMessage(unsigned char, unsigned short)+0x86>
 80032f0:	0a1d      	lsrs	r5, r3, #8
 80032f2:	54a5      	strb	r5, [r4, r2]
 80032f4:	6882      	ldr	r2, [r0, #8]
 80032f6:	440a      	add	r2, r1
 80032f8:	7053      	strb	r3, [r2, #1]
 80032fa:	e7df      	b.n	80032bc <RDMHandler::CreateRespondMessage(unsigned char, unsigned short)+0x34>
 80032fc:	7419      	strb	r1, [r3, #16]
 80032fe:	2102      	movs	r1, #2
 8003300:	251a      	movs	r5, #26
 8003302:	75d9      	strb	r1, [r3, #23]
 8003304:	0a11      	lsrs	r1, r2, #8
 8003306:	709d      	strb	r5, [r3, #2]
 8003308:	7619      	strb	r1, [r3, #24]
 800330a:	765a      	strb	r2, [r3, #25]
 800330c:	e7db      	b.n	80032c6 <RDMHandler::CreateRespondMessage(unsigned char, unsigned short)+0x3e>
 800330e:	5ca5      	ldrb	r5, [r4, r2]
 8003310:	442b      	add	r3, r5
 8003312:	b29b      	uxth	r3, r3
 8003314:	3201      	adds	r2, #1
 8003316:	e7e9      	b.n	80032ec <RDMHandler::CreateRespondMessage(unsigned char, unsigned short)+0x64>
 8003318:	20001088 	andcs	r1, r0, r8, lsl #1

0800331c <RDMHandler::RespondMessageAck()>:
 800331c:	6843      	ldr	r3, [r0, #4]
 800331e:	7d9a      	ldrb	r2, [r3, #22]
 8003320:	b90a      	cbnz	r2, 8003326 <RDMHandler::RespondMessageAck()+0xa>
 8003322:	2218      	movs	r2, #24
 8003324:	705a      	strb	r2, [r3, #1]
 8003326:	2200      	movs	r2, #0
 8003328:	4611      	mov	r1, r2
 800332a:	f7ff bfad 	b.w	8003288 <RDMHandler::CreateRespondMessage(unsigned char, unsigned short)>
	...

08003330 <RDMHandler::GetSupportedParameters(unsigned short)>:
 8003330:	b5f8      	push	{r3, r4, r5, r6, r7, lr}
 8003332:	4b23      	ldr	r3, [pc, #140]	; (80033c0 <RDMHandler::GetSupportedParameters(unsigned short)+0x90>)
 8003334:	4a23      	ldr	r2, [pc, #140]	; (80033c4 <RDMHandler::GetSupportedParameters(unsigned short)+0x94>)
 8003336:	6887      	ldr	r7, [r0, #8]
 8003338:	2900      	cmp	r1, #0
 800333a:	bf0c      	ite	eq
 800333c:	461a      	moveq	r2, r3
 800333e:	2108      	movne	r1, #8
 8003340:	f04f 030c 	mov.w	r3, #12
 8003344:	bf08      	it	eq
 8003346:	211f      	moveq	r1, #31
 8003348:	4359      	muls	r1, r3
 800334a:	2300      	movs	r3, #0
 800334c:	4606      	mov	r6, r0
 800334e:	461d      	mov	r5, r3
 8003350:	461c      	mov	r4, r3
 8003352:	f102 0e15 	add.w	lr, r2, #21
 8003356:	f81e 0013 	ldrb.w	r0, [lr, r3, lsl #1]
 800335a:	b168      	cbz	r0, 8003378 <RDMHandler::GetSupportedParameters(unsigned short)+0x48>
 800335c:	f832 0013 	ldrh.w	r0, [r2, r3, lsl #1]
 8003360:	eb07 0c45 	add.w	ip, r7, r5, lsl #1
 8003364:	0a00      	lsrs	r0, r0, #8
 8003366:	f88c 0018 	strb.w	r0, [ip, #24]
 800336a:	f832 0013 	ldrh.w	r0, [r2, r3, lsl #1]
 800336e:	f88c 0019 	strb.w	r0, [ip, #25]
 8003372:	3401      	adds	r4, #1
 8003374:	b2e4      	uxtb	r4, r4
 8003376:	3501      	adds	r5, #1
 8003378:	330c      	adds	r3, #12
 800337a:	4299      	cmp	r1, r3
 800337c:	d1eb      	bne.n	8003356 <RDMHandler::GetSupportedParameters(unsigned short)+0x26>
 800337e:	4630      	mov	r0, r6
 8003380:	f002 fd8e 	bl	8005ea0 <RDMHandler::GetParameterDescriptionCount() const>
 8003384:	4910      	ldr	r1, [pc, #64]	; (80033c8 <RDMHandler::GetSupportedParameters(unsigned short)+0x98>)
 8003386:	4404      	add	r4, r0
 8003388:	b2e4      	uxtb	r4, r4
 800338a:	eb07 0545 	add.w	r5, r7, r5, lsl #1
 800338e:	2300      	movs	r3, #0
 8003390:	f04f 0c19 	mov.w	ip, #25
 8003394:	4283      	cmp	r3, r0
 8003396:	f105 0502 	add.w	r5, r5, #2
 800339a:	d106      	bne.n	80033aa <RDMHandler::GetSupportedParameters(unsigned short)+0x7a>
 800339c:	0064      	lsls	r4, r4, #1
 800339e:	75fc      	strb	r4, [r7, #23]
 80033a0:	4630      	mov	r0, r6
 80033a2:	e8bd 40f8 	ldmia.w	sp!, {r3, r4, r5, r6, r7, lr}
 80033a6:	f7ff bfb9 	b.w	800331c <RDMHandler::RespondMessageAck()>
 80033aa:	fb0c f203 	mul.w	r2, ip, r3
 80033ae:	3301      	adds	r3, #1
 80033b0:	f831 e002 	ldrh.w	lr, [r1, r2]
 80033b4:	f885 e016 	strb.w	lr, [r5, #22]
 80033b8:	5a8a      	ldrh	r2, [r1, r2]
 80033ba:	0a12      	lsrs	r2, r2, #8
 80033bc:	75ea      	strb	r2, [r5, #23]
 80033be:	e7e9      	b.n	8003394 <RDMHandler::GetSupportedParameters(unsigned short)+0x64>
 80033c0:	0800a25c 	stmdaeq	r0, {r2, r3, r4, r6, r9, sp, pc}
 80033c4:	0800a19c 	stmdaeq	r0, {r2, r3, r4, r7, r8, sp, pc}
 80033c8:	0800acf4 	stmdaeq	r0, {r2, r4, r5, r6, r7, sl, fp, sp, pc}

080033cc <RDMHandler::GetDeviceInfo(unsigned short)>:
 80033cc:	4b19      	ldr	r3, [pc, #100]	; (8003434 <RDMHandler::GetDeviceInfo(unsigned short)+0x68>)
 80033ce:	b510      	push	{r4, lr}
 80033d0:	681b      	ldr	r3, [r3, #0]
 80033d2:	4604      	mov	r4, r0
 80033d4:	b351      	cbz	r1, 800342c <RDMHandler::GetDeviceInfo(unsigned short)+0x60>
 80033d6:	f101 4180 	add.w	r1, r1, #1073741824	; 0x40000000
 80033da:	3901      	subs	r1, #1
 80033dc:	6e1a      	ldr	r2, [r3, #96]	; 0x60
 80033de:	f852 2021 	ldr.w	r2, [r2, r1, lsl #2]
 80033e2:	8a11      	ldrh	r1, [r2, #16]
 80033e4:	0a09      	lsrs	r1, r1, #8
 80033e6:	f883 108e 	strb.w	r1, [r3, #142]	; 0x8e
 80033ea:	8a11      	ldrh	r1, [r2, #16]
 80033ec:	f883 108f 	strb.w	r1, [r3, #143]	; 0x8f
 80033f0:	7d11      	ldrb	r1, [r2, #20]
 80033f2:	f883 1090 	strb.w	r1, [r3, #144]	; 0x90
 80033f6:	7d51      	ldrb	r1, [r2, #21]
 80033f8:	f883 1091 	strb.w	r1, [r3, #145]	; 0x91
 80033fc:	8a51      	ldrh	r1, [r2, #18]
 80033fe:	0a09      	lsrs	r1, r1, #8
 8003400:	f883 1092 	strb.w	r1, [r3, #146]	; 0x92
 8003404:	8a51      	ldrh	r1, [r2, #18]
 8003406:	f883 1093 	strb.w	r1, [r3, #147]	; 0x93
 800340a:	f892 2037 	ldrb.w	r2, [r2, #55]	; 0x37
 800340e:	f883 2096 	strb.w	r2, [r3, #150]	; 0x96
 8003412:	f103 0184 	add.w	r1, r3, #132	; 0x84
 8003416:	68a0      	ldr	r0, [r4, #8]
 8003418:	2213      	movs	r2, #19
 800341a:	75c2      	strb	r2, [r0, #23]
 800341c:	3018      	adds	r0, #24
 800341e:	f7ff fdb0 	bl	8002f82 <memcpy.isra.0>
 8003422:	4620      	mov	r0, r4
 8003424:	e8bd 4010 	ldmia.w	sp!, {r4, lr}
 8003428:	f7ff bf78 	b.w	800331c <RDMHandler::RespondMessageAck()>
 800342c:	f103 0171 	add.w	r1, r3, #113	; 0x71
 8003430:	e7f1      	b.n	8003416 <RDMHandler::GetDeviceInfo(unsigned short)+0x4a>
 8003432:	bf00      	nop
 8003434:	20001088 	andcs	r1, r0, r8, lsl #1

08003438 <RDMHandler::GetFactoryDefaults(unsigned short)>:
 8003438:	e92d 4ff0 	stmdb	sp!, {r4, r5, r6, r7, r8, r9, sl, fp, lr}
 800343c:	6887      	ldr	r7, [r0, #8]
 800343e:	2301      	movs	r3, #1
 8003440:	75fb      	strb	r3, [r7, #23]
 8003442:	4b2c      	ldr	r3, [pc, #176]	; (80034f4 <RDMHandler::GetFactoryDefaults(unsigned short)+0xbc>)
 8003444:	681b      	ldr	r3, [r3, #0]
 8003446:	f893 1099 	ldrb.w	r1, [r3, #153]	; 0x99
 800344a:	b309      	cbz	r1, 8003490 <RDMHandler::GetFactoryDefaults(unsigned short)+0x58>
 800344c:	f06f 0e22 	mvn.w	lr, #34	; 0x22
 8003450:	f8b3 5048 	ldrh.w	r5, [r3, #72]	; 0x48
 8003454:	f893 2055 	ldrb.w	r2, [r3, #85]	; 0x55
 8003458:	f893 6054 	ldrb.w	r6, [r3, #84]	; 0x54
 800345c:	f103 0423 	add.w	r4, r3, #35	; 0x23
 8003460:	ebae 0e03 	sub.w	lr, lr, r3
 8003464:	eb0e 0c04 	add.w	ip, lr, r4
 8003468:	45b4      	cmp	ip, r6
 800346a:	d313      	bcc.n	8003494 <RDMHandler::GetFactoryDefaults(unsigned short)+0x5c>
 800346c:	4295      	cmp	r5, r2
 800346e:	d130      	bne.n	80034d2 <RDMHandler::GetFactoryDefaults(unsigned short)+0x9a>
 8003470:	f893 2080 	ldrb.w	r2, [r3, #128]	; 0x80
 8003474:	f893 507d 	ldrb.w	r5, [r3, #125]	; 0x7d
 8003478:	f8b3 409a 	ldrh.w	r4, [r3, #154]	; 0x9a
 800347c:	442a      	add	r2, r5
 800347e:	4294      	cmp	r4, r2
 8003480:	d127      	bne.n	80034d2 <RDMHandler::GetFactoryDefaults(unsigned short)+0x9a>
 8003482:	f8b3 c064 	ldrh.w	ip, [r3, #100]	; 0x64
 8003486:	2500      	movs	r5, #0
 8003488:	f06f 0e14 	mvn.w	lr, #20
 800348c:	4565      	cmp	r5, ip
 800348e:	d306      	bcc.n	800349e <RDMHandler::GetFactoryDefaults(unsigned short)+0x66>
 8003490:	460b      	mov	r3, r1
 8003492:	e022      	b.n	80034da <RDMHandler::GetFactoryDefaults(unsigned short)+0xa2>
 8003494:	f814 cf01 	ldrb.w	ip, [r4, #1]!
 8003498:	4462      	add	r2, ip
 800349a:	b292      	uxth	r2, r2
 800349c:	e7e2      	b.n	8003464 <RDMHandler::GetFactoryDefaults(unsigned short)+0x2c>
 800349e:	6e1a      	ldr	r2, [r3, #96]	; 0x60
 80034a0:	f852 2025 	ldr.w	r2, [r2, r5, lsl #2]
 80034a4:	b31a      	cbz	r2, 80034ee <RDMHandler::GetFactoryDefaults(unsigned short)+0xb6>
 80034a6:	7a14      	ldrb	r4, [r2, #8]
 80034a8:	b19c      	cbz	r4, 80034d2 <RDMHandler::GetFactoryDefaults(unsigned short)+0x9a>
 80034aa:	7d16      	ldrb	r6, [r2, #20]
 80034ac:	8a54      	ldrh	r4, [r2, #18]
 80034ae:	f8b2 800a 	ldrh.w	r8, [r2, #10]
 80034b2:	f892 9036 	ldrb.w	r9, [r2, #54]	; 0x36
 80034b6:	4434      	add	r4, r6
 80034b8:	b2a4      	uxth	r4, r4
 80034ba:	f102 0615 	add.w	r6, r2, #21
 80034be:	ebae 0a02 	sub.w	sl, lr, r2
 80034c2:	eb0a 0b06 	add.w	fp, sl, r6
 80034c6:	45cb      	cmp	fp, r9
 80034c8:	d30c      	bcc.n	80034e4 <RDMHandler::GetFactoryDefaults(unsigned short)+0xac>
 80034ca:	45a0      	cmp	r8, r4
 80034cc:	d00f      	beq.n	80034ee <RDMHandler::GetFactoryDefaults(unsigned short)+0xb6>
 80034ce:	2100      	movs	r1, #0
 80034d0:	7211      	strb	r1, [r2, #8]
 80034d2:	2200      	movs	r2, #0
 80034d4:	f883 2099 	strb.w	r2, [r3, #153]	; 0x99
 80034d8:	4613      	mov	r3, r2
 80034da:	763b      	strb	r3, [r7, #24]
 80034dc:	e8bd 4ff0 	ldmia.w	sp!, {r4, r5, r6, r7, r8, r9, sl, fp, lr}
 80034e0:	f7ff bf1c 	b.w	800331c <RDMHandler::RespondMessageAck()>
 80034e4:	f816 bf01 	ldrb.w	fp, [r6, #1]!
 80034e8:	445c      	add	r4, fp
 80034ea:	b2a4      	uxth	r4, r4
 80034ec:	e7e9      	b.n	80034c2 <RDMHandler::GetFactoryDefaults(unsigned short)+0x8a>
 80034ee:	3501      	adds	r5, #1
 80034f0:	e7cc      	b.n	800348c <RDMHandler::GetFactoryDefaults(unsigned short)+0x54>
 80034f2:	bf00      	nop
 80034f4:	20001088 	andcs	r1, r0, r8, lsl #1

080034f8 <RDMHandler::GetProductDetailIdList(unsigned short)>:
 80034f8:	4b05      	ldr	r3, [pc, #20]	; (8003510 <RDMHandler::GetProductDetailIdList(unsigned short)+0x18>)
 80034fa:	681b      	ldr	r3, [r3, #0]
 80034fc:	f8b3 2046 	ldrh.w	r2, [r3, #70]	; 0x46
 8003500:	6883      	ldr	r3, [r0, #8]
 8003502:	2102      	movs	r1, #2
 8003504:	75d9      	strb	r1, [r3, #23]
 8003506:	0a11      	lsrs	r1, r2, #8
 8003508:	7619      	strb	r1, [r3, #24]
 800350a:	765a      	strb	r2, [r3, #25]
 800350c:	f7ff bf06 	b.w	800331c <RDMHandler::RespondMessageAck()>
 8003510:	20001088 	andcs	r1, r0, r8, lsl #1

08003514 <RDMHandler::GetDeviceModelDescription(unsigned short)>:
 8003514:	b510      	push	{r4, lr}
 8003516:	4905      	ldr	r1, [pc, #20]	; (800352c <RDMHandler::GetDeviceModelDescription(unsigned short)+0x18>)
 8003518:	4604      	mov	r4, r0
 800351a:	220a      	movs	r2, #10
 800351c:	f7ff fea8 	bl	8003270 <RDMHandler::HandleString(char const*, unsigned long)>
 8003520:	4620      	mov	r0, r4
 8003522:	e8bd 4010 	ldmia.w	sp!, {r4, lr}
 8003526:	f7ff bef9 	b.w	800331c <RDMHandler::RespondMessageAck()>
 800352a:	bf00      	nop
 800352c:	0800a16f 	stmdaeq	r0, {r0, r1, r2, r3, r5, r6, r8, sp, pc}

08003530 <RDMHandler::GetDeviceLabel(unsigned short)>:
 8003530:	4b0d      	ldr	r3, [pc, #52]	; (8003568 <RDMHandler::GetDeviceLabel(unsigned short)+0x38>)
 8003532:	b510      	push	{r4, lr}
 8003534:	681b      	ldr	r3, [r3, #0]
 8003536:	4604      	mov	r4, r0
 8003538:	b189      	cbz	r1, 800355e <RDMHandler::GetDeviceLabel(unsigned short)+0x2e>
 800353a:	f101 4180 	add.w	r1, r1, #1073741824	; 0x40000000
 800353e:	3901      	subs	r1, #1
 8003540:	6e1b      	ldr	r3, [r3, #96]	; 0x60
 8003542:	f853 3021 	ldr.w	r3, [r3, r1, lsl #2]
 8003546:	f893 2036 	ldrb.w	r2, [r3, #54]	; 0x36
 800354a:	f103 0116 	add.w	r1, r3, #22
 800354e:	4620      	mov	r0, r4
 8003550:	f7ff fe8e 	bl	8003270 <RDMHandler::HandleString(char const*, unsigned long)>
 8003554:	4620      	mov	r0, r4
 8003556:	e8bd 4010 	ldmia.w	sp!, {r4, lr}
 800355a:	f7ff bedf 	b.w	800331c <RDMHandler::RespondMessageAck()>
 800355e:	f893 2054 	ldrb.w	r2, [r3, #84]	; 0x54
 8003562:	f103 0124 	add.w	r1, r3, #36	; 0x24
 8003566:	e7f2      	b.n	800354e <RDMHandler::GetDeviceLabel(unsigned short)+0x1e>
 8003568:	20001088 	andcs	r1, r0, r8, lsl #1

0800356c <RDMHandler::GetSoftwareVersionLabel(unsigned short)>:
 800356c:	b510      	push	{r4, lr}
 800356e:	4b06      	ldr	r3, [pc, #24]	; (8003588 <RDMHandler::GetSoftwareVersionLabel(unsigned short)+0x1c>)
 8003570:	681b      	ldr	r3, [r3, #0]
 8003572:	4604      	mov	r4, r0
 8003574:	f893 2070 	ldrb.w	r2, [r3, #112]	; 0x70
 8003578:	6ed9      	ldr	r1, [r3, #108]	; 0x6c
 800357a:	f7ff fe79 	bl	8003270 <RDMHandler::HandleString(char const*, unsigned long)>
 800357e:	4620      	mov	r0, r4
 8003580:	e8bd 4010 	ldmia.w	sp!, {r4, lr}
 8003584:	f7ff beca 	b.w	800331c <RDMHandler::RespondMessageAck()>
 8003588:	20001088 	andcs	r1, r0, r8, lsl #1

0800358c <RDMHandler::GetIdentifyDevice(unsigned short)>:
 800358c:	6883      	ldr	r3, [r0, #8]
 800358e:	2201      	movs	r2, #1
 8003590:	75da      	strb	r2, [r3, #23]
 8003592:	4a02      	ldr	r2, [pc, #8]	; (800359c <RDMHandler::GetIdentifyDevice(unsigned short)+0x10>)
 8003594:	7812      	ldrb	r2, [r2, #0]
 8003596:	761a      	strb	r2, [r3, #24]
 8003598:	f7ff bec0 	b.w	800331c <RDMHandler::RespondMessageAck()>
 800359c:	20001091 	mulcs	r0, r1, r0

080035a0 <RDMHandler::GetLanguage(unsigned short)>:
 80035a0:	b510      	push	{r4, lr}
 80035a2:	4b06      	ldr	r3, [pc, #24]	; (80035bc <RDMHandler::GetLanguage(unsigned short)+0x1c>)
 80035a4:	6819      	ldr	r1, [r3, #0]
 80035a6:	4604      	mov	r4, r0
 80035a8:	2202      	movs	r2, #2
 80035aa:	3197      	adds	r1, #151	; 0x97
 80035ac:	f7ff fe60 	bl	8003270 <RDMHandler::HandleString(char const*, unsigned long)>
 80035b0:	4620      	mov	r0, r4
 80035b2:	e8bd 4010 	ldmia.w	sp!, {r4, lr}
 80035b6:	f7ff beb1 	b.w	800331c <RDMHandler::RespondMessageAck()>
 80035ba:	bf00      	nop
 80035bc:	20001088 	andcs	r1, r0, r8, lsl #1

080035c0 <RDMHandler::GetPersonality(unsigned short)>:
 80035c0:	b538      	push	{r3, r4, r5, lr}
 80035c2:	4b0d      	ldr	r3, [pc, #52]	; (80035f8 <RDMHandler::GetPersonality(unsigned short)+0x38>)
 80035c4:	4604      	mov	r4, r0
 80035c6:	6818      	ldr	r0, [r3, #0]
 80035c8:	b191      	cbz	r1, 80035f0 <RDMHandler::GetPersonality(unsigned short)+0x30>
 80035ca:	f101 4380 	add.w	r3, r1, #1073741824	; 0x40000000
 80035ce:	6e02      	ldr	r2, [r0, #96]	; 0x60
 80035d0:	3b01      	subs	r3, #1
 80035d2:	f852 3023 	ldr.w	r3, [r2, r3, lsl #2]
 80035d6:	7d1d      	ldrb	r5, [r3, #20]
 80035d8:	f7ff fd7e 	bl	80030d8 <RDMDeviceResponder::GetPersonalityCount(unsigned short)>
 80035dc:	68a3      	ldr	r3, [r4, #8]
 80035de:	2202      	movs	r2, #2
 80035e0:	7658      	strb	r0, [r3, #25]
 80035e2:	75da      	strb	r2, [r3, #23]
 80035e4:	761d      	strb	r5, [r3, #24]
 80035e6:	4620      	mov	r0, r4
 80035e8:	e8bd 4038 	ldmia.w	sp!, {r3, r4, r5, lr}
 80035ec:	f7ff be96 	b.w	800331c <RDMHandler::RespondMessageAck()>
 80035f0:	f890 507d 	ldrb.w	r5, [r0, #125]	; 0x7d
 80035f4:	e7f0      	b.n	80035d8 <RDMHandler::GetPersonality(unsigned short)+0x18>
 80035f6:	bf00      	nop
 80035f8:	20001088 	andcs	r1, r0, r8, lsl #1

080035fc <RDMHandler::GetDmxStartAddress(unsigned short)>:
 80035fc:	4b0b      	ldr	r3, [pc, #44]	; (800362c <RDMHandler::GetDmxStartAddress(unsigned short)+0x30>)
 80035fe:	681b      	ldr	r3, [r3, #0]
 8003600:	b171      	cbz	r1, 8003620 <RDMHandler::GetDmxStartAddress(unsigned short)+0x24>
 8003602:	f101 4180 	add.w	r1, r1, #1073741824	; 0x40000000
 8003606:	6e1b      	ldr	r3, [r3, #96]	; 0x60
 8003608:	3901      	subs	r1, #1
 800360a:	f853 3021 	ldr.w	r3, [r3, r1, lsl #2]
 800360e:	8a5b      	ldrh	r3, [r3, #18]
 8003610:	6882      	ldr	r2, [r0, #8]
 8003612:	2102      	movs	r1, #2
 8003614:	75d1      	strb	r1, [r2, #23]
 8003616:	0a19      	lsrs	r1, r3, #8
 8003618:	7611      	strb	r1, [r2, #24]
 800361a:	7653      	strb	r3, [r2, #25]
 800361c:	f7ff be7e 	b.w	800331c <RDMHandler::RespondMessageAck()>
 8003620:	f8b3 307f 	ldrh.w	r3, [r3, #127]	; 0x7f
 8003624:	ba5b      	rev16	r3, r3
 8003626:	b29b      	uxth	r3, r3
 8003628:	e7f2      	b.n	8003610 <RDMHandler::GetDmxStartAddress(unsigned short)+0x14>
 800362a:	bf00      	nop
 800362c:	20001088 	andcs	r1, r0, r8, lsl #1

08003630 <RDMHandler::GetDeviceHours(unsigned short)>:
 8003630:	4b07      	ldr	r3, [pc, #28]	; (8003650 <RDMHandler::GetDeviceHours(unsigned short)+0x20>)
 8003632:	681a      	ldr	r2, [r3, #0]
 8003634:	4b07      	ldr	r3, [pc, #28]	; (8003654 <RDMHandler::GetDeviceHours(unsigned short)+0x24>)
 8003636:	fbb2 f2f3 	udiv	r2, r2, r3
 800363a:	6883      	ldr	r3, [r0, #8]
 800363c:	2104      	movs	r1, #4
 800363e:	75d9      	strb	r1, [r3, #23]
 8003640:	2100      	movs	r1, #0
 8003642:	7619      	strb	r1, [r3, #24]
 8003644:	7659      	strb	r1, [r3, #25]
 8003646:	0a11      	lsrs	r1, r2, #8
 8003648:	7699      	strb	r1, [r3, #26]
 800364a:	76da      	strb	r2, [r3, #27]
 800364c:	f7ff be66 	b.w	800331c <RDMHandler::RespondMessageAck()>
 8003650:	20008794 	mulcs	r0, r4, r7
 8003654:	0036ee80 	eorseq	lr, r6, r0, lsl #29

08003658 <RDMHandler::GetDisplayInvert(unsigned short)>:
 8003658:	6883      	ldr	r3, [r0, #8]
 800365a:	2201      	movs	r2, #1
 800365c:	75da      	strb	r2, [r3, #23]
 800365e:	4a03      	ldr	r2, [pc, #12]	; (800366c <RDMHandler::GetDisplayInvert(unsigned short)+0x14>)
 8003660:	6812      	ldr	r2, [r2, #0]
 8003662:	7e52      	ldrb	r2, [r2, #25]
 8003664:	761a      	strb	r2, [r3, #24]
 8003666:	f7ff be59 	b.w	800331c <RDMHandler::RespondMessageAck()>
 800366a:	bf00      	nop
 800366c:	2000266c 	andcs	r2, r0, ip, ror #12

08003670 <RDMHandler::GetDisplayLevel(unsigned short)>:
 8003670:	6883      	ldr	r3, [r0, #8]
 8003672:	2201      	movs	r2, #1
 8003674:	75da      	strb	r2, [r3, #23]
 8003676:	4a03      	ldr	r2, [pc, #12]	; (8003684 <RDMHandler::GetDisplayLevel(unsigned short)+0x14>)
 8003678:	6812      	ldr	r2, [r2, #0]
 800367a:	7e12      	ldrb	r2, [r2, #24]
 800367c:	761a      	strb	r2, [r3, #24]
 800367e:	f7ff be4d 	b.w	800331c <RDMHandler::RespondMessageAck()>
 8003682:	bf00      	nop
 8003684:	2000266c 	andcs	r2, r0, ip, ror #12

08003688 <RDMHandler::GetRealTimeClock(unsigned short)>:
 8003688:	b510      	push	{r4, lr}
 800368a:	4604      	mov	r4, r0
 800368c:	b08a      	sub	sp, #40	; 0x28
 800368e:	2000      	movs	r0, #0
 8003690:	f004 fec0 	bl	8008414 <time>
 8003694:	9000      	str	r0, [sp, #0]
 8003696:	4668      	mov	r0, sp
 8003698:	f004 fdea 	bl	8008270 <localtime>
 800369c:	2224      	movs	r2, #36	; 0x24
 800369e:	4601      	mov	r1, r0
 80036a0:	a801      	add	r0, sp, #4
 80036a2:	f7ff fc6e 	bl	8002f82 <memcpy.isra.0>
 80036a6:	9a06      	ldr	r2, [sp, #24]
 80036a8:	68a3      	ldr	r3, [r4, #8]
 80036aa:	f202 726c 	addw	r2, r2, #1900	; 0x76c
 80036ae:	f3c2 2107 	ubfx	r1, r2, #8, #8
 80036b2:	765a      	strb	r2, [r3, #25]
 80036b4:	9a05      	ldr	r2, [sp, #20]
 80036b6:	7619      	strb	r1, [r3, #24]
 80036b8:	3201      	adds	r2, #1
 80036ba:	769a      	strb	r2, [r3, #26]
 80036bc:	9a04      	ldr	r2, [sp, #16]
 80036be:	76da      	strb	r2, [r3, #27]
 80036c0:	9a03      	ldr	r2, [sp, #12]
 80036c2:	771a      	strb	r2, [r3, #28]
 80036c4:	9a02      	ldr	r2, [sp, #8]
 80036c6:	775a      	strb	r2, [r3, #29]
 80036c8:	9a01      	ldr	r2, [sp, #4]
 80036ca:	779a      	strb	r2, [r3, #30]
 80036cc:	4620      	mov	r0, r4
 80036ce:	2207      	movs	r2, #7
 80036d0:	75da      	strb	r2, [r3, #23]
 80036d2:	b00a      	add	sp, #40	; 0x28
 80036d4:	e8bd 4010 	ldmia.w	sp!, {r4, lr}
 80036d8:	f7ff be20 	b.w	800331c <RDMHandler::RespondMessageAck()>

080036dc <RDMHandler::GetPowerState(unsigned short)>:
 80036dc:	6883      	ldr	r3, [r0, #8]
 80036de:	2201      	movs	r2, #1
 80036e0:	75da      	strb	r2, [r3, #23]
 80036e2:	22ff      	movs	r2, #255	; 0xff
 80036e4:	761a      	strb	r2, [r3, #24]
 80036e6:	f7ff be19 	b.w	800331c <RDMHandler::RespondMessageAck()>

080036ea <RDMHandler::GetPerformSelfTest(unsigned short)>:
 80036ea:	b538      	push	{r3, r4, r5, lr}
 80036ec:	6885      	ldr	r5, [r0, #8]
 80036ee:	2301      	movs	r3, #1
 80036f0:	75eb      	strb	r3, [r5, #23]
 80036f2:	4604      	mov	r4, r0
 80036f4:	f7fd fe4c 	bl	8001390 <rdm::selftest::Get()>
 80036f8:	3800      	subs	r0, #0
 80036fa:	bf18      	it	ne
 80036fc:	2001      	movne	r0, #1
 80036fe:	7628      	strb	r0, [r5, #24]
 8003700:	4620      	mov	r0, r4
 8003702:	e8bd 4038 	ldmia.w	sp!, {r3, r4, r5, lr}
 8003706:	f7ff be09 	b.w	800331c <RDMHandler::RespondMessageAck()>
	...

0800370c <RDMHandler::GetManufacturerLabel(unsigned short)>:
 800370c:	4b0a      	ldr	r3, [pc, #40]	; (8003738 <RDMHandler::GetManufacturerLabel(unsigned short)+0x2c>)
 800370e:	b510      	push	{r4, lr}
 8003710:	4619      	mov	r1, r3
 8003712:	4604      	mov	r4, r0
 8003714:	461a      	mov	r2, r3
 8003716:	3301      	adds	r3, #1
 8003718:	7810      	ldrb	r0, [r2, #0]
 800371a:	2800      	cmp	r0, #0
 800371c:	d1fa      	bne.n	8003714 <RDMHandler::GetManufacturerLabel(unsigned short)+0x8>
 800371e:	1a52      	subs	r2, r2, r1
 8003720:	2a20      	cmp	r2, #32
 8003722:	4620      	mov	r0, r4
 8003724:	4904      	ldr	r1, [pc, #16]	; (8003738 <RDMHandler::GetManufacturerLabel(unsigned short)+0x2c>)
 8003726:	bf28      	it	cs
 8003728:	2220      	movcs	r2, #32
 800372a:	f7ff fda1 	bl	8003270 <RDMHandler::HandleString(char const*, unsigned long)>
 800372e:	4620      	mov	r0, r4
 8003730:	e8bd 4010 	ldmia.w	sp!, {r4, lr}
 8003734:	f7ff bdf2 	b.w	800331c <RDMHandler::RespondMessageAck()>
 8003738:	0800ab22 	stmdaeq	r0, {r1, r5, r8, r9, fp, sp, pc}

0800373c <RDMHandler::GetBootSoftwareVersionLabel(unsigned short)>:
 800373c:	b510      	push	{r4, lr}
 800373e:	4905      	ldr	r1, [pc, #20]	; (8003754 <RDMHandler::GetBootSoftwareVersionLabel(unsigned short)+0x18>)
 8003740:	4604      	mov	r4, r0
 8003742:	2208      	movs	r2, #8
 8003744:	f7ff fd94 	bl	8003270 <RDMHandler::HandleString(char const*, unsigned long)>
 8003748:	4620      	mov	r0, r4
 800374a:	e8bd 4010 	ldmia.w	sp!, {r4, lr}
 800374e:	f7ff bde5 	b.w	800331c <RDMHandler::RespondMessageAck()>
 8003752:	bf00      	nop
 8003754:	0800a17a 	stmdaeq	r0, {r1, r3, r4, r5, r6, r8, sp, pc}

08003758 <RDMHandler::GetSlotInfo(unsigned short)>:
 8003758:	e92d 47f3 	stmdb	sp!, {r0, r1, r4, r5, r6, r7, r8, r9, sl, lr}
 800375c:	f8df 9090 	ldr.w	r9, [pc, #144]	; 80037f0 <RDMHandler::GetSlotInfo(unsigned short)+0x98>
 8003760:	6887      	ldr	r7, [r0, #8]
 8003762:	f8d9 2000 	ldr.w	r2, [r9]
 8003766:	4606      	mov	r6, r0
 8003768:	4688      	mov	r8, r1
 800376a:	b1e1      	cbz	r1, 80037a6 <RDMHandler::GetSlotInfo(unsigned short)+0x4e>
 800376c:	f101 4380 	add.w	r3, r1, #1073741824	; 0x40000000
 8003770:	6e12      	ldr	r2, [r2, #96]	; 0x60
 8003772:	3b01      	subs	r3, #1
 8003774:	f852 3023 	ldr.w	r3, [r2, r3, lsl #2]
 8003778:	8a1d      	ldrh	r5, [r3, #16]
 800377a:	f04f 0a00 	mov.w	sl, #0
 800377e:	2d2e      	cmp	r5, #46	; 0x2e
 8003780:	4654      	mov	r4, sl
 8003782:	bf28      	it	cs
 8003784:	252e      	movcs	r5, #46	; 0x2e
 8003786:	45aa      	cmp	sl, r5
 8003788:	d227      	bcs.n	80037da <RDMHandler::GetSlotInfo(unsigned short)+0x82>
 800378a:	f1b8 0f00 	cmp.w	r8, #0
 800378e:	d107      	bne.n	80037a0 <RDMHandler::GetSlotInfo(unsigned short)+0x48>
 8003790:	f8d9 0000 	ldr.w	r0, [r9]
 8003794:	aa01      	add	r2, sp, #4
 8003796:	fa1f f18a 	uxth.w	r1, sl
 800379a:	f7ff fbcf 	bl	8002f3c <RDMDeviceResponder::GetSlotInfo(unsigned short, unsigned short, lightset::SlotInfo&) [clone .part.0]>
 800379e:	b938      	cbnz	r0, 80037b0 <RDMHandler::GetSlotInfo(unsigned short)+0x58>
 80037a0:	f10a 0a01 	add.w	sl, sl, #1
 80037a4:	e7ef      	b.n	8003786 <RDMHandler::GetSlotInfo(unsigned short)+0x2e>
 80037a6:	f8b2 507b 	ldrh.w	r5, [r2, #123]	; 0x7b
 80037aa:	ba6d      	rev16	r5, r5
 80037ac:	b2ad      	uxth	r5, r5
 80037ae:	e7e4      	b.n	800377a <RDMHandler::GetSlotInfo(unsigned short)+0x22>
 80037b0:	193a      	adds	r2, r7, r4
 80037b2:	2300      	movs	r3, #0
 80037b4:	7613      	strb	r3, [r2, #24]
 80037b6:	f89d 3006 	ldrb.w	r3, [sp, #6]
 80037ba:	f8bd 1004 	ldrh.w	r1, [sp, #4]
 80037be:	7693      	strb	r3, [r2, #26]
 80037c0:	1d23      	adds	r3, r4, #4
 80037c2:	f882 a019 	strb.w	sl, [r2, #25]
 80037c6:	443b      	add	r3, r7
 80037c8:	f10a 0a01 	add.w	sl, sl, #1
 80037cc:	0a08      	lsrs	r0, r1, #8
 80037ce:	4555      	cmp	r5, sl
 80037d0:	76d0      	strb	r0, [r2, #27]
 80037d2:	f104 0405 	add.w	r4, r4, #5
 80037d6:	7619      	strb	r1, [r3, #24]
 80037d8:	d8da      	bhi.n	8003790 <RDMHandler::GetSlotInfo(unsigned short)+0x38>
 80037da:	b2e4      	uxtb	r4, r4
 80037dc:	75fc      	strb	r4, [r7, #23]
 80037de:	3418      	adds	r4, #24
 80037e0:	70bc      	strb	r4, [r7, #2]
 80037e2:	4630      	mov	r0, r6
 80037e4:	f7ff fd9a 	bl	800331c <RDMHandler::RespondMessageAck()>
 80037e8:	b002      	add	sp, #8
 80037ea:	e8bd 87f0 	ldmia.w	sp!, {r4, r5, r6, r7, r8, r9, sl, pc}
 80037ee:	bf00      	nop
 80037f0:	20001088 	andcs	r1, r0, r8, lsl #1

080037f4 <RDMHandler::RespondMessageNack(unsigned short)>:
 80037f4:	460a      	mov	r2, r1
 80037f6:	2102      	movs	r1, #2
 80037f8:	f7ff bd46 	b.w	8003288 <RDMHandler::CreateRespondMessage(unsigned char, unsigned short)>

080037fc <RDMHandler::GetParameterDescription(unsigned short)>:
 80037fc:	b5f8      	push	{r3, r4, r5, r6, r7, lr}
 80037fe:	6843      	ldr	r3, [r0, #4]
 8003800:	f8b3 4017 	ldrh.w	r4, [r3, #23]
 8003804:	ba64      	rev16	r4, r4
 8003806:	b2a4      	uxth	r4, r4
 8003808:	f484 4200 	eor.w	r2, r4, #32768	; 0x8000
 800380c:	f647 73df 	movw	r3, #32735	; 0x7fdf
 8003810:	429a      	cmp	r2, r3
 8003812:	4605      	mov	r5, r0
 8003814:	d905      	bls.n	8003822 <RDMHandler::GetParameterDescription(unsigned short)+0x26>
 8003816:	4628      	mov	r0, r5
 8003818:	2106      	movs	r1, #6
 800381a:	e8bd 40f8 	ldmia.w	sp!, {r3, r4, r5, r6, r7, lr}
 800381e:	f7ff bfe9 	b.w	80037f4 <RDMHandler::RespondMessageNack(unsigned short)>
 8003822:	f002 fb3d 	bl	8005ea0 <RDMHandler::GetParameterDescriptionCount() const>
 8003826:	ba64      	rev16	r4, r4
 8003828:	4a11      	ldr	r2, [pc, #68]	; (8003870 <RDMHandler::GetParameterDescription(unsigned short)+0x74>)
 800382a:	2300      	movs	r3, #0
 800382c:	b2a4      	uxth	r4, r4
 800382e:	2719      	movs	r7, #25
 8003830:	4283      	cmp	r3, r0
 8003832:	d0f0      	beq.n	8003816 <RDMHandler::GetParameterDescription(unsigned short)+0x1a>
 8003834:	fb07 f103 	mul.w	r1, r7, r3
 8003838:	1856      	adds	r6, r2, r1
 800383a:	5a51      	ldrh	r1, [r2, r1]
 800383c:	42a1      	cmp	r1, r4
 800383e:	d114      	bne.n	800386a <RDMHandler::GetParameterDescription(unsigned short)+0x6e>
 8003840:	68ac      	ldr	r4, [r5, #8]
 8003842:	7e33      	ldrb	r3, [r6, #24]
 8003844:	75e3      	strb	r3, [r4, #23]
 8003846:	4631      	mov	r1, r6
 8003848:	f104 0018 	add.w	r0, r4, #24
 800384c:	2214      	movs	r2, #20
 800384e:	f7ff fb98 	bl	8002f82 <memcpy.isra.0>
 8003852:	7e32      	ldrb	r2, [r6, #24]
 8003854:	6971      	ldr	r1, [r6, #20]
 8003856:	f104 002c 	add.w	r0, r4, #44	; 0x2c
 800385a:	3a14      	subs	r2, #20
 800385c:	f7ff fb91 	bl	8002f82 <memcpy.isra.0>
 8003860:	4628      	mov	r0, r5
 8003862:	e8bd 40f8 	ldmia.w	sp!, {r3, r4, r5, r6, r7, lr}
 8003866:	f7ff bd59 	b.w	800331c <RDMHandler::RespondMessageAck()>
 800386a:	3301      	adds	r3, #1
 800386c:	e7e0      	b.n	8003830 <RDMHandler::GetParameterDescription(unsigned short)+0x34>
 800386e:	bf00      	nop
 8003870:	0800acf4 	stmdaeq	r0, {r2, r4, r5, r6, r7, sl, fp, sp, pc}

08003874 <RDMHandler::GetManufacturerPid(unsigned short)>:
 8003874:	b530      	push	{r4, r5, lr}
 8003876:	4604      	mov	r4, r0
 8003878:	e9d0 0501 	ldrd	r0, r5, [r0, #4]
 800387c:	b087      	sub	sp, #28
 800387e:	7d83      	ldrb	r3, [r0, #22]
 8003880:	f88d 3008 	strb.w	r3, [sp, #8]
 8003884:	f100 0317 	add.w	r3, r0, #23
 8003888:	9303      	str	r3, [sp, #12]
 800388a:	2300      	movs	r3, #0
 800388c:	9304      	str	r3, [sp, #16]
 800388e:	f105 0318 	add.w	r3, r5, #24
 8003892:	9305      	str	r3, [sp, #20]
 8003894:	8a80      	ldrh	r0, [r0, #20]
 8003896:	f10d 0306 	add.w	r3, sp, #6
 800389a:	aa04      	add	r2, sp, #16
 800389c:	a902      	add	r1, sp, #8
 800389e:	f002 fb01 	bl	8005ea4 <rdm::handle_manufactureer_pid_get(unsigned short, rdm::ManufacturerParamData const*, rdm::ManufacturerParamData*, unsigned short&)>
 80038a2:	b138      	cbz	r0, 80038b4 <RDMHandler::GetManufacturerPid(unsigned short)+0x40>
 80038a4:	f89d 3010 	ldrb.w	r3, [sp, #16]
 80038a8:	75eb      	strb	r3, [r5, #23]
 80038aa:	4620      	mov	r0, r4
 80038ac:	f7ff fd36 	bl	800331c <RDMHandler::RespondMessageAck()>
 80038b0:	b007      	add	sp, #28
 80038b2:	bd30      	pop	{r4, r5, pc}
 80038b4:	f8bd 1006 	ldrh.w	r1, [sp, #6]
 80038b8:	4620      	mov	r0, r4
 80038ba:	f7ff ff9b 	bl	80037f4 <RDMHandler::RespondMessageNack(unsigned short)>
 80038be:	e7f7      	b.n	80038b0 <RDMHandler::GetManufacturerPid(unsigned short)+0x3c>

080038c0 <RDMHandler::SetResetDevice(bool, unsigned short)>:
 80038c0:	b510      	push	{r4, lr}
 80038c2:	6843      	ldr	r3, [r0, #4]
 80038c4:	7d9a      	ldrb	r2, [r3, #22]
 80038c6:	2a01      	cmp	r2, #1
 80038c8:	4604      	mov	r4, r0
 80038ca:	d004      	beq.n	80038d6 <RDMHandler::SetResetDevice(bool, unsigned short)+0x16>
 80038cc:	2101      	movs	r1, #1
 80038ce:	e8bd 4010 	ldmia.w	sp!, {r4, lr}
 80038d2:	f7ff bf8f 	b.w	80037f4 <RDMHandler::RespondMessageNack(unsigned short)>
 80038d6:	7ddb      	ldrb	r3, [r3, #23]
 80038d8:	2b01      	cmp	r3, #1
 80038da:	d003      	beq.n	80038e4 <RDMHandler::SetResetDevice(bool, unsigned short)+0x24>
 80038dc:	2bff      	cmp	r3, #255	; 0xff
 80038de:	d00c      	beq.n	80038fa <RDMHandler::SetResetDevice(bool, unsigned short)+0x3a>
 80038e0:	2106      	movs	r1, #6
 80038e2:	e7f4      	b.n	80038ce <RDMHandler::SetResetDevice(bool, unsigned short)+0xe>
 80038e4:	6883      	ldr	r3, [r0, #8]
 80038e6:	2200      	movs	r2, #0
 80038e8:	75da      	strb	r2, [r3, #23]
 80038ea:	4b07      	ldr	r3, [pc, #28]	; (8003908 <RDMHandler::SetResetDevice(bool, unsigned short)+0x48>)
 80038ec:	6818      	ldr	r0, [r3, #0]
 80038ee:	f004 fa2f 	bl	8007d50 <Hardware::Reboot()>
 80038f2:	b938      	cbnz	r0, 8003904 <RDMHandler::SetResetDevice(bool, unsigned short)+0x44>
 80038f4:	2104      	movs	r1, #4
 80038f6:	4620      	mov	r0, r4
 80038f8:	e7e9      	b.n	80038ce <RDMHandler::SetResetDevice(bool, unsigned short)+0xe>
 80038fa:	6883      	ldr	r3, [r0, #8]
 80038fc:	2200      	movs	r2, #0
 80038fe:	75da      	strb	r2, [r3, #23]
 8003900:	2104      	movs	r1, #4
 8003902:	e7e4      	b.n	80038ce <RDMHandler::SetResetDevice(bool, unsigned short)+0xe>
 8003904:	bd10      	pop	{r4, pc}
 8003906:	bf00      	nop
 8003908:	20002758 	andcs	r2, r0, r8, asr r7

0800390c <RDMHandler::SetIdentifyDevice(bool, unsigned short)>:
 800390c:	b5f8      	push	{r3, r4, r5, r6, r7, lr}
 800390e:	6843      	ldr	r3, [r0, #4]
 8003910:	7d9a      	ldrb	r2, [r3, #22]
 8003912:	2a01      	cmp	r2, #1
 8003914:	4604      	mov	r4, r0
 8003916:	460d      	mov	r5, r1
 8003918:	d004      	beq.n	8003924 <RDMHandler::SetIdentifyDevice(bool, unsigned short)+0x18>
 800391a:	2101      	movs	r1, #1
 800391c:	e8bd 40f8 	ldmia.w	sp!, {r3, r4, r5, r6, r7, lr}
 8003920:	f7ff bf68 	b.w	80037f4 <RDMHandler::RespondMessageNack(unsigned short)>
 8003924:	7ddb      	ldrb	r3, [r3, #23]
 8003926:	2b01      	cmp	r3, #1
 8003928:	d901      	bls.n	800392e <RDMHandler::SetIdentifyDevice(bool, unsigned short)+0x22>
 800392a:	2106      	movs	r1, #6
 800392c:	e7f6      	b.n	800391c <RDMHandler::SetIdentifyDevice(bool, unsigned short)+0x10>
 800392e:	4912      	ldr	r1, [pc, #72]	; (8003978 <RDMHandler::SetIdentifyDevice(bool, unsigned short)+0x6c>)
 8003930:	4f12      	ldr	r7, [pc, #72]	; (800397c <RDMHandler::SetIdentifyDevice(bool, unsigned short)+0x70>)
 8003932:	680e      	ldr	r6, [r1, #0]
 8003934:	4912      	ldr	r1, [pc, #72]	; (8003980 <RDMHandler::SetIdentifyDevice(bool, unsigned short)+0x74>)
 8003936:	6808      	ldr	r0, [r1, #0]
 8003938:	4912      	ldr	r1, [pc, #72]	; (8003984 <RDMHandler::SetIdentifyDevice(bool, unsigned short)+0x78>)
 800393a:	b98b      	cbnz	r3, 8003960 <RDMHandler::SetIdentifyDevice(bool, unsigned short)+0x54>
 800393c:	700b      	strb	r3, [r1, #0]
 800393e:	461a      	mov	r2, r3
 8003940:	2102      	movs	r1, #2
 8003942:	f004 f989 	bl	8007c58 <Hardware::SetModeWithLock(hardware::ledblink::Mode, bool)>
 8003946:	7839      	ldrb	r1, [r7, #0]
 8003948:	b111      	cbz	r1, 8003950 <RDMHandler::SetIdentifyDevice(bool, unsigned short)+0x44>
 800394a:	4630      	mov	r0, r6
 800394c:	f7fd fdf4 	bl	8001538 <RDMIdentify::Off(rdm::identify::Mode)>
 8003950:	b98d      	cbnz	r5, 8003976 <RDMHandler::SetIdentifyDevice(bool, unsigned short)+0x6a>
 8003952:	68a3      	ldr	r3, [r4, #8]
 8003954:	75dd      	strb	r5, [r3, #23]
 8003956:	4620      	mov	r0, r4
 8003958:	e8bd 40f8 	ldmia.w	sp!, {r3, r4, r5, r6, r7, lr}
 800395c:	f7ff bcde 	b.w	800331c <RDMHandler::RespondMessageAck()>
 8003960:	700a      	strb	r2, [r1, #0]
 8003962:	2104      	movs	r1, #4
 8003964:	f004 f978 	bl	8007c58 <Hardware::SetModeWithLock(hardware::ledblink::Mode, bool)>
 8003968:	7839      	ldrb	r1, [r7, #0]
 800396a:	2900      	cmp	r1, #0
 800396c:	d0f0      	beq.n	8003950 <RDMHandler::SetIdentifyDevice(bool, unsigned short)+0x44>
 800396e:	4630      	mov	r0, r6
 8003970:	f7fd fdc4 	bl	80014fc <RDMIdentify::On(rdm::identify::Mode)>
 8003974:	e7ec      	b.n	8003950 <RDMHandler::SetIdentifyDevice(bool, unsigned short)+0x44>
 8003976:	bdf8      	pop	{r3, r4, r5, r6, r7, pc}
 8003978:	2000108c 	andcs	r1, r0, ip, lsl #1
 800397c:	20001090 	mulcs	r0, r0, r0
 8003980:	20002758 	andcs	r2, r0, r8, asr r7
 8003984:	20001091 	mulcs	r0, r1, r0

08003988 <RDMHandler::SetLanguage(bool, unsigned short)>:
 8003988:	b470      	push	{r4, r5, r6}
 800398a:	6842      	ldr	r2, [r0, #4]
 800398c:	7d94      	ldrb	r4, [r2, #22]
 800398e:	2c02      	cmp	r4, #2
 8003990:	4603      	mov	r3, r0
 8003992:	d003      	beq.n	800399c <RDMHandler::SetLanguage(bool, unsigned short)+0x14>
 8003994:	2101      	movs	r1, #1
 8003996:	bc70      	pop	{r4, r5, r6}
 8003998:	f7ff bf2c 	b.w	80037f4 <RDMHandler::RespondMessageNack(unsigned short)>
 800399c:	4c0b      	ldr	r4, [pc, #44]	; (80039cc <RDMHandler::SetLanguage(bool, unsigned short)+0x44>)
 800399e:	7dd6      	ldrb	r6, [r2, #23]
 80039a0:	6824      	ldr	r4, [r4, #0]
 80039a2:	f894 5097 	ldrb.w	r5, [r4, #151]	; 0x97
 80039a6:	42ae      	cmp	r6, r5
 80039a8:	d104      	bne.n	80039b4 <RDMHandler::SetLanguage(bool, unsigned short)+0x2c>
 80039aa:	7e15      	ldrb	r5, [r2, #24]
 80039ac:	f894 2098 	ldrb.w	r2, [r4, #152]	; 0x98
 80039b0:	4295      	cmp	r5, r2
 80039b2:	d002      	beq.n	80039ba <RDMHandler::SetLanguage(bool, unsigned short)+0x32>
 80039b4:	2106      	movs	r1, #6
 80039b6:	4618      	mov	r0, r3
 80039b8:	e7ed      	b.n	8003996 <RDMHandler::SetLanguage(bool, unsigned short)+0xe>
 80039ba:	b921      	cbnz	r1, 80039c6 <RDMHandler::SetLanguage(bool, unsigned short)+0x3e>
 80039bc:	6883      	ldr	r3, [r0, #8]
 80039be:	75d9      	strb	r1, [r3, #23]
 80039c0:	bc70      	pop	{r4, r5, r6}
 80039c2:	f7ff bcab 	b.w	800331c <RDMHandler::RespondMessageAck()>
 80039c6:	bc70      	pop	{r4, r5, r6}
 80039c8:	4770      	bx	lr
 80039ca:	bf00      	nop
 80039cc:	20001088 	andcs	r1, r0, r8, lsl #1

080039d0 <RDMHandler::SetPersonality(bool, unsigned short)>:
 80039d0:	b5f8      	push	{r3, r4, r5, r6, r7, lr}
 80039d2:	6843      	ldr	r3, [r0, #4]
 80039d4:	4615      	mov	r5, r2
 80039d6:	7d9a      	ldrb	r2, [r3, #22]
 80039d8:	2a01      	cmp	r2, #1
 80039da:	4604      	mov	r4, r0
 80039dc:	d004      	beq.n	80039e8 <RDMHandler::SetPersonality(bool, unsigned short)+0x18>
 80039de:	2101      	movs	r1, #1
 80039e0:	e8bd 40f8 	ldmia.w	sp!, {r3, r4, r5, r6, r7, lr}
 80039e4:	f7ff bf06 	b.w	80037f4 <RDMHandler::RespondMessageNack(unsigned short)>
 80039e8:	7dde      	ldrb	r6, [r3, #23]
 80039ea:	4b0c      	ldr	r3, [pc, #48]	; (8003a1c <RDMHandler::SetPersonality(bool, unsigned short)+0x4c>)
 80039ec:	681f      	ldr	r7, [r3, #0]
 80039ee:	4629      	mov	r1, r5
 80039f0:	4638      	mov	r0, r7
 80039f2:	f7ff fb71 	bl	80030d8 <RDMDeviceResponder::GetPersonalityCount(unsigned short)>
 80039f6:	b10e      	cbz	r6, 80039fc <RDMHandler::SetPersonality(bool, unsigned short)+0x2c>
 80039f8:	4286      	cmp	r6, r0
 80039fa:	d902      	bls.n	8003a02 <RDMHandler::SetPersonality(bool, unsigned short)+0x32>
 80039fc:	2106      	movs	r1, #6
 80039fe:	4620      	mov	r0, r4
 8003a00:	e7ee      	b.n	80039e0 <RDMHandler::SetPersonality(bool, unsigned short)+0x10>
 8003a02:	4632      	mov	r2, r6
 8003a04:	4638      	mov	r0, r7
 8003a06:	4629      	mov	r1, r5
 8003a08:	f7ff fb72 	bl	80030f0 <RDMDeviceResponder::SetPersonalityCurrent(unsigned short, unsigned char)>
 8003a0c:	68a3      	ldr	r3, [r4, #8]
 8003a0e:	2200      	movs	r2, #0
 8003a10:	75da      	strb	r2, [r3, #23]
 8003a12:	4620      	mov	r0, r4
 8003a14:	e8bd 40f8 	ldmia.w	sp!, {r3, r4, r5, r6, r7, lr}
 8003a18:	f7ff bc80 	b.w	800331c <RDMHandler::RespondMessageAck()>
 8003a1c:	20001088 	andcs	r1, r0, r8, lsl #1

08003a20 <RDMHandler::GetPersonalityDescription(unsigned short)>:
 8003a20:	e92d 43f8 	stmdb	sp!, {r3, r4, r5, r6, r7, r8, r9, lr}
 8003a24:	6843      	ldr	r3, [r0, #4]
 8003a26:	7dde      	ldrb	r6, [r3, #23]
 8003a28:	4b1c      	ldr	r3, [pc, #112]	; (8003a9c <RDMHandler::GetPersonalityDescription(unsigned short)+0x7c>)
 8003a2a:	f8d3 8000 	ldr.w	r8, [r3]
 8003a2e:	4604      	mov	r4, r0
 8003a30:	4640      	mov	r0, r8
 8003a32:	460f      	mov	r7, r1
 8003a34:	f7ff fb50 	bl	80030d8 <RDMDeviceResponder::GetPersonalityCount(unsigned short)>
 8003a38:	b10e      	cbz	r6, 8003a3e <RDMHandler::GetPersonalityDescription(unsigned short)+0x1e>
 8003a3a:	4286      	cmp	r6, r0
 8003a3c:	d905      	bls.n	8003a4a <RDMHandler::GetPersonalityDescription(unsigned short)+0x2a>
 8003a3e:	4620      	mov	r0, r4
 8003a40:	2106      	movs	r1, #6
 8003a42:	e8bd 43f8 	ldmia.w	sp!, {r3, r4, r5, r6, r7, r8, r9, lr}
 8003a46:	f7ff bed5 	b.w	80037f4 <RDMHandler::RespondMessageNack(unsigned short)>
 8003a4a:	4632      	mov	r2, r6
 8003a4c:	4639      	mov	r1, r7
 8003a4e:	4640      	mov	r0, r8
 8003a50:	f7ff fb34 	bl	80030bc <RDMDeviceResponder::GetPersonality(unsigned short, unsigned char)>
 8003a54:	8803      	ldrh	r3, [r0, #0]
 8003a56:	68a5      	ldr	r5, [r4, #8]
 8003a58:	0a1a      	lsrs	r2, r3, #8
 8003a5a:	766a      	strb	r2, [r5, #25]
 8003a5c:	76ab      	strb	r3, [r5, #26]
 8003a5e:	4632      	mov	r2, r6
 8003a60:	762e      	strb	r6, [r5, #24]
 8003a62:	4639      	mov	r1, r7
 8003a64:	4640      	mov	r0, r8
 8003a66:	f7ff fb29 	bl	80030bc <RDMDeviceResponder::GetPersonality(unsigned short, unsigned char)>
 8003a6a:	f105 091b 	add.w	r9, r5, #27
 8003a6e:	1dc2      	adds	r2, r0, #7
 8003a70:	2300      	movs	r3, #0
 8003a72:	6a81      	ldr	r1, [r0, #40]	; 0x28
 8003a74:	428b      	cmp	r3, r1
 8003a76:	d30c      	bcc.n	8003a92 <RDMHandler::GetPersonalityDescription(unsigned short)+0x72>
 8003a78:	b2db      	uxtb	r3, r3
 8003a7a:	3303      	adds	r3, #3
 8003a7c:	75eb      	strb	r3, [r5, #23]
 8003a7e:	4620      	mov	r0, r4
 8003a80:	e8bd 43f8 	ldmia.w	sp!, {r3, r4, r5, r6, r7, r8, r9, lr}
 8003a84:	f7ff bc4a 	b.w	800331c <RDMHandler::RespondMessageAck()>
 8003a88:	f812 1f01 	ldrb.w	r1, [r2, #1]!
 8003a8c:	f809 1b01 	strb.w	r1, [r9], #1
 8003a90:	e7ef      	b.n	8003a72 <RDMHandler::GetPersonalityDescription(unsigned short)+0x52>
 8003a92:	3301      	adds	r3, #1
 8003a94:	2b21      	cmp	r3, #33	; 0x21
 8003a96:	d1f7      	bne.n	8003a88 <RDMHandler::GetPersonalityDescription(unsigned short)+0x68>
 8003a98:	2320      	movs	r3, #32
 8003a9a:	e7ee      	b.n	8003a7a <RDMHandler::GetPersonalityDescription(unsigned short)+0x5a>
 8003a9c:	20001088 	andcs	r1, r0, r8, lsl #1

08003aa0 <RDMHandler::SetDmxStartAddress(bool, unsigned short)>:
 8003aa0:	b538      	push	{r3, r4, r5, lr}
 8003aa2:	6843      	ldr	r3, [r0, #4]
 8003aa4:	460d      	mov	r5, r1
 8003aa6:	4611      	mov	r1, r2
 8003aa8:	7d9a      	ldrb	r2, [r3, #22]
 8003aaa:	2a02      	cmp	r2, #2
 8003aac:	4604      	mov	r4, r0
 8003aae:	d004      	beq.n	8003aba <RDMHandler::SetDmxStartAddress(bool, unsigned short)+0x1a>
 8003ab0:	2101      	movs	r1, #1
 8003ab2:	e8bd 4038 	ldmia.w	sp!, {r3, r4, r5, lr}
 8003ab6:	f7ff be9d 	b.w	80037f4 <RDMHandler::RespondMessageNack(unsigned short)>
 8003aba:	f8b3 3017 	ldrh.w	r3, [r3, #23]
 8003abe:	ba5b      	rev16	r3, r3
 8003ac0:	b29a      	uxth	r2, r3
 8003ac2:	1e53      	subs	r3, r2, #1
 8003ac4:	f5b3 7f00 	cmp.w	r3, #512	; 0x200
 8003ac8:	d301      	bcc.n	8003ace <RDMHandler::SetDmxStartAddress(bool, unsigned short)+0x2e>
 8003aca:	2106      	movs	r1, #6
 8003acc:	e7f1      	b.n	8003ab2 <RDMHandler::SetDmxStartAddress(bool, unsigned short)+0x12>
 8003ace:	4b06      	ldr	r3, [pc, #24]	; (8003ae8 <RDMHandler::SetDmxStartAddress(bool, unsigned short)+0x48>)
 8003ad0:	6818      	ldr	r0, [r3, #0]
 8003ad2:	f7ff fac5 	bl	8003060 <RDMDeviceResponder::SetDmxStartAddress(unsigned short, unsigned short)>
 8003ad6:	b935      	cbnz	r5, 8003ae6 <RDMHandler::SetDmxStartAddress(bool, unsigned short)+0x46>
 8003ad8:	68a3      	ldr	r3, [r4, #8]
 8003ada:	75dd      	strb	r5, [r3, #23]
 8003adc:	4620      	mov	r0, r4
 8003ade:	e8bd 4038 	ldmia.w	sp!, {r3, r4, r5, lr}
 8003ae2:	f7ff bc1b 	b.w	800331c <RDMHandler::RespondMessageAck()>
 8003ae6:	bd38      	pop	{r3, r4, r5, pc}
 8003ae8:	20001088 	andcs	r1, r0, r8, lsl #1

08003aec <RDMHandler::GetSensorDefinition(unsigned short)>:
 8003aec:	b4f0      	push	{r4, r5, r6, r7}
 8003aee:	6843      	ldr	r3, [r0, #4]
 8003af0:	7dda      	ldrb	r2, [r3, #23]
 8003af2:	2aff      	cmp	r2, #255	; 0xff
 8003af4:	d004      	beq.n	8003b00 <RDMHandler::GetSensorDefinition(unsigned short)+0x14>
 8003af6:	4b23      	ldr	r3, [pc, #140]	; (8003b84 <RDMHandler::GetSensorDefinition(unsigned short)+0x98>)
 8003af8:	681b      	ldr	r3, [r3, #0]
 8003afa:	7919      	ldrb	r1, [r3, #4]
 8003afc:	4291      	cmp	r1, r2
 8003afe:	d803      	bhi.n	8003b08 <RDMHandler::GetSensorDefinition(unsigned short)+0x1c>
 8003b00:	bcf0      	pop	{r4, r5, r6, r7}
 8003b02:	2106      	movs	r1, #6
 8003b04:	f7ff be76 	b.w	80037f4 <RDMHandler::RespondMessageNack(unsigned short)>
 8003b08:	681b      	ldr	r3, [r3, #0]
 8003b0a:	f853 3022 	ldr.w	r3, [r3, r2, lsl #2]
 8003b0e:	7999      	ldrb	r1, [r3, #6]
 8003b10:	4291      	cmp	r1, r2
 8003b12:	d1f5      	bne.n	8003b00 <RDMHandler::GetSensorDefinition(unsigned short)+0x14>
 8003b14:	6882      	ldr	r2, [r0, #8]
 8003b16:	7611      	strb	r1, [r2, #24]
 8003b18:	79d9      	ldrb	r1, [r3, #7]
 8003b1a:	7651      	strb	r1, [r2, #25]
 8003b1c:	7a19      	ldrb	r1, [r3, #8]
 8003b1e:	7691      	strb	r1, [r2, #26]
 8003b20:	7a59      	ldrb	r1, [r3, #9]
 8003b22:	76d1      	strb	r1, [r2, #27]
 8003b24:	f993 100b 	ldrsb.w	r1, [r3, #11]
 8003b28:	7711      	strb	r1, [r2, #28]
 8003b2a:	8959      	ldrh	r1, [r3, #10]
 8003b2c:	7751      	strb	r1, [r2, #29]
 8003b2e:	f993 100d 	ldrsb.w	r1, [r3, #13]
 8003b32:	7791      	strb	r1, [r2, #30]
 8003b34:	8999      	ldrh	r1, [r3, #12]
 8003b36:	77d1      	strb	r1, [r2, #31]
 8003b38:	f993 100f 	ldrsb.w	r1, [r3, #15]
 8003b3c:	f882 1020 	strb.w	r1, [r2, #32]
 8003b40:	89d9      	ldrh	r1, [r3, #14]
 8003b42:	f882 1021 	strb.w	r1, [r2, #33]	; 0x21
 8003b46:	f993 1011 	ldrsb.w	r1, [r3, #17]
 8003b4a:	f882 1022 	strb.w	r1, [r2, #34]	; 0x22
 8003b4e:	8a19      	ldrh	r1, [r3, #16]
 8003b50:	f882 1023 	strb.w	r1, [r2, #35]	; 0x23
 8003b54:	4614      	mov	r4, r2
 8003b56:	f893 1033 	ldrb.w	r1, [r3, #51]	; 0x33
 8003b5a:	f804 1f24 	strb.w	r1, [r4, #36]!
 8003b5e:	f103 0511 	add.w	r5, r3, #17
 8003b62:	210d      	movs	r1, #13
 8003b64:	f893 7032 	ldrb.w	r7, [r3, #50]	; 0x32
 8003b68:	f1a1 060d 	sub.w	r6, r1, #13
 8003b6c:	42b7      	cmp	r7, r6
 8003b6e:	dc03      	bgt.n	8003b78 <RDMHandler::GetSensorDefinition(unsigned short)+0x8c>
 8003b70:	75d1      	strb	r1, [r2, #23]
 8003b72:	bcf0      	pop	{r4, r5, r6, r7}
 8003b74:	f7ff bbd2 	b.w	800331c <RDMHandler::RespondMessageAck()>
 8003b78:	f815 6f01 	ldrb.w	r6, [r5, #1]!
 8003b7c:	f804 6f01 	strb.w	r6, [r4, #1]!
 8003b80:	3101      	adds	r1, #1
 8003b82:	e7ef      	b.n	8003b64 <RDMHandler::GetSensorDefinition(unsigned short)+0x78>
 8003b84:	20001094 	mulcs	r0, r4, r0

08003b88 <RDMHandler::SetDeviceHours(bool, unsigned short)>:
 8003b88:	2104      	movs	r1, #4
 8003b8a:	f7ff be33 	b.w	80037f4 <RDMHandler::RespondMessageNack(unsigned short)>
	...

08003b90 <RDMHandler::SetDisplayInvert(bool, unsigned short)>:
 8003b90:	b538      	push	{r3, r4, r5, lr}
 8003b92:	6843      	ldr	r3, [r0, #4]
 8003b94:	7d9a      	ldrb	r2, [r3, #22]
 8003b96:	2a01      	cmp	r2, #1
 8003b98:	4604      	mov	r4, r0
 8003b9a:	d004      	beq.n	8003ba6 <RDMHandler::SetDisplayInvert(bool, unsigned short)+0x16>
 8003b9c:	e8bd 4038 	ldmia.w	sp!, {r3, r4, r5, lr}
 8003ba0:	2101      	movs	r1, #1
 8003ba2:	f7ff be27 	b.w	80037f4 <RDMHandler::RespondMessageNack(unsigned short)>
 8003ba6:	7ddd      	ldrb	r5, [r3, #23]
 8003ba8:	2d02      	cmp	r5, #2
 8003baa:	d102      	bne.n	8003bb2 <RDMHandler::SetDisplayInvert(bool, unsigned short)+0x22>
 8003bac:	2106      	movs	r1, #6
 8003bae:	f7ff fe21 	bl	80037f4 <RDMHandler::RespondMessageNack(unsigned short)>
 8003bb2:	4b09      	ldr	r3, [pc, #36]	; (8003bd8 <RDMHandler::SetDisplayInvert(bool, unsigned short)+0x48>)
 8003bb4:	681b      	ldr	r3, [r3, #0]
 8003bb6:	1e6a      	subs	r2, r5, #1
 8003bb8:	4251      	negs	r1, r2
 8003bba:	69d8      	ldr	r0, [r3, #28]
 8003bbc:	4151      	adcs	r1, r2
 8003bbe:	7659      	strb	r1, [r3, #25]
 8003bc0:	b110      	cbz	r0, 8003bc8 <RDMHandler::SetDisplayInvert(bool, unsigned short)+0x38>
 8003bc2:	6803      	ldr	r3, [r0, #0]
 8003bc4:	6b1b      	ldr	r3, [r3, #48]	; 0x30
 8003bc6:	4798      	blx	r3
 8003bc8:	68a3      	ldr	r3, [r4, #8]
 8003bca:	2200      	movs	r2, #0
 8003bcc:	75da      	strb	r2, [r3, #23]
 8003bce:	4620      	mov	r0, r4
 8003bd0:	e8bd 4038 	ldmia.w	sp!, {r3, r4, r5, lr}
 8003bd4:	f7ff bba2 	b.w	800331c <RDMHandler::RespondMessageAck()>
 8003bd8:	2000266c 	andcs	r2, r0, ip, ror #12

08003bdc <RDMHandler::SetDisplayLevel(bool, unsigned short)>:
 8003bdc:	b570      	push	{r4, r5, r6, lr}
 8003bde:	6843      	ldr	r3, [r0, #4]
 8003be0:	7d99      	ldrb	r1, [r3, #22]
 8003be2:	2901      	cmp	r1, #1
 8003be4:	4604      	mov	r4, r0
 8003be6:	d004      	beq.n	8003bf2 <RDMHandler::SetDisplayLevel(bool, unsigned short)+0x16>
 8003be8:	e8bd 4070 	ldmia.w	sp!, {r4, r5, r6, lr}
 8003bec:	2101      	movs	r1, #1
 8003bee:	f7ff be01 	b.w	80037f4 <RDMHandler::RespondMessageNack(unsigned short)>
 8003bf2:	4e0b      	ldr	r6, [pc, #44]	; (8003c20 <RDMHandler::SetDisplayLevel(bool, unsigned short)+0x44>)
 8003bf4:	7ddd      	ldrb	r5, [r3, #23]
 8003bf6:	6830      	ldr	r0, [r6, #0]
 8003bf8:	b105      	cbz	r5, 8003bfc <RDMHandler::SetDisplayLevel(bool, unsigned short)+0x20>
 8003bfa:	2100      	movs	r1, #0
 8003bfc:	f7fc ff56 	bl	8000aac <Display::SetSleep(bool)>
 8003c00:	6833      	ldr	r3, [r6, #0]
 8003c02:	69d8      	ldr	r0, [r3, #28]
 8003c04:	761d      	strb	r5, [r3, #24]
 8003c06:	b118      	cbz	r0, 8003c10 <RDMHandler::SetDisplayLevel(bool, unsigned short)+0x34>
 8003c08:	6803      	ldr	r3, [r0, #0]
 8003c0a:	4629      	mov	r1, r5
 8003c0c:	6adb      	ldr	r3, [r3, #44]	; 0x2c
 8003c0e:	4798      	blx	r3
 8003c10:	68a3      	ldr	r3, [r4, #8]
 8003c12:	2200      	movs	r2, #0
 8003c14:	75da      	strb	r2, [r3, #23]
 8003c16:	4620      	mov	r0, r4
 8003c18:	e8bd 4070 	ldmia.w	sp!, {r4, r5, r6, lr}
 8003c1c:	f7ff bb7e 	b.w	800331c <RDMHandler::RespondMessageAck()>
 8003c20:	2000266c 	andcs	r2, r0, ip, ror #12

08003c24 <RDMHandler::SetRealTimeClock(bool, unsigned short)>:
 8003c24:	b530      	push	{r4, r5, lr}
 8003c26:	6843      	ldr	r3, [r0, #4]
 8003c28:	7d9a      	ldrb	r2, [r3, #22]
 8003c2a:	2a07      	cmp	r2, #7
 8003c2c:	b08b      	sub	sp, #44	; 0x2c
 8003c2e:	4604      	mov	r4, r0
 8003c30:	460d      	mov	r5, r1
 8003c32:	d005      	beq.n	8003c40 <RDMHandler::SetRealTimeClock(bool, unsigned short)+0x1c>
 8003c34:	2101      	movs	r1, #1
 8003c36:	b00b      	add	sp, #44	; 0x2c
 8003c38:	e8bd 4030 	ldmia.w	sp!, {r4, r5, lr}
 8003c3c:	f7ff bdda 	b.w	80037f4 <RDMHandler::RespondMessageNack(unsigned short)>
 8003c40:	f8b3 2017 	ldrh.w	r2, [r3, #23]
 8003c44:	ba52      	rev16	r2, r2
 8003c46:	b292      	uxth	r2, r2
 8003c48:	f2a2 726c 	subw	r2, r2, #1900	; 0x76c
 8003c4c:	9206      	str	r2, [sp, #24]
 8003c4e:	7e5a      	ldrb	r2, [r3, #25]
 8003c50:	3a01      	subs	r2, #1
 8003c52:	9205      	str	r2, [sp, #20]
 8003c54:	7e9a      	ldrb	r2, [r3, #26]
 8003c56:	9204      	str	r2, [sp, #16]
 8003c58:	7eda      	ldrb	r2, [r3, #27]
 8003c5a:	9203      	str	r2, [sp, #12]
 8003c5c:	7f1a      	ldrb	r2, [r3, #28]
 8003c5e:	7f5b      	ldrb	r3, [r3, #29]
 8003c60:	9202      	str	r2, [sp, #8]
 8003c62:	9301      	str	r3, [sp, #4]
 8003c64:	b949      	cbnz	r1, 8003c7a <RDMHandler::SetRealTimeClock(bool, unsigned short)+0x56>
 8003c66:	4b06      	ldr	r3, [pc, #24]	; (8003c80 <RDMHandler::SetRealTimeClock(bool, unsigned short)+0x5c>)
 8003c68:	a901      	add	r1, sp, #4
 8003c6a:	6818      	ldr	r0, [r3, #0]
 8003c6c:	f004 f9bc 	bl	8007fe8 <HwClock::Set(tm const*)>
 8003c70:	68a3      	ldr	r3, [r4, #8]
 8003c72:	4620      	mov	r0, r4
 8003c74:	75dd      	strb	r5, [r3, #23]
 8003c76:	f7ff fb51 	bl	800331c <RDMHandler::RespondMessageAck()>
 8003c7a:	b00b      	add	sp, #44	; 0x2c
 8003c7c:	bd30      	pop	{r4, r5, pc}
 8003c7e:	bf00      	nop
 8003c80:	20002758 	andcs	r2, r0, r8, asr r7

08003c84 <RDMHandler::SetPowerState(bool, unsigned short)>:
 8003c84:	6842      	ldr	r2, [r0, #4]
 8003c86:	7d91      	ldrb	r1, [r2, #22]
 8003c88:	2901      	cmp	r1, #1
 8003c8a:	d002      	beq.n	8003c92 <RDMHandler::SetPowerState(bool, unsigned short)+0xe>
 8003c8c:	2101      	movs	r1, #1
 8003c8e:	f7ff bdb1 	b.w	80037f4 <RDMHandler::RespondMessageNack(unsigned short)>
 8003c92:	7dd1      	ldrb	r1, [r2, #23]
 8003c94:	1eca      	subs	r2, r1, #3
 8003c96:	b2d2      	uxtb	r2, r2
 8003c98:	2afb      	cmp	r2, #251	; 0xfb
 8003c9a:	d801      	bhi.n	8003ca0 <RDMHandler::SetPowerState(bool, unsigned short)+0x1c>
 8003c9c:	2106      	movs	r1, #6
 8003c9e:	e7f6      	b.n	8003c8e <RDMHandler::SetPowerState(bool, unsigned short)+0xa>
 8003ca0:	29ff      	cmp	r1, #255	; 0xff
 8003ca2:	6883      	ldr	r3, [r0, #8]
 8003ca4:	d103      	bne.n	8003cae <RDMHandler::SetPowerState(bool, unsigned short)+0x2a>
 8003ca6:	2200      	movs	r2, #0
 8003ca8:	75da      	strb	r2, [r3, #23]
 8003caa:	f7ff bb37 	b.w	800331c <RDMHandler::RespondMessageAck()>
 8003cae:	2104      	movs	r1, #4
 8003cb0:	e7ed      	b.n	8003c8e <RDMHandler::SetPowerState(bool, unsigned short)+0xa>

08003cb2 <RDMHandler::GetSelfTestDescription(unsigned short)>:
 8003cb2:	b537      	push	{r0, r1, r2, r4, r5, lr}
 8003cb4:	6845      	ldr	r5, [r0, #4]
 8003cb6:	4604      	mov	r4, r0
 8003cb8:	a901      	add	r1, sp, #4
 8003cba:	7de8      	ldrb	r0, [r5, #23]
 8003cbc:	f7fd fba2 	bl	8001404 <rdm::selftest::GetDescription(unsigned char, unsigned long&)>
 8003cc0:	4603      	mov	r3, r0
 8003cc2:	b928      	cbnz	r0, 8003cd0 <RDMHandler::GetSelfTestDescription(unsigned short)+0x1e>
 8003cc4:	2106      	movs	r1, #6
 8003cc6:	4620      	mov	r0, r4
 8003cc8:	f7ff fd94 	bl	80037f4 <RDMHandler::RespondMessageNack(unsigned short)>
 8003ccc:	b003      	add	sp, #12
 8003cce:	bd30      	pop	{r4, r5, pc}
 8003cd0:	9a01      	ldr	r2, [sp, #4]
 8003cd2:	2a20      	cmp	r2, #32
 8003cd4:	bf84      	itt	hi
 8003cd6:	2220      	movhi	r2, #32
 8003cd8:	9201      	strhi	r2, [sp, #4]
 8003cda:	9901      	ldr	r1, [sp, #4]
 8003cdc:	68a2      	ldr	r2, [r4, #8]
 8003cde:	1c48      	adds	r0, r1, #1
 8003ce0:	75d0      	strb	r0, [r2, #23]
 8003ce2:	7de8      	ldrb	r0, [r5, #23]
 8003ce4:	f802 0f18 	strb.w	r0, [r2, #24]!
 8003ce8:	4419      	add	r1, r3
 8003cea:	428b      	cmp	r3, r1
 8003cec:	d103      	bne.n	8003cf6 <RDMHandler::GetSelfTestDescription(unsigned short)+0x44>
 8003cee:	4620      	mov	r0, r4
 8003cf0:	f7ff fb14 	bl	800331c <RDMHandler::RespondMessageAck()>
 8003cf4:	e7ea      	b.n	8003ccc <RDMHandler::GetSelfTestDescription(unsigned short)+0x1a>
 8003cf6:	f813 0b01 	ldrb.w	r0, [r3], #1
 8003cfa:	f802 0f01 	strb.w	r0, [r2, #1]!
 8003cfe:	e7f4      	b.n	8003cea <RDMHandler::GetSelfTestDescription(unsigned short)+0x38>

08003d00 <RDMHandler::GetSlotDescription(unsigned short)>:
 8003d00:	b573      	push	{r0, r1, r4, r5, r6, lr}
 8003d02:	4b1b      	ldr	r3, [pc, #108]	; (8003d70 <RDMHandler::GetSlotDescription(unsigned short)+0x70>)
 8003d04:	6846      	ldr	r6, [r0, #4]
 8003d06:	4604      	mov	r4, r0
 8003d08:	f8b6 5017 	ldrh.w	r5, [r6, #23]
 8003d0c:	6818      	ldr	r0, [r3, #0]
 8003d0e:	b931      	cbnz	r1, 8003d1e <RDMHandler::GetSlotDescription(unsigned short)+0x1e>
 8003d10:	ba6d      	rev16	r5, r5
 8003d12:	b2ad      	uxth	r5, r5
 8003d14:	466a      	mov	r2, sp
 8003d16:	4629      	mov	r1, r5
 8003d18:	f7ff f910 	bl	8002f3c <RDMDeviceResponder::GetSlotInfo(unsigned short, unsigned short, lightset::SlotInfo&) [clone .part.0]>
 8003d1c:	b928      	cbnz	r0, 8003d2a <RDMHandler::GetSlotDescription(unsigned short)+0x2a>
 8003d1e:	2106      	movs	r1, #6
 8003d20:	4620      	mov	r0, r4
 8003d22:	f7ff fd67 	bl	80037f4 <RDMHandler::RespondMessageNack(unsigned short)>
 8003d26:	b002      	add	sp, #8
 8003d28:	bd70      	pop	{r4, r5, r6, pc}
 8003d2a:	f8bd 1000 	ldrh.w	r1, [sp]
 8003d2e:	aa01      	add	r2, sp, #4
 8003d30:	4628      	mov	r0, r5
 8003d32:	f000 fb3d 	bl	80043b0 <RDMSlotInfo::GetCategoryText(unsigned short, unsigned short, unsigned long&)>
 8003d36:	4603      	mov	r3, r0
 8003d38:	2800      	cmp	r0, #0
 8003d3a:	d0f0      	beq.n	8003d1e <RDMHandler::GetSlotDescription(unsigned short)+0x1e>
 8003d3c:	9a01      	ldr	r2, [sp, #4]
 8003d3e:	2a20      	cmp	r2, #32
 8003d40:	bf84      	itt	hi
 8003d42:	2220      	movhi	r2, #32
 8003d44:	9201      	strhi	r2, [sp, #4]
 8003d46:	9901      	ldr	r1, [sp, #4]
 8003d48:	68a2      	ldr	r2, [r4, #8]
 8003d4a:	1c88      	adds	r0, r1, #2
 8003d4c:	75d0      	strb	r0, [r2, #23]
 8003d4e:	7df0      	ldrb	r0, [r6, #23]
 8003d50:	7610      	strb	r0, [r2, #24]
 8003d52:	7e30      	ldrb	r0, [r6, #24]
 8003d54:	f802 0f19 	strb.w	r0, [r2, #25]!
 8003d58:	4419      	add	r1, r3
 8003d5a:	428b      	cmp	r3, r1
 8003d5c:	d103      	bne.n	8003d66 <RDMHandler::GetSlotDescription(unsigned short)+0x66>
 8003d5e:	4620      	mov	r0, r4
 8003d60:	f7ff fadc 	bl	800331c <RDMHandler::RespondMessageAck()>
 8003d64:	e7df      	b.n	8003d26 <RDMHandler::GetSlotDescription(unsigned short)+0x26>
 8003d66:	f813 0b01 	ldrb.w	r0, [r3], #1
 8003d6a:	f802 0f01 	strb.w	r0, [r2, #1]!
 8003d6e:	e7f4      	b.n	8003d5a <RDMHandler::GetSlotDescription(unsigned short)+0x5a>
 8003d70:	20001088 	andcs	r1, r0, r8, lsl #1

08003d74 <RDMHandler::SetFactoryDefaults(bool, unsigned short)>:
 8003d74:	b538      	push	{r3, r4, r5, lr}
 8003d76:	6843      	ldr	r3, [r0, #4]
 8003d78:	7d9b      	ldrb	r3, [r3, #22]
 8003d7a:	4604      	mov	r4, r0
 8003d7c:	460d      	mov	r5, r1
 8003d7e:	b123      	cbz	r3, 8003d8a <RDMHandler::SetFactoryDefaults(bool, unsigned short)+0x16>
 8003d80:	e8bd 4038 	ldmia.w	sp!, {r3, r4, r5, lr}
 8003d84:	2101      	movs	r1, #1
 8003d86:	f7ff bd35 	b.w	80037f4 <RDMHandler::RespondMessageNack(unsigned short)>
 8003d8a:	4b06      	ldr	r3, [pc, #24]	; (8003da4 <RDMHandler::SetFactoryDefaults(bool, unsigned short)+0x30>)
 8003d8c:	6818      	ldr	r0, [r3, #0]
 8003d8e:	f7ff f9e4 	bl	800315a <RDMDeviceResponder::SetFactoryDefaults()>
 8003d92:	b935      	cbnz	r5, 8003da2 <RDMHandler::SetFactoryDefaults(bool, unsigned short)+0x2e>
 8003d94:	68a3      	ldr	r3, [r4, #8]
 8003d96:	75dd      	strb	r5, [r3, #23]
 8003d98:	4620      	mov	r0, r4
 8003d9a:	e8bd 4038 	ldmia.w	sp!, {r3, r4, r5, lr}
 8003d9e:	f7ff babd 	b.w	800331c <RDMHandler::RespondMessageAck()>
 8003da2:	bd38      	pop	{r3, r4, r5, pc}
 8003da4:	20001088 	andcs	r1, r0, r8, lsl #1

08003da8 <RDMHandler::SetDeviceLabel(bool, unsigned short)>:
 8003da8:	b5f7      	push	{r0, r1, r2, r4, r5, r6, r7, lr}
 8003daa:	6843      	ldr	r3, [r0, #4]
 8003dac:	460d      	mov	r5, r1
 8003dae:	7d99      	ldrb	r1, [r3, #22]
 8003db0:	2920      	cmp	r1, #32
 8003db2:	4604      	mov	r4, r0
 8003db4:	d905      	bls.n	8003dc2 <RDMHandler::SetDeviceLabel(bool, unsigned short)+0x1a>
 8003db6:	2101      	movs	r1, #1
 8003db8:	b003      	add	sp, #12
 8003dba:	e8bd 40f0 	ldmia.w	sp!, {r4, r5, r6, r7, lr}
 8003dbe:	f7ff bd19 	b.w	80037f4 <RDMHandler::RespondMessageNack(unsigned short)>
 8003dc2:	4817      	ldr	r0, [pc, #92]	; (8003e20 <RDMHandler::SetDeviceLabel(bool, unsigned short)+0x78>)
 8003dc4:	6800      	ldr	r0, [r0, #0]
 8003dc6:	b302      	cbz	r2, 8003e0a <RDMHandler::SetDeviceLabel(bool, unsigned short)+0x62>
 8003dc8:	f102 4280 	add.w	r2, r2, #1073741824	; 0x40000000
 8003dcc:	6e00      	ldr	r0, [r0, #96]	; 0x60
 8003dce:	3a01      	subs	r2, #1
 8003dd0:	f850 0022 	ldr.w	r0, [r0, r2, lsl #2]
 8003dd4:	b1b9      	cbz	r1, 8003e06 <RDMHandler::SetDeviceLabel(bool, unsigned short)+0x5e>
 8003dd6:	3316      	adds	r3, #22
 8003dd8:	f100 0615 	add.w	r6, r0, #21
 8003ddc:	2200      	movs	r2, #0
 8003dde:	3201      	adds	r2, #1
 8003de0:	f813 7f01 	ldrb.w	r7, [r3, #1]!
 8003de4:	f806 7f01 	strb.w	r7, [r6, #1]!
 8003de8:	2a20      	cmp	r2, #32
 8003dea:	d001      	beq.n	8003df0 <RDMHandler::SetDeviceLabel(bool, unsigned short)+0x48>
 8003dec:	428a      	cmp	r2, r1
 8003dee:	d3f6      	bcc.n	8003dde <RDMHandler::SetDeviceLabel(bool, unsigned short)+0x36>
 8003df0:	f880 2036 	strb.w	r2, [r0, #54]	; 0x36
 8003df4:	b995      	cbnz	r5, 8003e1c <RDMHandler::SetDeviceLabel(bool, unsigned short)+0x74>
 8003df6:	68a3      	ldr	r3, [r4, #8]
 8003df8:	4620      	mov	r0, r4
 8003dfa:	75dd      	strb	r5, [r3, #23]
 8003dfc:	b003      	add	sp, #12
 8003dfe:	e8bd 40f0 	ldmia.w	sp!, {r4, r5, r6, r7, lr}
 8003e02:	f7ff ba8b 	b.w	800331c <RDMHandler::RespondMessageAck()>
 8003e06:	460a      	mov	r2, r1
 8003e08:	e7f2      	b.n	8003df0 <RDMHandler::SetDeviceLabel(bool, unsigned short)+0x48>
 8003e0a:	3317      	adds	r3, #23
 8003e0c:	f88d 1004 	strb.w	r1, [sp, #4]
 8003e10:	3004      	adds	r0, #4
 8003e12:	4669      	mov	r1, sp
 8003e14:	9300      	str	r3, [sp, #0]
 8003e16:	f7ff f8cd 	bl	8002fb4 <RDMDevice::SetLabel(TRDMDeviceInfoData const*)>
 8003e1a:	e7eb      	b.n	8003df4 <RDMHandler::SetDeviceLabel(bool, unsigned short)+0x4c>
 8003e1c:	b003      	add	sp, #12
 8003e1e:	bdf0      	pop	{r4, r5, r6, r7, pc}
 8003e20:	20001088 	andcs	r1, r0, r8, lsl #1

08003e24 <RDMHandler::GetSensorValue(unsigned short)>:
 8003e24:	b570      	push	{r4, r5, r6, lr}
 8003e26:	6843      	ldr	r3, [r0, #4]
 8003e28:	7d9a      	ldrb	r2, [r3, #22]
 8003e2a:	2a01      	cmp	r2, #1
 8003e2c:	4605      	mov	r5, r0
 8003e2e:	d004      	beq.n	8003e3a <RDMHandler::GetSensorValue(unsigned short)+0x16>
 8003e30:	2101      	movs	r1, #1
 8003e32:	e8bd 4070 	ldmia.w	sp!, {r4, r5, r6, lr}
 8003e36:	f7ff bcdd 	b.w	80037f4 <RDMHandler::RespondMessageNack(unsigned short)>
 8003e3a:	7dde      	ldrb	r6, [r3, #23]
 8003e3c:	2eff      	cmp	r6, #255	; 0xff
 8003e3e:	d004      	beq.n	8003e4a <RDMHandler::GetSensorValue(unsigned short)+0x26>
 8003e40:	4b17      	ldr	r3, [pc, #92]	; (8003ea0 <RDMHandler::GetSensorValue(unsigned short)+0x7c>)
 8003e42:	681b      	ldr	r3, [r3, #0]
 8003e44:	791a      	ldrb	r2, [r3, #4]
 8003e46:	42b2      	cmp	r2, r6
 8003e48:	d802      	bhi.n	8003e50 <RDMHandler::GetSensorValue(unsigned short)+0x2c>
 8003e4a:	2106      	movs	r1, #6
 8003e4c:	4628      	mov	r0, r5
 8003e4e:	e7f0      	b.n	8003e32 <RDMHandler::GetSensorValue(unsigned short)+0xe>
 8003e50:	6884      	ldr	r4, [r0, #8]
 8003e52:	6818      	ldr	r0, [r3, #0]
 8003e54:	4631      	mov	r1, r6
 8003e56:	f7ff f87d 	bl	8002f54 <RDMSensors::GetValues(unsigned char) [clone .isra.0]>
 8003e5a:	7a03      	ldrb	r3, [r0, #8]
 8003e5c:	42b3      	cmp	r3, r6
 8003e5e:	d1f4      	bne.n	8003e4a <RDMHandler::GetSensorValue(unsigned short)+0x26>
 8003e60:	2309      	movs	r3, #9
 8003e62:	75e3      	strb	r3, [r4, #23]
 8003e64:	2321      	movs	r3, #33	; 0x21
 8003e66:	70a3      	strb	r3, [r4, #2]
 8003e68:	7a03      	ldrb	r3, [r0, #8]
 8003e6a:	7623      	strb	r3, [r4, #24]
 8003e6c:	f990 3001 	ldrsb.w	r3, [r0, #1]
 8003e70:	7663      	strb	r3, [r4, #25]
 8003e72:	8803      	ldrh	r3, [r0, #0]
 8003e74:	76a3      	strb	r3, [r4, #26]
 8003e76:	f990 3003 	ldrsb.w	r3, [r0, #3]
 8003e7a:	76e3      	strb	r3, [r4, #27]
 8003e7c:	8843      	ldrh	r3, [r0, #2]
 8003e7e:	7723      	strb	r3, [r4, #28]
 8003e80:	f990 3005 	ldrsb.w	r3, [r0, #5]
 8003e84:	7763      	strb	r3, [r4, #29]
 8003e86:	8883      	ldrh	r3, [r0, #4]
 8003e88:	77a3      	strb	r3, [r4, #30]
 8003e8a:	f990 3007 	ldrsb.w	r3, [r0, #7]
 8003e8e:	77e3      	strb	r3, [r4, #31]
 8003e90:	88c3      	ldrh	r3, [r0, #6]
 8003e92:	f884 3020 	strb.w	r3, [r4, #32]
 8003e96:	4628      	mov	r0, r5
 8003e98:	e8bd 4070 	ldmia.w	sp!, {r4, r5, r6, lr}
 8003e9c:	f7ff ba3e 	b.w	800331c <RDMHandler::RespondMessageAck()>
 8003ea0:	20001094 	mulcs	r0, r4, r0

08003ea4 <RDMHandler::SetSensorValue(bool, unsigned short)>:
 8003ea4:	e92d 41f0 	stmdb	sp!, {r4, r5, r6, r7, r8, lr}
 8003ea8:	6843      	ldr	r3, [r0, #4]
 8003eaa:	7d9a      	ldrb	r2, [r3, #22]
 8003eac:	2a01      	cmp	r2, #1
 8003eae:	4605      	mov	r5, r0
 8003eb0:	460c      	mov	r4, r1
 8003eb2:	d004      	beq.n	8003ebe <RDMHandler::SetSensorValue(bool, unsigned short)+0x1a>
 8003eb4:	2101      	movs	r1, #1
 8003eb6:	e8bd 41f0 	ldmia.w	sp!, {r4, r5, r6, r7, r8, lr}
 8003eba:	f7ff bc9b 	b.w	80037f4 <RDMHandler::RespondMessageNack(unsigned short)>
 8003ebe:	f8df 80b0 	ldr.w	r8, [pc, #176]	; 8003f70 <RDMHandler::SetSensorValue(bool, unsigned short)+0xcc>
 8003ec2:	7dde      	ldrb	r6, [r3, #23]
 8003ec4:	f8d8 7000 	ldr.w	r7, [r8]
 8003ec8:	2eff      	cmp	r6, #255	; 0xff
 8003eca:	793b      	ldrb	r3, [r7, #4]
 8003ecc:	d026      	beq.n	8003f1c <RDMHandler::SetSensorValue(bool, unsigned short)+0x78>
 8003ece:	429e      	cmp	r6, r3
 8003ed0:	d301      	bcc.n	8003ed6 <RDMHandler::SetSensorValue(bool, unsigned short)+0x32>
 8003ed2:	2106      	movs	r1, #6
 8003ed4:	e7ef      	b.n	8003eb6 <RDMHandler::SetSensorValue(bool, unsigned short)+0x12>
 8003ed6:	683b      	ldr	r3, [r7, #0]
 8003ed8:	f853 0026 	ldr.w	r0, [r3, r6, lsl #2]
 8003edc:	f7ff f8a2 	bl	8003024 <RDMSensor::SetValues()>
 8003ee0:	b1f4      	cbz	r4, 8003f20 <RDMHandler::SetSensorValue(bool, unsigned short)+0x7c>
 8003ee2:	e8bd 81f0 	ldmia.w	sp!, {r4, r5, r6, r7, r8, pc}
 8003ee6:	683b      	ldr	r3, [r7, #0]
 8003ee8:	f853 0026 	ldr.w	r0, [r3, r6, lsl #2]
 8003eec:	f7ff f89a 	bl	8003024 <RDMSensor::SetValues()>
 8003ef0:	3601      	adds	r6, #1
 8003ef2:	793b      	ldrb	r3, [r7, #4]
 8003ef4:	429e      	cmp	r6, r3
 8003ef6:	d3f6      	bcc.n	8003ee6 <RDMHandler::SetSensorValue(bool, unsigned short)+0x42>
 8003ef8:	2c00      	cmp	r4, #0
 8003efa:	d1f2      	bne.n	8003ee2 <RDMHandler::SetSensorValue(bool, unsigned short)+0x3e>
 8003efc:	68ab      	ldr	r3, [r5, #8]
 8003efe:	2209      	movs	r2, #9
 8003f00:	75da      	strb	r2, [r3, #23]
 8003f02:	2221      	movs	r2, #33	; 0x21
 8003f04:	709a      	strb	r2, [r3, #2]
 8003f06:	761c      	strb	r4, [r3, #24]
 8003f08:	765c      	strb	r4, [r3, #25]
 8003f0a:	769c      	strb	r4, [r3, #26]
 8003f0c:	76dc      	strb	r4, [r3, #27]
 8003f0e:	771c      	strb	r4, [r3, #28]
 8003f10:	775c      	strb	r4, [r3, #29]
 8003f12:	779c      	strb	r4, [r3, #30]
 8003f14:	77dc      	strb	r4, [r3, #31]
 8003f16:	f883 4020 	strb.w	r4, [r3, #32]
 8003f1a:	e023      	b.n	8003f64 <RDMHandler::SetSensorValue(bool, unsigned short)+0xc0>
 8003f1c:	2600      	movs	r6, #0
 8003f1e:	e7e8      	b.n	8003ef2 <RDMHandler::SetSensorValue(bool, unsigned short)+0x4e>
 8003f20:	f8d8 3000 	ldr.w	r3, [r8]
 8003f24:	68ac      	ldr	r4, [r5, #8]
 8003f26:	6818      	ldr	r0, [r3, #0]
 8003f28:	4631      	mov	r1, r6
 8003f2a:	f7ff f813 	bl	8002f54 <RDMSensors::GetValues(unsigned char) [clone .isra.0]>
 8003f2e:	2309      	movs	r3, #9
 8003f30:	75e3      	strb	r3, [r4, #23]
 8003f32:	2321      	movs	r3, #33	; 0x21
 8003f34:	70a3      	strb	r3, [r4, #2]
 8003f36:	7a03      	ldrb	r3, [r0, #8]
 8003f38:	7623      	strb	r3, [r4, #24]
 8003f3a:	f990 3001 	ldrsb.w	r3, [r0, #1]
 8003f3e:	7663      	strb	r3, [r4, #25]
 8003f40:	8803      	ldrh	r3, [r0, #0]
 8003f42:	76a3      	strb	r3, [r4, #26]
 8003f44:	f990 3003 	ldrsb.w	r3, [r0, #3]
 8003f48:	76e3      	strb	r3, [r4, #27]
 8003f4a:	8843      	ldrh	r3, [r0, #2]
 8003f4c:	7723      	strb	r3, [r4, #28]
 8003f4e:	f990 3005 	ldrsb.w	r3, [r0, #5]
 8003f52:	7763      	strb	r3, [r4, #29]
 8003f54:	8883      	ldrh	r3, [r0, #4]
 8003f56:	77a3      	strb	r3, [r4, #30]
 8003f58:	f990 3007 	ldrsb.w	r3, [r0, #7]
 8003f5c:	77e3      	strb	r3, [r4, #31]
 8003f5e:	88c3      	ldrh	r3, [r0, #6]
 8003f60:	f884 3020 	strb.w	r3, [r4, #32]
 8003f64:	4628      	mov	r0, r5
 8003f66:	e8bd 41f0 	ldmia.w	sp!, {r4, r5, r6, r7, r8, lr}
 8003f6a:	f7ff b9d7 	b.w	800331c <RDMHandler::RespondMessageAck()>
 8003f6e:	bf00      	nop
 8003f70:	20001094 	mulcs	r0, r4, r0

08003f74 <RDMHandler::SetRecordSensors(bool, unsigned short)>:
 8003f74:	b5f8      	push	{r3, r4, r5, r6, r7, lr}
 8003f76:	6843      	ldr	r3, [r0, #4]
 8003f78:	7d9a      	ldrb	r2, [r3, #22]
 8003f7a:	2a01      	cmp	r2, #1
 8003f7c:	4604      	mov	r4, r0
 8003f7e:	460d      	mov	r5, r1
 8003f80:	d004      	beq.n	8003f8c <RDMHandler::SetRecordSensors(bool, unsigned short)+0x18>
 8003f82:	2101      	movs	r1, #1
 8003f84:	e8bd 40f8 	ldmia.w	sp!, {r3, r4, r5, r6, r7, lr}
 8003f88:	f7ff bc34 	b.w	80037f4 <RDMHandler::RespondMessageNack(unsigned short)>
 8003f8c:	4a12      	ldr	r2, [pc, #72]	; (8003fd8 <RDMHandler::SetRecordSensors(bool, unsigned short)+0x64>)
 8003f8e:	7ddb      	ldrb	r3, [r3, #23]
 8003f90:	6817      	ldr	r7, [r2, #0]
 8003f92:	2bff      	cmp	r3, #255	; 0xff
 8003f94:	793a      	ldrb	r2, [r7, #4]
 8003f96:	d103      	bne.n	8003fa0 <RDMHandler::SetRecordSensors(bool, unsigned short)+0x2c>
 8003f98:	b9da      	cbnz	r2, 8003fd2 <RDMHandler::SetRecordSensors(bool, unsigned short)+0x5e>
 8003f9a:	2106      	movs	r1, #6
 8003f9c:	4620      	mov	r0, r4
 8003f9e:	e7f1      	b.n	8003f84 <RDMHandler::SetRecordSensors(bool, unsigned short)+0x10>
 8003fa0:	4293      	cmp	r3, r2
 8003fa2:	d2fa      	bcs.n	8003f9a <RDMHandler::SetRecordSensors(bool, unsigned short)+0x26>
 8003fa4:	683a      	ldr	r2, [r7, #0]
 8003fa6:	f852 0023 	ldr.w	r0, [r2, r3, lsl #2]
 8003faa:	f7ff f845 	bl	8003038 <RDMSensor::Record()>
 8003fae:	b995      	cbnz	r5, 8003fd6 <RDMHandler::SetRecordSensors(bool, unsigned short)+0x62>
 8003fb0:	68a3      	ldr	r3, [r4, #8]
 8003fb2:	75dd      	strb	r5, [r3, #23]
 8003fb4:	4620      	mov	r0, r4
 8003fb6:	e8bd 40f8 	ldmia.w	sp!, {r3, r4, r5, r6, r7, lr}
 8003fba:	f7ff b9af 	b.w	800331c <RDMHandler::RespondMessageAck()>
 8003fbe:	683b      	ldr	r3, [r7, #0]
 8003fc0:	f853 0026 	ldr.w	r0, [r3, r6, lsl #2]
 8003fc4:	f7ff f838 	bl	8003038 <RDMSensor::Record()>
 8003fc8:	3601      	adds	r6, #1
 8003fca:	793b      	ldrb	r3, [r7, #4]
 8003fcc:	429e      	cmp	r6, r3
 8003fce:	d3f6      	bcc.n	8003fbe <RDMHandler::SetRecordSensors(bool, unsigned short)+0x4a>
 8003fd0:	e7ed      	b.n	8003fae <RDMHandler::SetRecordSensors(bool, unsigned short)+0x3a>
 8003fd2:	2600      	movs	r6, #0
 8003fd4:	e7f9      	b.n	8003fca <RDMHandler::SetRecordSensors(bool, unsigned short)+0x56>
 8003fd6:	bdf8      	pop	{r3, r4, r5, r6, r7, pc}
 8003fd8:	20001094 	mulcs	r0, r4, r0

08003fdc <RDMHandler::GetBootSoftwareVersionId(unsigned short)>:
 8003fdc:	6842      	ldr	r2, [r0, #4]
 8003fde:	7d92      	ldrb	r2, [r2, #22]
 8003fe0:	b112      	cbz	r2, 8003fe8 <RDMHandler::GetBootSoftwareVersionId(unsigned short)+0xc>
 8003fe2:	2101      	movs	r1, #1
 8003fe4:	f7ff bc06 	b.w	80037f4 <RDMHandler::RespondMessageNack(unsigned short)>
 8003fe8:	6883      	ldr	r3, [r0, #8]
 8003fea:	2104      	movs	r1, #4
 8003fec:	75d9      	strb	r1, [r3, #23]
 8003fee:	761a      	strb	r2, [r3, #24]
 8003ff0:	765a      	strb	r2, [r3, #25]
 8003ff2:	769a      	strb	r2, [r3, #26]
 8003ff4:	76da      	strb	r2, [r3, #27]
 8003ff6:	f7ff b991 	b.w	800331c <RDMHandler::RespondMessageAck()>

08003ffa <RDMHandler::SetPerformSelfTest(bool, unsigned short)>:
 8003ffa:	b510      	push	{r4, lr}
 8003ffc:	6843      	ldr	r3, [r0, #4]
 8003ffe:	7d9a      	ldrb	r2, [r3, #22]
 8004000:	2a01      	cmp	r2, #1
 8004002:	4604      	mov	r4, r0
 8004004:	d004      	beq.n	8004010 <RDMHandler::SetPerformSelfTest(bool, unsigned short)+0x16>
 8004006:	2101      	movs	r1, #1
 8004008:	e8bd 4010 	ldmia.w	sp!, {r4, lr}
 800400c:	f7ff bbf2 	b.w	80037f4 <RDMHandler::RespondMessageNack(unsigned short)>
 8004010:	7dd8      	ldrb	r0, [r3, #23]
 8004012:	f7fd f9c3 	bl	800139c <rdm::selftest::Set(unsigned char)>
 8004016:	b910      	cbnz	r0, 800401e <RDMHandler::SetPerformSelfTest(bool, unsigned short)+0x24>
 8004018:	2106      	movs	r1, #6
 800401a:	4620      	mov	r0, r4
 800401c:	e7f4      	b.n	8004008 <RDMHandler::SetPerformSelfTest(bool, unsigned short)+0xe>
 800401e:	68a3      	ldr	r3, [r4, #8]
 8004020:	2200      	movs	r2, #0
 8004022:	75da      	strb	r2, [r3, #23]
 8004024:	4620      	mov	r0, r4
 8004026:	e8bd 4010 	ldmia.w	sp!, {r4, lr}
 800402a:	f7ff b977 	b.w	800331c <RDMHandler::RespondMessageAck()>
	...

08004030 <RDMHandler::Handlers(bool, unsigned char, unsigned short, unsigned char, unsigned short)>:
 8004030:	e92d 4ff1 	stmdb	sp!, {r0, r4, r5, r6, r7, r8, r9, sl, fp, lr}
 8004034:	4690      	mov	r8, r2
 8004036:	f002 02ef 	and.w	r2, r2, #239	; 0xef
 800403a:	2a20      	cmp	r2, #32
 800403c:	f89d a028 	ldrb.w	sl, [sp, #40]	; 0x28
 8004040:	f8bd 702c 	ldrh.w	r7, [sp, #44]	; 0x2c
 8004044:	4605      	mov	r5, r0
 8004046:	460e      	mov	r6, r1
 8004048:	d006      	beq.n	8004058 <RDMHandler::Handlers(bool, unsigned char, unsigned short, unsigned char, unsigned short)+0x28>
 800404a:	2105      	movs	r1, #5
 800404c:	4628      	mov	r0, r5
 800404e:	b001      	add	sp, #4
 8004050:	e8bd 4ff0 	ldmia.w	sp!, {r4, r5, r6, r7, r8, r9, sl, fp, lr}
 8004054:	f7ff bbce 	b.w	80037f4 <RDMHandler::RespondMessageNack(unsigned short)>
 8004058:	4a37      	ldr	r2, [pc, #220]	; (8004138 <RDMHandler::Handlers(bool, unsigned char, unsigned short, unsigned char, unsigned short)+0x108>)
 800405a:	6812      	ldr	r2, [r2, #0]
 800405c:	8892      	ldrh	r2, [r2, #4]
 800405e:	42ba      	cmp	r2, r7
 8004060:	d205      	bcs.n	800406e <RDMHandler::Handlers(bool, unsigned char, unsigned short, unsigned char, unsigned short)+0x3e>
 8004062:	f64f 72ff 	movw	r2, #65535	; 0xffff
 8004066:	4297      	cmp	r7, r2
 8004068:	d001      	beq.n	800406e <RDMHandler::Handlers(bool, unsigned char, unsigned short, unsigned char, unsigned short)+0x3e>
 800406a:	2109      	movs	r1, #9
 800406c:	e7ee      	b.n	800404c <RDMHandler::Handlers(bool, unsigned char, unsigned short, unsigned char, unsigned short)+0x1c>
 800406e:	4c33      	ldr	r4, [pc, #204]	; (800413c <RDMHandler::Handlers(bool, unsigned char, unsigned short, unsigned char, unsigned short)+0x10c>)
 8004070:	4a33      	ldr	r2, [pc, #204]	; (8004140 <RDMHandler::Handlers(bool, unsigned char, unsigned short, unsigned char, unsigned short)+0x110>)
 8004072:	8821      	ldrh	r1, [r4, #0]
 8004074:	4299      	cmp	r1, r3
 8004076:	d105      	bne.n	8004084 <RDMHandler::Handlers(bool, unsigned char, unsigned short, unsigned char, unsigned short)+0x54>
 8004078:	7829      	ldrb	r1, [r5, #0]
 800407a:	7da2      	ldrb	r2, [r4, #22]
 800407c:	7de3      	ldrb	r3, [r4, #23]
 800407e:	b9d9      	cbnz	r1, 80040b8 <RDMHandler::Handlers(bool, unsigned char, unsigned short, unsigned char, unsigned short)+0x88>
 8004080:	b9e3      	cbnz	r3, 80040bc <RDMHandler::Handlers(bool, unsigned char, unsigned short, unsigned char, unsigned short)+0x8c>
 8004082:	e00d      	b.n	80040a0 <RDMHandler::Handlers(bool, unsigned char, unsigned short, unsigned char, unsigned short)+0x70>
 8004084:	3418      	adds	r4, #24
 8004086:	4294      	cmp	r4, r2
 8004088:	d1f3      	bne.n	8004072 <RDMHandler::Handlers(bool, unsigned char, unsigned short, unsigned char, unsigned short)+0x42>
 800408a:	ba5b      	rev16	r3, r3
 800408c:	f8df b0b8 	ldr.w	fp, [pc, #184]	; 8004148 <RDMHandler::Handlers(bool, unsigned char, unsigned short, unsigned char, unsigned short)+0x118>
 8004090:	f04f 0900 	mov.w	r9, #0
 8004094:	b29c      	uxth	r4, r3
 8004096:	4628      	mov	r0, r5
 8004098:	f001 ff02 	bl	8005ea0 <RDMHandler::GetParameterDescriptionCount() const>
 800409c:	4548      	cmp	r0, r9
 800409e:	d801      	bhi.n	80040a4 <RDMHandler::Handlers(bool, unsigned char, unsigned short, unsigned char, unsigned short)+0x74>
 80040a0:	2100      	movs	r1, #0
 80040a2:	e7d3      	b.n	800404c <RDMHandler::Handlers(bool, unsigned char, unsigned short, unsigned char, unsigned short)+0x1c>
 80040a4:	2319      	movs	r3, #25
 80040a6:	fb03 f309 	mul.w	r3, r3, r9
 80040aa:	f83b 3003 	ldrh.w	r3, [fp, r3]
 80040ae:	42a3      	cmp	r3, r4
 80040b0:	d03a      	beq.n	8004128 <RDMHandler::Handlers(bool, unsigned char, unsigned short, unsigned char, unsigned short)+0xf8>
 80040b2:	f109 0901 	add.w	r9, r9, #1
 80040b6:	e7ee      	b.n	8004096 <RDMHandler::Handlers(bool, unsigned char, unsigned short, unsigned char, unsigned short)+0x66>
 80040b8:	2a00      	cmp	r2, #0
 80040ba:	d0f1      	beq.n	80040a0 <RDMHandler::Handlers(bool, unsigned char, unsigned short, unsigned char, unsigned short)+0x70>
 80040bc:	f1b8 0f20 	cmp.w	r8, #32
 80040c0:	d11c      	bne.n	80040fc <RDMHandler::Handlers(bool, unsigned char, unsigned short, unsigned char, unsigned short)+0xcc>
 80040c2:	2e00      	cmp	r6, #0
 80040c4:	d135      	bne.n	8004132 <RDMHandler::Handlers(bool, unsigned char, unsigned short, unsigned char, unsigned short)+0x102>
 80040c6:	f64f 73ff 	movw	r3, #65535	; 0xffff
 80040ca:	429f      	cmp	r7, r3
 80040cc:	d0cd      	beq.n	800406a <RDMHandler::Handlers(bool, unsigned char, unsigned short, unsigned char, unsigned short)+0x3a>
 80040ce:	6863      	ldr	r3, [r4, #4]
 80040d0:	b913      	cbnz	r3, 80040d8 <RDMHandler::Handlers(bool, unsigned char, unsigned short, unsigned char, unsigned short)+0xa8>
 80040d2:	68a2      	ldr	r2, [r4, #8]
 80040d4:	07d1      	lsls	r1, r2, #31
 80040d6:	d5b8      	bpl.n	800404a <RDMHandler::Handlers(bool, unsigned char, unsigned short, unsigned char, unsigned short)+0x1a>
 80040d8:	7d22      	ldrb	r2, [r4, #20]
 80040da:	4552      	cmp	r2, sl
 80040dc:	d001      	beq.n	80040e2 <RDMHandler::Handlers(bool, unsigned char, unsigned short, unsigned char, unsigned short)+0xb2>
 80040de:	2101      	movs	r1, #1
 80040e0:	e7b4      	b.n	800404c <RDMHandler::Handlers(bool, unsigned char, unsigned short, unsigned char, unsigned short)+0x1c>
 80040e2:	68a2      	ldr	r2, [r4, #8]
 80040e4:	1051      	asrs	r1, r2, #1
 80040e6:	eb05 0062 	add.w	r0, r5, r2, asr #1
 80040ea:	07d2      	lsls	r2, r2, #31
 80040ec:	bf44      	itt	mi
 80040ee:	586a      	ldrmi	r2, [r5, r1]
 80040f0:	58d3      	ldrmi	r3, [r2, r3]
 80040f2:	4639      	mov	r1, r7
 80040f4:	b001      	add	sp, #4
 80040f6:	e8bd 4ff0 	ldmia.w	sp!, {r4, r5, r6, r7, r8, r9, sl, fp, lr}
 80040fa:	4718      	bx	r3
 80040fc:	e9d4 3003 	ldrd	r3, r0, [r4, #12]
 8004100:	f000 0201 	and.w	r2, r0, #1
 8004104:	b933      	cbnz	r3, 8004114 <RDMHandler::Handlers(bool, unsigned char, unsigned short, unsigned char, unsigned short)+0xe4>
 8004106:	2a00      	cmp	r2, #0
 8004108:	d09f      	beq.n	800404a <RDMHandler::Handlers(bool, unsigned char, unsigned short, unsigned char, unsigned short)+0x1a>
 800410a:	eb05 0060 	add.w	r0, r5, r0, asr #1
 800410e:	6802      	ldr	r2, [r0, #0]
 8004110:	58d3      	ldr	r3, [r2, r3]
 8004112:	e003      	b.n	800411c <RDMHandler::Handlers(bool, unsigned char, unsigned short, unsigned char, unsigned short)+0xec>
 8004114:	eb05 0060 	add.w	r0, r5, r0, asr #1
 8004118:	2a00      	cmp	r2, #0
 800411a:	d1f8      	bne.n	800410e <RDMHandler::Handlers(bool, unsigned char, unsigned short, unsigned char, unsigned short)+0xde>
 800411c:	463a      	mov	r2, r7
 800411e:	4631      	mov	r1, r6
 8004120:	b001      	add	sp, #4
 8004122:	e8bd 4ff0 	ldmia.w	sp!, {r4, r5, r6, r7, r8, r9, sl, fp, lr}
 8004126:	4718      	bx	r3
 8004128:	782b      	ldrb	r3, [r5, #0]
 800412a:	2b00      	cmp	r3, #0
 800412c:	d0b8      	beq.n	80040a0 <RDMHandler::Handlers(bool, unsigned char, unsigned short, unsigned char, unsigned short)+0x70>
 800412e:	4c05      	ldr	r4, [pc, #20]	; (8004144 <RDMHandler::Handlers(bool, unsigned char, unsigned short, unsigned char, unsigned short)+0x114>)
 8004130:	e7c4      	b.n	80040bc <RDMHandler::Handlers(bool, unsigned char, unsigned short, unsigned char, unsigned short)+0x8c>
 8004132:	b001      	add	sp, #4
 8004134:	e8bd 8ff0 	ldmia.w	sp!, {r4, r5, r6, r7, r8, r9, sl, fp, pc}
 8004138:	20001098 	mulcs	r0, r8, r0
 800413c:	0800a25c 	stmdaeq	r0, {r2, r3, r4, r6, r9, sp, pc}
 8004140:	0800a544 	stmdaeq	r0, {r2, r6, r8, sl, sp, pc}
 8004144:	0800a184 	stmdaeq	r0, {r2, r7, r8, sp, pc}
 8004148:	0800acf4 	stmdaeq	r0, {r2, r4, r5, r6, r7, sl, fp, sp, pc}

0800414c <RDMHandler::HandleData(unsigned char const*, unsigned char*)>:
 800414c:	23ff      	movs	r3, #255	; 0xff
 800414e:	e92d 4ff7 	stmdb	sp!, {r0, r1, r2, r4, r5, r6, r7, r8, r9, sl, fp, lr}
 8004152:	7013      	strb	r3, [r2, #0]
 8004154:	7bcb      	ldrb	r3, [r1, #15]
 8004156:	e9c0 1201 	strd	r1, r2, [r0, #4]
 800415a:	4607      	mov	r7, r0
 800415c:	460d      	mov	r5, r1
 800415e:	4614      	mov	r4, r2
 8004160:	2b00      	cmp	r3, #0
 8004162:	d07c      	beq.n	800425e <RDMHandler::HandleData(unsigned char const*, unsigned char*)+0x112>
 8004164:	7c0b      	ldrb	r3, [r1, #16]
 8004166:	2b00      	cmp	r3, #0
 8004168:	d179      	bne.n	800425e <RDMHandler::HandleData(unsigned char const*, unsigned char*)+0x112>
 800416a:	4b5e      	ldr	r3, [pc, #376]	; (80042e4 <RDMHandler::HandleData(unsigned char const*, unsigned char*)+0x198>)
 800416c:	1c8e      	adds	r6, r1, #2
 800416e:	2206      	movs	r2, #6
 8004170:	495d      	ldr	r1, [pc, #372]	; (80042e8 <RDMHandler::HandleData(unsigned char const*, unsigned char*)+0x19c>)
 8004172:	f8d3 8000 	ldr.w	r8, [r3]
 8004176:	4630      	mov	r0, r6
 8004178:	f7fe ff0c 	bl	8002f94 <memcmp>
 800417c:	f108 0a4a 	add.w	sl, r8, #74	; 0x4a
 8004180:	4603      	mov	r3, r0
 8004182:	b930      	cbnz	r0, 8004192 <RDMHandler::HandleData(unsigned char const*, unsigned char*)+0x46>
 8004184:	8aae      	ldrh	r6, [r5, #20]
 8004186:	f895 9013 	ldrb.w	r9, [r5, #19]
 800418a:	ba76      	rev16	r6, r6
 800418c:	b2b6      	uxth	r6, r6
 800418e:	2101      	movs	r1, #1
 8004190:	e01f      	b.n	80041d2 <RDMHandler::HandleData(unsigned char const*, unsigned char*)+0x86>
 8004192:	2202      	movs	r2, #2
 8004194:	4651      	mov	r1, sl
 8004196:	4630      	mov	r0, r6
 8004198:	f7fe fefc 	bl	8002f94 <memcmp>
 800419c:	2800      	cmp	r0, #0
 800419e:	d15e      	bne.n	800425e <RDMHandler::HandleData(unsigned char const*, unsigned char*)+0x112>
 80041a0:	f105 0b04 	add.w	fp, r5, #4
 80041a4:	4950      	ldr	r1, [pc, #320]	; (80042e8 <RDMHandler::HandleData(unsigned char const*, unsigned char*)+0x19c>)
 80041a6:	2204      	movs	r2, #4
 80041a8:	4658      	mov	r0, fp
 80041aa:	f7fe fef3 	bl	8002f94 <memcmp>
 80041ae:	8aae      	ldrh	r6, [r5, #20]
 80041b0:	f895 9013 	ldrb.w	r9, [r5, #19]
 80041b4:	ba76      	rev16	r6, r6
 80041b6:	b2b6      	uxth	r6, r6
 80041b8:	4603      	mov	r3, r0
 80041ba:	2800      	cmp	r0, #0
 80041bc:	d0e7      	beq.n	800418e <RDMHandler::HandleData(unsigned char const*, unsigned char*)+0x42>
 80041be:	f108 014c 	add.w	r1, r8, #76	; 0x4c
 80041c2:	2204      	movs	r2, #4
 80041c4:	4658      	mov	r0, fp
 80041c6:	f7fe fee5 	bl	8002f94 <memcmp>
 80041ca:	4601      	mov	r1, r0
 80041cc:	2800      	cmp	r0, #0
 80041ce:	d146      	bne.n	800425e <RDMHandler::HandleData(unsigned char const*, unsigned char*)+0x112>
 80041d0:	2301      	movs	r3, #1
 80041d2:	f1b9 0f10 	cmp.w	r9, #16
 80041d6:	d177      	bne.n	80042c8 <RDMHandler::HandleData(unsigned char const*, unsigned char*)+0x17c>
 80041d8:	2e01      	cmp	r6, #1
 80041da:	d143      	bne.n	8004264 <RDMHandler::HandleData(unsigned char const*, unsigned char*)+0x118>
 80041dc:	787b      	ldrb	r3, [r7, #1]
 80041de:	2b00      	cmp	r3, #0
 80041e0:	d13d      	bne.n	800425e <RDMHandler::HandleData(unsigned char const*, unsigned char*)+0x112>
 80041e2:	2206      	movs	r2, #6
 80041e4:	4651      	mov	r1, sl
 80041e6:	f105 0017 	add.w	r0, r5, #23
 80041ea:	f7fe fed3 	bl	8002f94 <memcmp>
 80041ee:	2800      	cmp	r0, #0
 80041f0:	dc35      	bgt.n	800425e <RDMHandler::HandleData(unsigned char const*, unsigned char*)+0x112>
 80041f2:	2206      	movs	r2, #6
 80041f4:	f105 011d 	add.w	r1, r5, #29
 80041f8:	4650      	mov	r0, sl
 80041fa:	f7fe fecb 	bl	8002f94 <memcmp>
 80041fe:	2800      	cmp	r0, #0
 8004200:	dc2d      	bgt.n	800425e <RDMHandler::HandleData(unsigned char const*, unsigned char*)+0x112>
 8004202:	23fe      	movs	r3, #254	; 0xfe
 8004204:	7023      	strb	r3, [r4, #0]
 8004206:	7063      	strb	r3, [r4, #1]
 8004208:	70a3      	strb	r3, [r4, #2]
 800420a:	70e3      	strb	r3, [r4, #3]
 800420c:	7123      	strb	r3, [r4, #4]
 800420e:	7163      	strb	r3, [r4, #5]
 8004210:	71a3      	strb	r3, [r4, #6]
 8004212:	23aa      	movs	r3, #170	; 0xaa
 8004214:	71e3      	strb	r3, [r4, #7]
 8004216:	f108 0249 	add.w	r2, r8, #73	; 0x49
 800421a:	4621      	mov	r1, r4
 800421c:	f108 084f 	add.w	r8, r8, #79	; 0x4f
 8004220:	f240 53fa 	movw	r3, #1530	; 0x5fa
 8004224:	f812 0f01 	ldrb.w	r0, [r2, #1]!
 8004228:	f060 0055 	orn	r0, r0, #85	; 0x55
 800422c:	7208      	strb	r0, [r1, #8]
 800422e:	7810      	ldrb	r0, [r2, #0]
 8004230:	f040 0055 	orr.w	r0, r0, #85	; 0x55
 8004234:	7248      	strb	r0, [r1, #9]
 8004236:	7810      	ldrb	r0, [r2, #0]
 8004238:	4590      	cmp	r8, r2
 800423a:	4403      	add	r3, r0
 800423c:	b29b      	uxth	r3, r3
 800423e:	f101 0102 	add.w	r1, r1, #2
 8004242:	d1ef      	bne.n	8004224 <RDMHandler::HandleData(unsigned char const*, unsigned char*)+0xd8>
 8004244:	0a1a      	lsrs	r2, r3, #8
 8004246:	f062 0155 	orn	r1, r2, #85	; 0x55
 800424a:	f042 0255 	orr.w	r2, r2, #85	; 0x55
 800424e:	7562      	strb	r2, [r4, #21]
 8004250:	f063 0255 	orn	r2, r3, #85	; 0x55
 8004254:	f043 0355 	orr.w	r3, r3, #85	; 0x55
 8004258:	7521      	strb	r1, [r4, #20]
 800425a:	75a2      	strb	r2, [r4, #22]
 800425c:	75e3      	strb	r3, [r4, #23]
 800425e:	b003      	add	sp, #12
 8004260:	e8bd 8ff0 	ldmia.w	sp!, {r4, r5, r6, r7, r8, r9, sl, fp, pc}
 8004264:	2e03      	cmp	r6, #3
 8004266:	d119      	bne.n	800429c <RDMHandler::HandleData(unsigned char const*, unsigned char*)+0x150>
 8004268:	7daa      	ldrb	r2, [r5, #22]
 800426a:	2a00      	cmp	r2, #0
 800426c:	d1f7      	bne.n	800425e <RDMHandler::HandleData(unsigned char const*, unsigned char*)+0x112>
 800426e:	707a      	strb	r2, [r7, #1]
 8004270:	2900      	cmp	r1, #0
 8004272:	d1f4      	bne.n	800425e <RDMHandler::HandleData(unsigned char const*, unsigned char*)+0x112>
 8004274:	2b00      	cmp	r3, #0
 8004276:	d0f2      	beq.n	800425e <RDMHandler::HandleData(unsigned char const*, unsigned char*)+0x112>
 8004278:	2302      	movs	r3, #2
 800427a:	75e3      	strb	r3, [r4, #23]
 800427c:	4b1b      	ldr	r3, [pc, #108]	; (80042ec <RDMHandler::HandleData(unsigned char const*, unsigned char*)+0x1a0>)
 800427e:	7621      	strb	r1, [r4, #24]
 8004280:	681b      	ldr	r3, [r3, #0]
 8004282:	7661      	strb	r1, [r4, #25]
 8004284:	889b      	ldrh	r3, [r3, #4]
 8004286:	3b00      	subs	r3, #0
 8004288:	bf18      	it	ne
 800428a:	2301      	movne	r3, #1
 800428c:	005b      	lsls	r3, r3, #1
 800428e:	4638      	mov	r0, r7
 8004290:	7663      	strb	r3, [r4, #25]
 8004292:	b003      	add	sp, #12
 8004294:	e8bd 4ff0 	ldmia.w	sp!, {r4, r5, r6, r7, r8, r9, sl, fp, lr}
 8004298:	f7ff b840 	b.w	800331c <RDMHandler::RespondMessageAck()>
 800429c:	2e02      	cmp	r6, #2
 800429e:	d1de      	bne.n	800425e <RDMHandler::HandleData(unsigned char const*, unsigned char*)+0x112>
 80042a0:	7daa      	ldrb	r2, [r5, #22]
 80042a2:	2a00      	cmp	r2, #0
 80042a4:	d1db      	bne.n	800425e <RDMHandler::HandleData(unsigned char const*, unsigned char*)+0x112>
 80042a6:	2201      	movs	r2, #1
 80042a8:	707a      	strb	r2, [r7, #1]
 80042aa:	2900      	cmp	r1, #0
 80042ac:	d1d7      	bne.n	800425e <RDMHandler::HandleData(unsigned char const*, unsigned char*)+0x112>
 80042ae:	2b00      	cmp	r3, #0
 80042b0:	d0d5      	beq.n	800425e <RDMHandler::HandleData(unsigned char const*, unsigned char*)+0x112>
 80042b2:	4b0e      	ldr	r3, [pc, #56]	; (80042ec <RDMHandler::HandleData(unsigned char const*, unsigned char*)+0x1a0>)
 80042b4:	75e6      	strb	r6, [r4, #23]
 80042b6:	681b      	ldr	r3, [r3, #0]
 80042b8:	7621      	strb	r1, [r4, #24]
 80042ba:	7661      	strb	r1, [r4, #25]
 80042bc:	889b      	ldrh	r3, [r3, #4]
 80042be:	3b00      	subs	r3, #0
 80042c0:	bf18      	it	ne
 80042c2:	2301      	movne	r3, #1
 80042c4:	4093      	lsls	r3, r2
 80042c6:	e7e2      	b.n	800428e <RDMHandler::HandleData(unsigned char const*, unsigned char*)+0x142>
 80042c8:	f8b5 3011 	ldrh.w	r3, [r5, #17]
 80042cc:	ba5b      	rev16	r3, r3
 80042ce:	b29b      	uxth	r3, r3
 80042d0:	9301      	str	r3, [sp, #4]
 80042d2:	7dab      	ldrb	r3, [r5, #22]
 80042d4:	9300      	str	r3, [sp, #0]
 80042d6:	464a      	mov	r2, r9
 80042d8:	4633      	mov	r3, r6
 80042da:	4638      	mov	r0, r7
 80042dc:	f7ff fea8 	bl	8004030 <RDMHandler::Handlers(bool, unsigned char, unsigned short, unsigned char, unsigned short)>
 80042e0:	e7bd      	b.n	800425e <RDMHandler::HandleData(unsigned char const*, unsigned char*)+0x112>
 80042e2:	bf00      	nop
 80042e4:	20001088 	andcs	r1, r0, r8, lsl #1
 80042e8:	0800a544 	stmdaeq	r0, {r2, r6, r8, sl, sp, pc}
 80042ec:	20001098 	mulcs	r0, r8, r0

080042f0 <RDMHandler::GetIdentifyMode(unsigned short)>:
 80042f0:	6883      	ldr	r3, [r0, #8]
 80042f2:	2201      	movs	r2, #1
 80042f4:	75da      	strb	r2, [r3, #23]
 80042f6:	4a02      	ldr	r2, [pc, #8]	; (8004300 <RDMHandler::GetIdentifyMode(unsigned short)+0x10>)
 80042f8:	7812      	ldrb	r2, [r2, #0]
 80042fa:	761a      	strb	r2, [r3, #24]
 80042fc:	f7ff b80e 	b.w	800331c <RDMHandler::RespondMessageAck()>
 8004300:	20001090 	mulcs	r0, r0, r0

08004304 <RDMHandler::SetIdentifyMode(bool, unsigned short)>:
 8004304:	b538      	push	{r3, r4, r5, lr}
 8004306:	6843      	ldr	r3, [r0, #4]
 8004308:	7d9a      	ldrb	r2, [r3, #22]
 800430a:	2a01      	cmp	r2, #1
 800430c:	4604      	mov	r4, r0
 800430e:	460d      	mov	r5, r1
 8004310:	d004      	beq.n	800431c <RDMHandler::SetIdentifyMode(bool, unsigned short)+0x18>
 8004312:	2101      	movs	r1, #1
 8004314:	e8bd 4038 	ldmia.w	sp!, {r3, r4, r5, lr}
 8004318:	f7ff ba6c 	b.w	80037f4 <RDMHandler::RespondMessageNack(unsigned short)>
 800431c:	7dd9      	ldrb	r1, [r3, #23]
 800431e:	1e4b      	subs	r3, r1, #1
 8004320:	b2db      	uxtb	r3, r3
 8004322:	2bfd      	cmp	r3, #253	; 0xfd
 8004324:	d801      	bhi.n	800432a <RDMHandler::SetIdentifyMode(bool, unsigned short)+0x26>
 8004326:	2106      	movs	r1, #6
 8004328:	e7f4      	b.n	8004314 <RDMHandler::SetIdentifyMode(bool, unsigned short)+0x10>
 800432a:	4b0b      	ldr	r3, [pc, #44]	; (8004358 <RDMHandler::SetIdentifyMode(bool, unsigned short)+0x54>)
 800432c:	6818      	ldr	r0, [r3, #0]
 800432e:	4b0b      	ldr	r3, [pc, #44]	; (800435c <RDMHandler::SetIdentifyMode(bool, unsigned short)+0x58>)
 8004330:	7019      	strb	r1, [r3, #0]
 8004332:	4b0b      	ldr	r3, [pc, #44]	; (8004360 <RDMHandler::SetIdentifyMode(bool, unsigned short)+0x5c>)
 8004334:	781b      	ldrb	r3, [r3, #0]
 8004336:	b15b      	cbz	r3, 8004350 <RDMHandler::SetIdentifyMode(bool, unsigned short)+0x4c>
 8004338:	b151      	cbz	r1, 8004350 <RDMHandler::SetIdentifyMode(bool, unsigned short)+0x4c>
 800433a:	21ff      	movs	r1, #255	; 0xff
 800433c:	f7fd f8de 	bl	80014fc <RDMIdentify::On(rdm::identify::Mode)>
 8004340:	b94d      	cbnz	r5, 8004356 <RDMHandler::SetIdentifyMode(bool, unsigned short)+0x52>
 8004342:	68a3      	ldr	r3, [r4, #8]
 8004344:	75dd      	strb	r5, [r3, #23]
 8004346:	4620      	mov	r0, r4
 8004348:	e8bd 4038 	ldmia.w	sp!, {r3, r4, r5, lr}
 800434c:	f7fe bfe6 	b.w	800331c <RDMHandler::RespondMessageAck()>
 8004350:	f7fd f8f2 	bl	8001538 <RDMIdentify::Off(rdm::identify::Mode)>
 8004354:	e7f4      	b.n	8004340 <RDMHandler::SetIdentifyMode(bool, unsigned short)+0x3c>
 8004356:	bd38      	pop	{r3, r4, r5, pc}
 8004358:	2000108c 	andcs	r1, r0, ip, lsl #1
 800435c:	20001090 	mulcs	r0, r0, r0
 8004360:	20001091 	mulcs	r0, r1, r0

08004364 <RDMIdentify::RDMIdentify()>:
 8004364:	4b01      	ldr	r3, [pc, #4]	; (800436c <RDMIdentify::RDMIdentify()+0x8>)
 8004366:	6018      	str	r0, [r3, #0]
 8004368:	4770      	bx	lr
 800436a:	bf00      	nop
 800436c:	2000108c 	andcs	r1, r0, ip, lsl #1

08004370 <strlen>:
 8004370:	4603      	mov	r3, r0
 8004372:	461a      	mov	r2, r3
 8004374:	3301      	adds	r3, #1
 8004376:	7811      	ldrb	r1, [r2, #0]
 8004378:	2900      	cmp	r1, #0
 800437a:	d1fa      	bne.n	8004372 <strlen+0x2>
 800437c:	1a10      	subs	r0, r2, r0
 800437e:	4770      	bx	lr

08004380 <RDMSlotInfo::bsearch(unsigned short)>:
 8004380:	b530      	push	{r4, r5, lr}
 8004382:	4d0a      	ldr	r5, [pc, #40]	; (80043ac <RDMSlotInfo::bsearch(unsigned short)+0x2c>)
 8004384:	4604      	mov	r4, r0
 8004386:	2128      	movs	r1, #40	; 0x28
 8004388:	2200      	movs	r2, #0
 800438a:	1a8b      	subs	r3, r1, r2
 800438c:	eb02 0063 	add.w	r0, r2, r3, asr #1
 8004390:	f835 3030 	ldrh.w	r3, [r5, r0, lsl #3]
 8004394:	42a3      	cmp	r3, r4
 8004396:	d205      	bcs.n	80043a4 <RDMSlotInfo::bsearch(unsigned short)+0x24>
 8004398:	1c42      	adds	r2, r0, #1
 800439a:	4291      	cmp	r1, r2
 800439c:	daf5      	bge.n	800438a <RDMSlotInfo::bsearch(unsigned short)+0xa>
 800439e:	f04f 30ff 	mov.w	r0, #4294967295	; 0xffffffff
 80043a2:	bd30      	pop	{r4, r5, pc}
 80043a4:	d9fd      	bls.n	80043a2 <RDMSlotInfo::bsearch(unsigned short)+0x22>
 80043a6:	1e41      	subs	r1, r0, #1
 80043a8:	e7f7      	b.n	800439a <RDMSlotInfo::bsearch(unsigned short)+0x1a>
 80043aa:	bf00      	nop
 80043ac:	0800a9e0 	stmdaeq	r0, {r5, r6, r7, r8, fp, sp, pc}

080043b0 <RDMSlotInfo::GetCategoryText(unsigned short, unsigned short, unsigned long&)>:
 80043b0:	b538      	push	{r3, r4, r5, lr}
 80043b2:	f64f 73ff 	movw	r3, #65535	; 0xffff
 80043b6:	4299      	cmp	r1, r3
 80043b8:	4615      	mov	r5, r2
 80043ba:	d105      	bne.n	80043c8 <RDMSlotInfo::GetCategoryText(unsigned short, unsigned short, unsigned long&)+0x18>
 80043bc:	4611      	mov	r1, r2
 80043be:	f7fd f8d7 	bl	8001570 <RDMSlotInfo::GetCategoryTextUndefined(unsigned short, unsigned long&)>
 80043c2:	4604      	mov	r4, r0
 80043c4:	4620      	mov	r0, r4
 80043c6:	bd38      	pop	{r3, r4, r5, pc}
 80043c8:	4608      	mov	r0, r1
 80043ca:	f7ff ffd9 	bl	8004380 <RDMSlotInfo::bsearch(unsigned short)>
 80043ce:	2800      	cmp	r0, #0
 80043d0:	da02      	bge.n	80043d8 <RDMSlotInfo::GetCategoryText(unsigned short, unsigned short, unsigned long&)+0x28>
 80043d2:	2400      	movs	r4, #0
 80043d4:	602c      	str	r4, [r5, #0]
 80043d6:	e7f5      	b.n	80043c4 <RDMSlotInfo::GetCategoryText(unsigned short, unsigned short, unsigned long&)+0x14>
 80043d8:	4b04      	ldr	r3, [pc, #16]	; (80043ec <RDMSlotInfo::GetCategoryText(unsigned short, unsigned short, unsigned long&)+0x3c>)
 80043da:	eb03 03c0 	add.w	r3, r3, r0, lsl #3
 80043de:	685c      	ldr	r4, [r3, #4]
 80043e0:	4620      	mov	r0, r4
 80043e2:	f7ff ffc5 	bl	8004370 <strlen>
 80043e6:	b280      	uxth	r0, r0
 80043e8:	6028      	str	r0, [r5, #0]
 80043ea:	e7eb      	b.n	80043c4 <RDMSlotInfo::GetCategoryText(unsigned short, unsigned short, unsigned long&)+0x14>
 80043ec:	0800a9e0 	stmdaeq	r0, {r5, r6, r7, r8, fp, sp, pc}

080043f0 <DMXReceiver::Run(short&)>:
 80043f0:	4b24      	ldr	r3, [pc, #144]	; (8004484 <DMXReceiver::Run(short&)+0x94>)
 80043f2:	e92d 41f3 	stmdb	sp!, {r0, r1, r4, r5, r6, r7, r8, lr}
 80043f6:	781d      	ldrb	r5, [r3, #0]
 80043f8:	4607      	mov	r7, r0
 80043fa:	460e      	mov	r6, r1
 80043fc:	b135      	cbz	r5, 800440c <DMXReceiver::Run(short&)+0x1c>
 80043fe:	2300      	movs	r3, #0
 8004400:	8033      	strh	r3, [r6, #0]
 8004402:	2400      	movs	r4, #0
 8004404:	4620      	mov	r0, r4
 8004406:	b002      	add	sp, #8
 8004408:	e8bd 81f0 	ldmia.w	sp!, {r4, r5, r6, r7, r8, pc}
 800440c:	4629      	mov	r1, r5
 800440e:	f000 fde1 	bl	8004fd4 <Dmx::GetDmxUpdatesPerSecond(unsigned long)>
 8004412:	4604      	mov	r4, r0
 8004414:	b988      	cbnz	r0, 800443a <DMXReceiver::Run(short&)+0x4a>
 8004416:	4d1c      	ldr	r5, [pc, #112]	; (8004488 <DMXReceiver::Run(short&)+0x98>)
 8004418:	782b      	ldrb	r3, [r5, #0]
 800441a:	b15b      	cbz	r3, 8004434 <DMXReceiver::Run(short&)+0x44>
 800441c:	4b1b      	ldr	r3, [pc, #108]	; (800448c <DMXReceiver::Run(short&)+0x9c>)
 800441e:	6818      	ldr	r0, [r3, #0]
 8004420:	6803      	ldr	r3, [r0, #0]
 8004422:	4621      	mov	r1, r4
 8004424:	68db      	ldr	r3, [r3, #12]
 8004426:	4798      	blx	r3
 8004428:	4b19      	ldr	r3, [pc, #100]	; (8004490 <DMXReceiver::Run(short&)+0xa0>)
 800442a:	702c      	strb	r4, [r5, #0]
 800442c:	6818      	ldr	r0, [r3, #0]
 800442e:	2102      	movs	r1, #2
 8004430:	f003 fbe6 	bl	8007c00 <Hardware::SetMode(hardware::ledblink::Mode)>
 8004434:	f04f 33ff 	mov.w	r3, #4294967295	; 0xffffffff
 8004438:	e7e2      	b.n	8004400 <DMXReceiver::Run(short&)+0x10>
 800443a:	4629      	mov	r1, r5
 800443c:	4638      	mov	r0, r7
 800443e:	f000 fdaf 	bl	8004fa0 <Dmx::GetDmxAvailable(unsigned long)>
 8004442:	2800      	cmp	r0, #0
 8004444:	d0db      	beq.n	80043fe <DMXReceiver::Run(short&)+0xe>
 8004446:	4f11      	ldr	r7, [pc, #68]	; (800448c <DMXReceiver::Run(short&)+0x9c>)
 8004448:	f8d0 3204 	ldr.w	r3, [r0, #516]	; 0x204
 800444c:	8033      	strh	r3, [r6, #0]
 800444e:	1c44      	adds	r4, r0, #1
 8004450:	6838      	ldr	r0, [r7, #0]
 8004452:	2601      	movs	r6, #1
 8004454:	6802      	ldr	r2, [r0, #0]
 8004456:	9600      	str	r6, [sp, #0]
 8004458:	4629      	mov	r1, r5
 800445a:	4d0b      	ldr	r5, [pc, #44]	; (8004488 <DMXReceiver::Run(short&)+0x98>)
 800445c:	f8d2 8010 	ldr.w	r8, [r2, #16]
 8004460:	b29b      	uxth	r3, r3
 8004462:	4622      	mov	r2, r4
 8004464:	47c0      	blx	r8
 8004466:	7829      	ldrb	r1, [r5, #0]
 8004468:	2900      	cmp	r1, #0
 800446a:	d1cb      	bne.n	8004404 <DMXReceiver::Run(short&)+0x14>
 800446c:	6838      	ldr	r0, [r7, #0]
 800446e:	6803      	ldr	r3, [r0, #0]
 8004470:	689b      	ldr	r3, [r3, #8]
 8004472:	4798      	blx	r3
 8004474:	4b06      	ldr	r3, [pc, #24]	; (8004490 <DMXReceiver::Run(short&)+0xa0>)
 8004476:	702e      	strb	r6, [r5, #0]
 8004478:	6818      	ldr	r0, [r3, #0]
 800447a:	2103      	movs	r1, #3
 800447c:	f003 fbc0 	bl	8007c00 <Hardware::SetMode(hardware::ledblink::Mode)>
 8004480:	e7c0      	b.n	8004404 <DMXReceiver::Run(short&)+0x14>
 8004482:	bf00      	nop
 8004484:	20001080 	andcs	r1, r0, r0, lsl #1
 8004488:	20001081 	andcs	r1, r0, r1, lsl #1
 800448c:	20001084 	andcs	r1, r0, r4, lsl #1
 8004490:	20002758 	andcs	r2, r0, r8, asr r7

08004494 <RDMResponder::HandleResponse(unsigned char*)>:
 8004494:	b570      	push	{r4, r5, r6, lr}
 8004496:	780b      	ldrb	r3, [r1, #0]
 8004498:	2bcc      	cmp	r3, #204	; 0xcc
 800449a:	460d      	mov	r5, r1
 800449c:	d121      	bne.n	80044e2 <RDMResponder::HandleResponse(unsigned char*)+0x4e>
 800449e:	4b18      	ldr	r3, [pc, #96]	; (8004500 <RDMResponder::HandleResponse(unsigned char*)+0x6c>)
 80044a0:	788c      	ldrb	r4, [r1, #2]
 80044a2:	4e18      	ldr	r6, [pc, #96]	; (8004504 <RDMResponder::HandleResponse(unsigned char*)+0x70>)
 80044a4:	6819      	ldr	r1, [r3, #0]
 80044a6:	20c8      	movs	r0, #200	; 0xc8
 80044a8:	f005 f99a 	bl	80097e0 <udelay(unsigned long, unsigned long)>
 80044ac:	2300      	movs	r3, #0
 80044ae:	461a      	mov	r2, r3
 80044b0:	4619      	mov	r1, r3
 80044b2:	6830      	ldr	r0, [r6, #0]
 80044b4:	3402      	adds	r4, #2
 80044b6:	f000 fc7f 	bl	8004db8 <Dmx::SetPortDirection(unsigned long, dmx::PortDirection, bool)>
 80044ba:	4623      	mov	r3, r4
 80044bc:	462a      	mov	r2, r5
 80044be:	6830      	ldr	r0, [r6, #0]
 80044c0:	2100      	movs	r1, #0
 80044c2:	f000 fd8d 	bl	8004fe0 <Dmx::RdmSendRaw(unsigned long, unsigned char const*, unsigned long)>
 80044c6:	2100      	movs	r1, #0
 80044c8:	2004      	movs	r0, #4
 80044ca:	f005 f989 	bl	80097e0 <udelay(unsigned long, unsigned long)>
 80044ce:	2301      	movs	r3, #1
 80044d0:	6830      	ldr	r0, [r6, #0]
 80044d2:	461a      	mov	r2, r3
 80044d4:	2100      	movs	r1, #0
 80044d6:	f000 fc6f 	bl	8004db8 <Dmx::SetPortDirection(unsigned long, dmx::PortDirection, bool)>
 80044da:	f002 fd71 	bl	8006fc0 <configstore::delay()>
 80044de:	4620      	mov	r0, r4
 80044e0:	bd70      	pop	{r4, r5, r6, pc}
 80044e2:	2bfe      	cmp	r3, #254	; 0xfe
 80044e4:	d108      	bne.n	80044f8 <RDMResponder::HandleResponse(unsigned char*)+0x64>
 80044e6:	4807      	ldr	r0, [pc, #28]	; (8004504 <RDMResponder::HandleResponse(unsigned char*)+0x70>)
 80044e8:	460a      	mov	r2, r1
 80044ea:	6800      	ldr	r0, [r0, #0]
 80044ec:	2318      	movs	r3, #24
 80044ee:	2100      	movs	r1, #0
 80044f0:	f000 fdbe 	bl	8005070 <Dmx::RdmSendDiscoveryRespondMessage(unsigned long, unsigned char const*, unsigned long)>
 80044f4:	2418      	movs	r4, #24
 80044f6:	e7f0      	b.n	80044da <RDMResponder::HandleResponse(unsigned char*)+0x46>
 80044f8:	f06f 0402 	mvn.w	r4, #2
 80044fc:	e7ed      	b.n	80044da <RDMResponder::HandleResponse(unsigned char*)+0x46>
 80044fe:	bf00      	nop
 8004500:	200015d0 	ldrdcs	r1, [r0], -r0
 8004504:	200011a4 	andcs	r1, r0, r4, lsr #3

08004508 <RDMResponder::Run()>:
 8004508:	e92d 43f7 	stmdb	sp!, {r0, r1, r2, r4, r5, r6, r7, r8, r9, lr}
 800450c:	4f3a      	ldr	r7, [pc, #232]	; (80045f8 <RDMResponder::Run()+0xf0>)
 800450e:	4605      	mov	r5, r0
 8004510:	f10d 0106 	add.w	r1, sp, #6
 8004514:	30a0      	adds	r0, #160	; 0xa0
 8004516:	f7ff ff6b 	bl	80043f0 <DMXReceiver::Run(short&)>
 800451a:	683c      	ldr	r4, [r7, #0]
 800451c:	88a3      	ldrh	r3, [r4, #4]
 800451e:	4681      	mov	r9, r0
 8004520:	b1ab      	cbz	r3, 800454e <RDMResponder::Run()+0x46>
 8004522:	f9bd 6006 	ldrsh.w	r6, [sp, #6]
 8004526:	1c73      	adds	r3, r6, #1
 8004528:	d12f      	bne.n	800458a <RDMResponder::Run()+0x82>
 800452a:	4f34      	ldr	r7, [pc, #208]	; (80045fc <RDMResponder::Run()+0xf4>)
 800452c:	783b      	ldrb	r3, [r7, #0]
 800452e:	b173      	cbz	r3, 800454e <RDMResponder::Run()+0x46>
 8004530:	2600      	movs	r6, #0
 8004532:	e007      	b.n	8004544 <RDMResponder::Run()+0x3c>
 8004534:	6823      	ldr	r3, [r4, #0]
 8004536:	f853 0026 	ldr.w	r0, [r3, r6, lsl #2]
 800453a:	b110      	cbz	r0, 8004542 <RDMResponder::Run()+0x3a>
 800453c:	6803      	ldr	r3, [r0, #0]
 800453e:	691b      	ldr	r3, [r3, #16]
 8004540:	4798      	blx	r3
 8004542:	3601      	adds	r6, #1
 8004544:	88a3      	ldrh	r3, [r4, #4]
 8004546:	429e      	cmp	r6, r3
 8004548:	d3f4      	bcc.n	8004534 <RDMResponder::Run()+0x2c>
 800454a:	2300      	movs	r3, #0
 800454c:	703b      	strb	r3, [r7, #0]
 800454e:	4b2c      	ldr	r3, [pc, #176]	; (8004600 <RDMResponder::Run()+0xf8>)
 8004550:	2100      	movs	r1, #0
 8004552:	6818      	ldr	r0, [r3, #0]
 8004554:	f000 fe94 	bl	8005280 <Dmx::RdmReceive(unsigned long)>
 8004558:	2800      	cmp	r0, #0
 800455a:	d047      	beq.n	80045ec <RDMResponder::Run()+0xe4>
 800455c:	7803      	ldrb	r3, [r0, #0]
 800455e:	2bcc      	cmp	r3, #204	; 0xcc
 8004560:	d142      	bne.n	80045e8 <RDMResponder::Run()+0xe0>
 8004562:	7d03      	ldrb	r3, [r0, #20]
 8004564:	2b20      	cmp	r3, #32
 8004566:	d003      	beq.n	8004570 <RDMResponder::Run()+0x68>
 8004568:	f003 03df 	and.w	r3, r3, #223	; 0xdf
 800456c:	2b10      	cmp	r3, #16
 800456e:	d140      	bne.n	80045f2 <RDMResponder::Run()+0xea>
 8004570:	1c41      	adds	r1, r0, #1
 8004572:	4a24      	ldr	r2, [pc, #144]	; (8004604 <RDMResponder::Run()+0xfc>)
 8004574:	f105 00bc 	add.w	r0, r5, #188	; 0xbc
 8004578:	f7ff fde8 	bl	800414c <RDMHandler::HandleData(unsigned char const*, unsigned char*)>
 800457c:	4921      	ldr	r1, [pc, #132]	; (8004604 <RDMResponder::Run()+0xfc>)
 800457e:	4628      	mov	r0, r5
 8004580:	b003      	add	sp, #12
 8004582:	e8bd 43f0 	ldmia.w	sp!, {r4, r5, r6, r7, r8, r9, lr}
 8004586:	f7ff bf85 	b.w	8004494 <RDMResponder::HandleResponse(unsigned char*)>
 800458a:	2800      	cmp	r0, #0
 800458c:	d0df      	beq.n	800454e <RDMResponder::Run()+0x46>
 800458e:	b2b6      	uxth	r6, r6
 8004590:	f04f 0800 	mov.w	r8, #0
 8004594:	88a3      	ldrh	r3, [r4, #4]
 8004596:	4598      	cmp	r8, r3
 8004598:	d30a      	bcc.n	80045b0 <RDMResponder::Run()+0xa8>
 800459a:	4e18      	ldr	r6, [pc, #96]	; (80045fc <RDMResponder::Run()+0xf4>)
 800459c:	7834      	ldrb	r4, [r6, #0]
 800459e:	2c00      	cmp	r4, #0
 80045a0:	d1d5      	bne.n	800454e <RDMResponder::Run()+0x46>
 80045a2:	683f      	ldr	r7, [r7, #0]
 80045a4:	88bb      	ldrh	r3, [r7, #4]
 80045a6:	429c      	cmp	r4, r3
 80045a8:	d315      	bcc.n	80045d6 <RDMResponder::Run()+0xce>
 80045aa:	2301      	movs	r3, #1
 80045ac:	7033      	strb	r3, [r6, #0]
 80045ae:	e7ce      	b.n	800454e <RDMResponder::Run()+0x46>
 80045b0:	6823      	ldr	r3, [r4, #0]
 80045b2:	f853 0028 	ldr.w	r0, [r3, r8, lsl #2]
 80045b6:	b158      	cbz	r0, 80045d0 <RDMResponder::Run()+0xc8>
 80045b8:	8a43      	ldrh	r3, [r0, #18]
 80045ba:	8a02      	ldrh	r2, [r0, #16]
 80045bc:	4413      	add	r3, r2
 80045be:	b29b      	uxth	r3, r3
 80045c0:	3b01      	subs	r3, #1
 80045c2:	429e      	cmp	r6, r3
 80045c4:	d304      	bcc.n	80045d0 <RDMResponder::Run()+0xc8>
 80045c6:	6803      	ldr	r3, [r0, #0]
 80045c8:	4632      	mov	r2, r6
 80045ca:	695b      	ldr	r3, [r3, #20]
 80045cc:	4649      	mov	r1, r9
 80045ce:	4798      	blx	r3
 80045d0:	f108 0801 	add.w	r8, r8, #1
 80045d4:	e7de      	b.n	8004594 <RDMResponder::Run()+0x8c>
 80045d6:	683b      	ldr	r3, [r7, #0]
 80045d8:	f853 0024 	ldr.w	r0, [r3, r4, lsl #2]
 80045dc:	b110      	cbz	r0, 80045e4 <RDMResponder::Run()+0xdc>
 80045de:	6803      	ldr	r3, [r0, #0]
 80045e0:	68db      	ldr	r3, [r3, #12]
 80045e2:	4798      	blx	r3
 80045e4:	3401      	adds	r4, #1
 80045e6:	e7dd      	b.n	80045a4 <RDMResponder::Run()+0x9c>
 80045e8:	f04f 30ff 	mov.w	r0, #4294967295	; 0xffffffff
 80045ec:	b003      	add	sp, #12
 80045ee:	e8bd 83f0 	ldmia.w	sp!, {r4, r5, r6, r7, r8, r9, pc}
 80045f2:	f06f 0001 	mvn.w	r0, #1
 80045f6:	e7f9      	b.n	80045ec <RDMResponder::Run()+0xe4>
 80045f8:	20001098 	mulcs	r0, r8, r0
 80045fc:	2000109c 	mulcs	r0, ip, r0
 8004600:	200011a4 	andcs	r1, r0, r4, lsr #3
 8004604:	2000109d 	mulcs	r0, sp, r0

08004608 <RDMDevice::RDMDevice()>:
 8004608:	b573      	push	{r0, r1, r4, r5, r6, lr}
 800460a:	f647 73ff 	movw	r3, #32767	; 0x7fff
 800460e:	f8a0 3040 	strh.w	r3, [r0, #64]	; 0x40
 8004612:	f8a0 3042 	strh.w	r3, [r0, #66]	; 0x42
 8004616:	2300      	movs	r3, #0
 8004618:	f8a0 3044 	strh.w	r3, [r0, #68]	; 0x44
 800461c:	f8a0 3050 	strh.w	r3, [r0, #80]	; 0x50
 8004620:	f880 3052 	strb.w	r3, [r0, #82]	; 0x52
 8004624:	4b1a      	ldr	r3, [pc, #104]	; (8004690 <RDMDevice::RDMDevice()+0x88>)
 8004626:	4d1b      	ldr	r5, [pc, #108]	; (8004694 <RDMDevice::RDMDevice()+0x8c>)
 8004628:	4604      	mov	r4, r0
 800462a:	4669      	mov	r1, sp
 800462c:	6818      	ldr	r0, [r3, #0]
 800462e:	f002 fbc9 	bl	8006dc4 <Network::MacAddressCopyTo(unsigned char*)>
 8004632:	f89d 3002 	ldrb.w	r3, [sp, #2]
 8004636:	f89d 2003 	ldrb.w	r2, [sp, #3]
 800463a:	f89d 1004 	ldrb.w	r1, [sp, #4]
 800463e:	f89d 0005 	ldrb.w	r0, [sp, #5]
 8004642:	f884 3048 	strb.w	r3, [r4, #72]	; 0x48
 8004646:	f884 2049 	strb.w	r2, [r4, #73]	; 0x49
 800464a:	f884 104a 	strb.w	r1, [r4, #74]	; 0x4a
 800464e:	f884 004b 	strb.w	r0, [r4, #75]	; 0x4b
 8004652:	782e      	ldrb	r6, [r5, #0]
 8004654:	f884 6046 	strb.w	r6, [r4, #70]	; 0x46
 8004658:	786d      	ldrb	r5, [r5, #1]
 800465a:	f884 204e 	strb.w	r2, [r4, #78]	; 0x4e
 800465e:	f884 304f 	strb.w	r3, [r4, #79]	; 0x4f
 8004662:	4a0d      	ldr	r2, [pc, #52]	; (8004698 <RDMDevice::RDMDevice()+0x90>)
 8004664:	f884 104d 	strb.w	r1, [r4, #77]	; 0x4d
 8004668:	2315      	movs	r3, #21
 800466a:	f884 3051 	strb.w	r3, [r4, #81]	; 0x51
 800466e:	f884 5047 	strb.w	r5, [r4, #71]	; 0x47
 8004672:	f884 004c 	strb.w	r0, [r4, #76]	; 0x4c
 8004676:	4623      	mov	r3, r4
 8004678:	f104 0115 	add.w	r1, r4, #21
 800467c:	f812 0b01 	ldrb.w	r0, [r2], #1
 8004680:	f803 0b01 	strb.w	r0, [r3], #1
 8004684:	4299      	cmp	r1, r3
 8004686:	d1f9      	bne.n	800467c <RDMDevice::RDMDevice()+0x74>
 8004688:	4620      	mov	r0, r4
 800468a:	b002      	add	sp, #8
 800468c:	bd70      	pop	{r4, r5, r6, pc}
 800468e:	bf00      	nop
 8004690:	20001630 	andcs	r1, r0, r0, lsr r6
 8004694:	0800ab20 	stmdaeq	r0, {r5, r8, r9, fp, sp, pc}
 8004698:	0800ac11 	stmdaeq	r0, {r0, r4, sl, fp, sp, pc}

0800469c <RDMDevice::Print()>:
 800469c:	b513      	push	{r0, r1, r4, lr}
 800469e:	4604      	mov	r4, r0
 80046a0:	481f      	ldr	r0, [pc, #124]	; (8004720 <RDMDevice::Print()+0x84>)
 80046a2:	f7fd fa95 	bl	8001bd0 <puts>
 80046a6:	4b1f      	ldr	r3, [pc, #124]	; (8004724 <RDMDevice::Print()+0x88>)
 80046a8:	461a      	mov	r2, r3
 80046aa:	4619      	mov	r1, r3
 80046ac:	3301      	adds	r3, #1
 80046ae:	7808      	ldrb	r0, [r1, #0]
 80046b0:	2800      	cmp	r0, #0
 80046b2:	d1fa      	bne.n	80046aa <RDMDevice::Print()+0xe>
 80046b4:	1a89      	subs	r1, r1, r2
 80046b6:	2920      	cmp	r1, #32
 80046b8:	bf28      	it	cs
 80046ba:	2120      	movcs	r1, #32
 80046bc:	4a19      	ldr	r2, [pc, #100]	; (8004724 <RDMDevice::Print()+0x88>)
 80046be:	481a      	ldr	r0, [pc, #104]	; (8004728 <RDMDevice::Print()+0x8c>)
 80046c0:	f7fd fa4e 	bl	8001b60 <printf>
 80046c4:	f894 2047 	ldrb.w	r2, [r4, #71]	; 0x47
 80046c8:	f894 1046 	ldrb.w	r1, [r4, #70]	; 0x46
 80046cc:	4817      	ldr	r0, [pc, #92]	; (800472c <RDMDevice::Print()+0x90>)
 80046ce:	f7fd fa47 	bl	8001b60 <printf>
 80046d2:	f894 304c 	ldrb.w	r3, [r4, #76]	; 0x4c
 80046d6:	9300      	str	r3, [sp, #0]
 80046d8:	f894 304d 	ldrb.w	r3, [r4, #77]	; 0x4d
 80046dc:	f894 204e 	ldrb.w	r2, [r4, #78]	; 0x4e
 80046e0:	f894 104f 	ldrb.w	r1, [r4, #79]	; 0x4f
 80046e4:	4812      	ldr	r0, [pc, #72]	; (8004730 <RDMDevice::Print()+0x94>)
 80046e6:	f7fd fa3b 	bl	8001b60 <printf>
 80046ea:	f894 1050 	ldrb.w	r1, [r4, #80]	; 0x50
 80046ee:	4811      	ldr	r0, [pc, #68]	; (8004734 <RDMDevice::Print()+0x98>)
 80046f0:	f104 0220 	add.w	r2, r4, #32
 80046f4:	f7fd fa34 	bl	8001b60 <printf>
 80046f8:	f8b4 1040 	ldrh.w	r1, [r4, #64]	; 0x40
 80046fc:	f894 2040 	ldrb.w	r2, [r4, #64]	; 0x40
 8004700:	480d      	ldr	r0, [pc, #52]	; (8004738 <RDMDevice::Print()+0x9c>)
 8004702:	0a09      	lsrs	r1, r1, #8
 8004704:	f7fd fa2c 	bl	8001b60 <printf>
 8004708:	f8b4 1042 	ldrh.w	r1, [r4, #66]	; 0x42
 800470c:	f894 2042 	ldrb.w	r2, [r4, #66]	; 0x42
 8004710:	480a      	ldr	r0, [pc, #40]	; (800473c <RDMDevice::Print()+0xa0>)
 8004712:	0a09      	lsrs	r1, r1, #8
 8004714:	b002      	add	sp, #8
 8004716:	e8bd 4010 	ldmia.w	sp!, {r4, lr}
 800471a:	f7fd ba21 	b.w	8001b60 <printf>
 800471e:	bf00      	nop
 8004720:	0800ab3e 	stmdaeq	r0, {r1, r2, r3, r4, r5, r8, r9, fp, sp, pc}
 8004724:	0800ab22 	stmdaeq	r0, {r1, r5, r8, r9, fp, sp, pc}
 8004728:	0800ab57 	stmdaeq	r0, {r0, r1, r2, r4, r6, r8, r9, fp, sp, pc}
 800472c:	0800ab72 	stmdaeq	r0, {r1, r4, r5, r6, r8, r9, fp, sp, pc}
 8004730:	0800ab91 	stmdaeq	r0, {r0, r4, r7, r8, r9, fp, sp, pc}
 8004734:	0800abb8 	stmdaeq	r0, {r3, r4, r5, r7, r8, r9, fp, sp, pc}
 8004738:	0800abd3 	stmdaeq	r0, {r0, r1, r4, r6, r7, r8, r9, fp, sp, pc}
 800473c:	0800abf2 	stmdaeq	r0, {r1, r4, r5, r6, r7, r8, r9, fp, sp, pc}

08004740 <USART2_IRQHandler>:
 8004740:	f04f 2240 	mov.w	r2, #1073758208	; 0x40004000
 8004744:	f8d2 3800 	ldr.w	r3, [r2, #2048]	; 0x800
 8004748:	079b      	lsls	r3, r3, #30
 800474a:	d40f      	bmi.n	800476c <USART2_IRQHandler+0x2c>
 800474c:	4b74      	ldr	r3, [pc, #464]	; (8004920 <USART2_IRQHandler+0x1e0>)
 800474e:	f8d2 0804 	ldr.w	r0, [r2, #2052]	; 0x804
 8004752:	f8d3 120c 	ldr.w	r1, [r3, #524]	; 0x20c
 8004756:	b410      	push	{r4}
 8004758:	b2c2      	uxtb	r2, r0
 800475a:	2908      	cmp	r1, #8
 800475c:	d819      	bhi.n	8004792 <USART2_IRQHandler+0x52>
 800475e:	e8df f001 	tbb	[pc, r1]
 8004762:	37182f20 	ldrcc	r2, [r8, -r0, lsr #30]
 8004766:	68a64e18 	stmiavs	r6!, {r3, r4, r9, sl, fp, lr}
 800476a:	f8d20089 			; <UNDEFINED> instruction: 0xf8d20089
 800476e:	3800      	subs	r0, #0
 8004770:	496b      	ldr	r1, [pc, #428]	; (8004920 <USART2_IRQHandler+0x1e0>)
 8004772:	f023 0002 	bic.w	r0, r3, #2
 8004776:	f8c2 0800 	str.w	r0, [r2, #2048]	; 0x800
 800477a:	f8d2 3804 	ldr.w	r3, [r2, #2052]	; 0x804
 800477e:	f8d1 320c 	ldr.w	r3, [r1, #524]	; 0x20c
 8004782:	b92b      	cbnz	r3, 8004790 <USART2_IRQHandler+0x50>
 8004784:	2201      	movs	r2, #1
 8004786:	f8c1 3204 	str.w	r3, [r1, #516]	; 0x204
 800478a:	f8c1 220c 	str.w	r2, [r1, #524]	; 0x20c
 800478e:	4770      	bx	lr
 8004790:	4770      	bx	lr
 8004792:	2000      	movs	r0, #0
 8004794:	f8c3 0204 	str.w	r0, [r3, #516]	; 0x204
 8004798:	f8c3 020c 	str.w	r0, [r3, #524]	; 0x20c
 800479c:	f85d 4b04 	ldr.w	r4, [sp], #4
 80047a0:	4770      	bx	lr
 80047a2:	2408      	movs	r4, #8
 80047a4:	2001      	movs	r0, #1
 80047a6:	f04f 4180 	mov.w	r1, #1073741824	; 0x40000000
 80047aa:	f8c3 420c 	str.w	r4, [r3, #524]	; 0x20c
 80047ae:	701a      	strb	r2, [r3, #0]
 80047b0:	f8c3 0204 	str.w	r0, [r3, #516]	; 0x204
 80047b4:	f8d1 3424 	ldr.w	r3, [r1, #1060]	; 0x424
 80047b8:	4a5a      	ldr	r2, [pc, #360]	; (8004924 <USART2_IRQHandler+0x1e4>)
 80047ba:	b29c      	uxth	r4, r3
 80047bc:	8194      	strh	r4, [r2, #12]
 80047be:	e7ed      	b.n	800479c <USART2_IRQHandler+0x5c>
 80047c0:	2a00      	cmp	r2, #0
 80047c2:	f000 809a 	beq.w	80048fa <USART2_IRQHandler+0x1ba>
 80047c6:	2acc      	cmp	r2, #204	; 0xcc
 80047c8:	f000 808f 	beq.w	80048ea <USART2_IRQHandler+0x1aa>
 80047cc:	2000      	movs	r0, #0
 80047ce:	e7e3      	b.n	8004798 <USART2_IRQHandler+0x58>
 80047d0:	f8d3 0204 	ldr.w	r0, [r3, #516]	; 0x204
 80047d4:	f8d3 1204 	ldr.w	r1, [r3, #516]	; 0x204
 80047d8:	541a      	strb	r2, [r3, r0]
 80047da:	3101      	adds	r1, #1
 80047dc:	f8c3 1204 	str.w	r1, [r3, #516]	; 0x204
 80047e0:	f8d3 4204 	ldr.w	r4, [r3, #516]	; 0x204
 80047e4:	f5b4 7f00 	cmp.w	r4, #512	; 0x200
 80047e8:	d94e      	bls.n	8004888 <USART2_IRQHandler+0x148>
 80047ea:	f8d3 0204 	ldr.w	r0, [r3, #516]	; 0x204
 80047ee:	f440 4200 	orr.w	r2, r0, #32768	; 0x8000
 80047f2:	2100      	movs	r1, #0
 80047f4:	f8c3 2204 	str.w	r2, [r3, #516]	; 0x204
 80047f8:	f8c3 120c 	str.w	r1, [r3, #524]	; 0x20c
 80047fc:	e7ce      	b.n	800479c <USART2_IRQHandler+0x5c>
 80047fe:	f8d3 0204 	ldr.w	r0, [r3, #516]	; 0x204
 8004802:	f8d3 4204 	ldr.w	r4, [r3, #516]	; 0x204
 8004806:	541a      	strb	r2, [r3, r0]
 8004808:	3401      	adds	r4, #1
 800480a:	f8c3 4204 	str.w	r4, [r3, #516]	; 0x204
 800480e:	f8b3 c208 	ldrh.w	ip, [r3, #520]	; 0x208
 8004812:	fa12 f28c 	uxtah	r2, r2, ip
 8004816:	b291      	uxth	r1, r2
 8004818:	f8a3 1208 	strh.w	r1, [r3, #520]	; 0x208
 800481c:	f8d3 0204 	ldr.w	r0, [r3, #516]	; 0x204
 8004820:	f1a0 0418 	sub.w	r4, r0, #24
 8004824:	2ce9      	cmp	r4, #233	; 0xe9
 8004826:	d85b      	bhi.n	80048e0 <USART2_IRQHandler+0x1a0>
 8004828:	789a      	ldrb	r2, [r3, #2]
 800482a:	4290      	cmp	r0, r2
 800482c:	d1b6      	bne.n	800479c <USART2_IRQHandler+0x5c>
 800482e:	2006      	movs	r0, #6
 8004830:	e7b2      	b.n	8004798 <USART2_IRQHandler+0x58>
 8004832:	f8d3 4204 	ldr.w	r4, [r3, #516]	; 0x204
 8004836:	f8d3 1204 	ldr.w	r1, [r3, #516]	; 0x204
 800483a:	551a      	strb	r2, [r3, r4]
 800483c:	3101      	adds	r1, #1
 800483e:	f8c3 1204 	str.w	r1, [r3, #516]	; 0x204
 8004842:	f8b3 0208 	ldrh.w	r0, [r3, #520]	; 0x208
 8004846:	1a82      	subs	r2, r0, r2
 8004848:	b294      	uxth	r4, r2
 800484a:	f8a3 4208 	strh.w	r4, [r3, #520]	; 0x208
 800484e:	f8b3 1208 	ldrh.w	r1, [r3, #520]	; 0x208
 8004852:	b288      	uxth	r0, r1
 8004854:	2800      	cmp	r0, #0
 8004856:	d13f      	bne.n	80048d8 <USART2_IRQHandler+0x198>
 8004858:	785a      	ldrb	r2, [r3, #1]
 800485a:	2a01      	cmp	r2, #1
 800485c:	d13c      	bne.n	80048d8 <USART2_IRQHandler+0x198>
 800485e:	f8d3 4204 	ldr.w	r4, [r3, #516]	; 0x204
 8004862:	4931      	ldr	r1, [pc, #196]	; (8004928 <USART2_IRQHandler+0x1e8>)
 8004864:	4a31      	ldr	r2, [pc, #196]	; (800492c <USART2_IRQHandler+0x1ec>)
 8004866:	f444 4080 	orr.w	r0, r4, #16384	; 0x4000
 800486a:	f8c3 0204 	str.w	r0, [r3, #516]	; 0x204
 800486e:	684c      	ldr	r4, [r1, #4]
 8004870:	6014      	str	r4, [r2, #0]
 8004872:	e7ab      	b.n	80047cc <USART2_IRQHandler+0x8c>
 8004874:	f8d3 4204 	ldr.w	r4, [r3, #516]	; 0x204
 8004878:	2c17      	cmp	r4, #23
 800487a:	bf9f      	itttt	ls
 800487c:	f8d3 0204 	ldrls.w	r0, [r3, #516]	; 0x204
 8004880:	551a      	strbls	r2, [r3, r4]
 8004882:	3001      	addls	r0, #1
 8004884:	f8c3 0204 	strls.w	r0, [r3, #516]	; 0x204
 8004888:	4826      	ldr	r0, [pc, #152]	; (8004924 <USART2_IRQHandler+0x1e4>)
 800488a:	f04f 4c80 	mov.w	ip, #1073741824	; 0x40000000
 800488e:	f8dc 2424 	ldr.w	r2, [ip, #1060]	; 0x424
 8004892:	8983      	ldrh	r3, [r0, #12]
 8004894:	b29c      	uxth	r4, r3
 8004896:	b291      	uxth	r1, r2
 8004898:	f1c4 0204 	rsb	r2, r4, #4
 800489c:	eb02 0341 	add.w	r3, r2, r1, lsl #1
 80048a0:	b29c      	uxth	r4, r3
 80048a2:	8181      	strh	r1, [r0, #12]
 80048a4:	f8cc 4434 	str.w	r4, [ip, #1076]	; 0x434
 80048a8:	f85d 4b04 	ldr.w	r4, [sp], #4
 80048ac:	4770      	bx	lr
 80048ae:	f8d3 4204 	ldr.w	r4, [r3, #516]	; 0x204
 80048b2:	f8d3 1204 	ldr.w	r1, [r3, #516]	; 0x204
 80048b6:	551a      	strb	r2, [r3, r4]
 80048b8:	3101      	adds	r1, #1
 80048ba:	f8c3 1204 	str.w	r1, [r3, #516]	; 0x204
 80048be:	f8b3 c208 	ldrh.w	ip, [r3, #520]	; 0x208
 80048c2:	fa1f f48c 	uxth.w	r4, ip
 80048c6:	eba4 2202 	sub.w	r2, r4, r2, lsl #8
 80048ca:	2007      	movs	r0, #7
 80048cc:	b291      	uxth	r1, r2
 80048ce:	f8a3 1208 	strh.w	r1, [r3, #520]	; 0x208
 80048d2:	f8c3 020c 	str.w	r0, [r3, #524]	; 0x20c
 80048d6:	e761      	b.n	800479c <USART2_IRQHandler+0x5c>
 80048d8:	2100      	movs	r1, #0
 80048da:	f8c3 1204 	str.w	r1, [r3, #516]	; 0x204
 80048de:	e775      	b.n	80047cc <USART2_IRQHandler+0x8c>
 80048e0:	f5b0 7f81 	cmp.w	r0, #258	; 0x102
 80048e4:	f4bf af72 	bcs.w	80047cc <USART2_IRQHandler+0x8c>
 80048e8:	e758      	b.n	800479c <USART2_IRQHandler+0x5c>
 80048ea:	2001      	movs	r0, #1
 80048ec:	f8a3 2208 	strh.w	r2, [r3, #520]	; 0x208
 80048f0:	2105      	movs	r1, #5
 80048f2:	701a      	strb	r2, [r3, #0]
 80048f4:	f8c3 0204 	str.w	r0, [r3, #516]	; 0x204
 80048f8:	e77e      	b.n	80047f8 <USART2_IRQHandler+0xb8>
 80048fa:	490a      	ldr	r1, [pc, #40]	; (8004924 <USART2_IRQHandler+0x1e4>)
 80048fc:	701a      	strb	r2, [r3, #0]
 80048fe:	2401      	movs	r4, #1
 8004900:	f8c3 4204 	str.w	r4, [r3, #516]	; 0x204
 8004904:	6848      	ldr	r0, [r1, #4]
 8004906:	2403      	movs	r4, #3
 8004908:	3001      	adds	r0, #1
 800490a:	f04f 4c80 	mov.w	ip, #1073741824	; 0x40000000
 800490e:	6048      	str	r0, [r1, #4]
 8004910:	f8c3 420c 	str.w	r4, [r3, #524]	; 0x20c
 8004914:	f8dc 3424 	ldr.w	r3, [ip, #1060]	; 0x424
 8004918:	b29a      	uxth	r2, r3
 800491a:	818a      	strh	r2, [r1, #12]
 800491c:	e73e      	b.n	800479c <USART2_IRQHandler+0x5c>
 800491e:	bf00      	nop
 8004920:	200013c0 	andcs	r1, r0, r0, asr #7
 8004924:	200015d4 	ldrdcs	r1, [r0], -r4
 8004928:	e0001000 	and	r1, r0, r0
 800492c:	200015d0 	ldrdcs	r1, [r0], -r0

08004930 <TIMER1_IRQHandler>:
 8004930:	b570      	push	{r4, r5, r6, lr}
 8004932:	f04f 4480 	mov.w	r4, #1073741824	; 0x40000000
 8004936:	6923      	ldr	r3, [r4, #16]
 8004938:	071b      	lsls	r3, r3, #28
 800493a:	d400      	bmi.n	800493e <TIMER1_IRQHandler+0xe>
 800493c:	bd70      	pop	{r4, r5, r6, pc}
 800493e:	4d28      	ldr	r5, [pc, #160]	; (80049e0 <TIMER1_IRQHandler+0xb0>)
 8004940:	f8d5 2208 	ldr.w	r2, [r5, #520]	; 0x208
 8004944:	2a02      	cmp	r2, #2
 8004946:	d00a      	beq.n	800495e <TIMER1_IRQHandler+0x2e>
 8004948:	2a04      	cmp	r2, #4
 800494a:	d035      	beq.n	80049b8 <TIMER1_IRQHandler+0x88>
 800494c:	2a01      	cmp	r2, #1
 800494e:	d01b      	beq.n	8004988 <TIMER1_IRQHandler+0x58>
 8004950:	e8bd 4070 	ldmia.w	sp!, {r4, r5, r6, lr}
 8004954:	2108      	movs	r1, #8
 8004956:	f04f 4080 	mov.w	r0, #1073741824	; 0x40000000
 800495a:	f004 ba4c 	b.w	8008df6 <timer_interrupt_flag_clear>
 800495e:	4c21      	ldr	r4, [pc, #132]	; (80049e4 <TIMER1_IRQHandler+0xb4>)
 8004960:	69e6      	ldr	r6, [r4, #28]
 8004962:	f026 0601 	bic.w	r6, r6, #1
 8004966:	4620      	mov	r0, r4
 8004968:	2101      	movs	r1, #1
 800496a:	61e6      	str	r6, [r4, #28]
 800496c:	f003 fedc 	bl	8008728 <dma_interrupt_flag_clear>
 8004970:	f8b5 1202 	ldrh.w	r1, [r5, #514]	; 0x202
 8004974:	481c      	ldr	r0, [pc, #112]	; (80049e8 <TIMER1_IRQHandler+0xb8>)
 8004976:	62a5      	str	r5, [r4, #40]	; 0x28
 8004978:	f046 0203 	orr.w	r2, r6, #3
 800497c:	6221      	str	r1, [r4, #32]
 800497e:	2180      	movs	r1, #128	; 0x80
 8004980:	61e2      	str	r2, [r4, #28]
 8004982:	f004 fb1b 	bl	8008fbc <usart_dma_transmit_config>
 8004986:	e7e3      	b.n	8004950 <TIMER1_IRQHandler+0x20>
 8004988:	2203      	movs	r2, #3
 800498a:	2118      	movs	r1, #24
 800498c:	4817      	ldr	r0, [pc, #92]	; (80049ec <TIMER1_IRQHandler+0xbc>)
 800498e:	4e18      	ldr	r6, [pc, #96]	; (80049f0 <TIMER1_IRQHandler+0xc0>)
 8004990:	f44f 6380 	mov.w	r3, #1024	; 0x400
 8004994:	f003 ff64 	bl	8008860 <gpio_init>
 8004998:	2102      	movs	r1, #2
 800499a:	f8c5 1208 	str.w	r1, [r5, #520]	; 0x208
 800499e:	6a62      	ldr	r2, [r4, #36]	; 0x24
 80049a0:	6835      	ldr	r5, [r6, #0]
 80049a2:	4620      	mov	r0, r4
 80049a4:	442a      	add	r2, r5
 80049a6:	f004 fa52 	bl	8008e4e <timer_channel_output_pulse_value_config>
 80049aa:	e8bd 4070 	ldmia.w	sp!, {r4, r5, r6, lr}
 80049ae:	2108      	movs	r1, #8
 80049b0:	f04f 4080 	mov.w	r0, #1073741824	; 0x40000000
 80049b4:	f004 ba1f 	b.w	8008df6 <timer_interrupt_flag_clear>
 80049b8:	4e0c      	ldr	r6, [pc, #48]	; (80049ec <TIMER1_IRQHandler+0xbc>)
 80049ba:	f44f 6380 	mov.w	r3, #1024	; 0x400
 80049be:	2203      	movs	r2, #3
 80049c0:	4630      	mov	r0, r6
 80049c2:	2110      	movs	r1, #16
 80049c4:	f003 ff4c 	bl	8008860 <gpio_init>
 80049c8:	2101      	movs	r1, #1
 80049ca:	480a      	ldr	r0, [pc, #40]	; (80049f4 <TIMER1_IRQHandler+0xc4>)
 80049cc:	f44f 6380 	mov.w	r3, #1024	; 0x400
 80049d0:	6173      	str	r3, [r6, #20]
 80049d2:	f8c5 1208 	str.w	r1, [r5, #520]	; 0x208
 80049d6:	6a62      	ldr	r2, [r4, #36]	; 0x24
 80049d8:	6805      	ldr	r5, [r0, #0]
 80049da:	2102      	movs	r1, #2
 80049dc:	e7e1      	b.n	80049a2 <TIMER1_IRQHandler+0x72>
 80049de:	bf00      	nop
 80049e0:	200011b4 			; <UNDEFINED> instruction: 0x200011b4
 80049e4:	40020000 	andmi	r0, r2, r0
 80049e8:	40004800 	andmi	r4, r0, r0, lsl #16
 80049ec:	40011000 	andmi	r1, r1, r0
 80049f0:	200011ac 	andcs	r1, r0, ip, lsr #3
 80049f4:	200011b0 			; <UNDEFINED> instruction: 0x200011b0

080049f8 <TIMER4_IRQHandler>:
 80049f8:	4770      	bx	lr
 80049fa:	bf00      	nop

080049fc <TIMER2_IRQHandler>:
 80049fc:	f04f 4380 	mov.w	r3, #1073741824	; 0x40000000
 8004a00:	f8d3 1410 	ldr.w	r1, [r3, #1040]	; 0x410
 8004a04:	078b      	lsls	r3, r1, #30
 8004a06:	d508      	bpl.n	8004a1a <TIMER2_IRQHandler+0x1e>
 8004a08:	480f      	ldr	r0, [pc, #60]	; (8004a48 <TIMER2_IRQHandler+0x4c>)
 8004a0a:	f8d0 220c 	ldr.w	r2, [r0, #524]	; 0x20c
 8004a0e:	2a03      	cmp	r2, #3
 8004a10:	d006      	beq.n	8004a20 <TIMER2_IRQHandler+0x24>
 8004a12:	f8d0 320c 	ldr.w	r3, [r0, #524]	; 0x20c
 8004a16:	2b08      	cmp	r3, #8
 8004a18:	d00e      	beq.n	8004a38 <TIMER2_IRQHandler+0x3c>
 8004a1a:	480c      	ldr	r0, [pc, #48]	; (8004a4c <TIMER2_IRQHandler+0x50>)
 8004a1c:	f004 b9eb 	b.w	8008df6 <timer_interrupt_flag_clear>
 8004a20:	2300      	movs	r3, #0
 8004a22:	f8c0 320c 	str.w	r3, [r0, #524]	; 0x20c
 8004a26:	f8d0 2204 	ldr.w	r2, [r0, #516]	; 0x204
 8004a2a:	f442 4200 	orr.w	r2, r2, #32768	; 0x8000
 8004a2e:	f8c0 2204 	str.w	r2, [r0, #516]	; 0x204
 8004a32:	4806      	ldr	r0, [pc, #24]	; (8004a4c <TIMER2_IRQHandler+0x50>)
 8004a34:	f004 b9df 	b.w	8008df6 <timer_interrupt_flag_clear>
 8004a38:	2200      	movs	r2, #0
 8004a3a:	f8c0 220c 	str.w	r2, [r0, #524]	; 0x20c
 8004a3e:	f8d0 3204 	ldr.w	r3, [r0, #516]	; 0x204
 8004a42:	f443 4280 	orr.w	r2, r3, #16384	; 0x4000
 8004a46:	e7f2      	b.n	8004a2e <TIMER2_IRQHandler+0x32>
 8004a48:	200013c0 	andcs	r1, r0, r0, asr #7
 8004a4c:	40000400 	andmi	r0, r0, r0, lsl #8

08004a50 <TIMER3_IRQHandler>:
 8004a50:	f04f 4380 	mov.w	r3, #1073741824	; 0x40000000
 8004a54:	4802      	ldr	r0, [pc, #8]	; (8004a60 <TIMER3_IRQHandler+0x10>)
 8004a56:	f8d3 1810 	ldr.w	r1, [r3, #2064]	; 0x810
 8004a5a:	f004 b9cc 	b.w	8008df6 <timer_interrupt_flag_clear>
 8004a5e:	bf00      	nop
 8004a60:	40000800 	andmi	r0, r0, r0, lsl #16

08004a64 <TIMER6_IRQHandler>:
 8004a64:	4b07      	ldr	r3, [pc, #28]	; (8004a84 <TIMER6_IRQHandler+0x20>)
 8004a66:	f8d3 1410 	ldr.w	r1, [r3, #1040]	; 0x410
 8004a6a:	07cb      	lsls	r3, r1, #31
 8004a6c:	d506      	bpl.n	8004a7c <TIMER6_IRQHandler+0x18>
 8004a6e:	4b06      	ldr	r3, [pc, #24]	; (8004a88 <TIMER6_IRQHandler+0x24>)
 8004a70:	685a      	ldr	r2, [r3, #4]
 8004a72:	6898      	ldr	r0, [r3, #8]
 8004a74:	1a12      	subs	r2, r2, r0
 8004a76:	601a      	str	r2, [r3, #0]
 8004a78:	6858      	ldr	r0, [r3, #4]
 8004a7a:	6098      	str	r0, [r3, #8]
 8004a7c:	4803      	ldr	r0, [pc, #12]	; (8004a8c <TIMER6_IRQHandler+0x28>)
 8004a7e:	f004 b9ba 	b.w	8008df6 <timer_interrupt_flag_clear>
 8004a82:	bf00      	nop
 8004a84:	40001000 	andmi	r1, r0, r0
 8004a88:	200015d4 	ldrdcs	r1, [r0], -r4
 8004a8c:	40001400 	andmi	r1, r0, r0, lsl #8

08004a90 <DMA0_Channel1_IRQHandler>:
 8004a90:	b510      	push	{r4, lr}
 8004a92:	4814      	ldr	r0, [pc, #80]	; (8004ae4 <DMA0_Channel1_IRQHandler+0x54>)
 8004a94:	2202      	movs	r2, #2
 8004a96:	2101      	movs	r1, #1
 8004a98:	f003 fe18 	bl	80086cc <dma_interrupt_flag_get>
 8004a9c:	2801      	cmp	r0, #1
 8004a9e:	d006      	beq.n	8004aae <DMA0_Channel1_IRQHandler+0x1e>
 8004aa0:	e8bd 4010 	ldmia.w	sp!, {r4, lr}
 8004aa4:	480f      	ldr	r0, [pc, #60]	; (8004ae4 <DMA0_Channel1_IRQHandler+0x54>)
 8004aa6:	2203      	movs	r2, #3
 8004aa8:	2101      	movs	r1, #1
 8004aaa:	f003 be3d 	b.w	8008728 <dma_interrupt_flag_clear>
 8004aae:	4601      	mov	r1, r0
 8004ab0:	220e      	movs	r2, #14
 8004ab2:	480c      	ldr	r0, [pc, #48]	; (8004ae4 <DMA0_Channel1_IRQHandler+0x54>)
 8004ab4:	4c0c      	ldr	r4, [pc, #48]	; (8004ae8 <DMA0_Channel1_IRQHandler+0x58>)
 8004ab6:	f003 fe39 	bl	800872c <dma_interrupt_disable>
 8004aba:	480c      	ldr	r0, [pc, #48]	; (8004aec <DMA0_Channel1_IRQHandler+0x5c>)
 8004abc:	2106      	movs	r1, #6
 8004abe:	f004 fa8f 	bl	8008fe0 <usart_flag_clear>
 8004ac2:	f8d4 0204 	ldr.w	r0, [r4, #516]	; 0x204
 8004ac6:	b910      	cbnz	r0, 8004ace <DMA0_Channel1_IRQHandler+0x3e>
 8004ac8:	f8c4 0208 	str.w	r0, [r4, #520]	; 0x208
 8004acc:	e7e8      	b.n	8004aa0 <DMA0_Channel1_IRQHandler+0x10>
 8004ace:	f04f 4080 	mov.w	r0, #1073741824	; 0x40000000
 8004ad2:	4b07      	ldr	r3, [pc, #28]	; (8004af0 <DMA0_Channel1_IRQHandler+0x60>)
 8004ad4:	6a42      	ldr	r2, [r0, #36]	; 0x24
 8004ad6:	681b      	ldr	r3, [r3, #0]
 8004ad8:	2102      	movs	r1, #2
 8004ada:	441a      	add	r2, r3
 8004adc:	f004 f9b7 	bl	8008e4e <timer_channel_output_pulse_value_config>
 8004ae0:	2004      	movs	r0, #4
 8004ae2:	e7f1      	b.n	8004ac8 <DMA0_Channel1_IRQHandler+0x38>
 8004ae4:	40020000 	andmi	r0, r2, r0
 8004ae8:	200011b4 			; <UNDEFINED> instruction: 0x200011b4
 8004aec:	40004800 	andmi	r4, r0, r0, lsl #16
 8004af0:	200011a8 	andcs	r1, r0, r8, lsr #3

08004af4 <Dmx::Dmx()>:
 8004af4:	e92d 47f0 	stmdb	sp!, {r4, r5, r6, r7, r8, r9, sl, lr}
 8004af8:	4e9f      	ldr	r6, [pc, #636]	; (8004d78 <Dmx::Dmx()+0x284>)
 8004afa:	4fa0      	ldr	r7, [pc, #640]	; (8004d7c <Dmx::Dmx()+0x288>)
 8004afc:	6030      	str	r0, [r6, #0]
 8004afe:	22b0      	movs	r2, #176	; 0xb0
 8004b00:	230c      	movs	r3, #12
 8004b02:	f44f 7400 	mov.w	r4, #512	; 0x200
 8004b06:	f246 11a8 	movw	r1, #25000	; 0x61a8
 8004b0a:	e9c0 2300 	strd	r2, r3, [r0]
 8004b0e:	e9c0 1102 	strd	r1, r1, [r0, #8]
 8004b12:	4605      	mov	r5, r0
 8004b14:	8284      	strh	r4, [r0, #20]
 8004b16:	489a      	ldr	r0, [pc, #616]	; (8004d80 <Dmx::Dmx()+0x28c>)
 8004b18:	603b      	str	r3, [r7, #0]
 8004b1a:	6002      	str	r2, [r0, #0]
 8004b1c:	4a99      	ldr	r2, [pc, #612]	; (8004d84 <Dmx::Dmx()+0x290>)
 8004b1e:	489a      	ldr	r0, [pc, #616]	; (8004d88 <Dmx::Dmx()+0x294>)
 8004b20:	f44f 610c 	mov.w	r1, #2240	; 0x8c0
 8004b24:	6011      	str	r1, [r2, #0]
 8004b26:	f44f 6380 	mov.w	r3, #1024	; 0x400
 8004b2a:	b08a      	sub	sp, #40	; 0x28
 8004b2c:	2203      	movs	r2, #3
 8004b2e:	2110      	movs	r1, #16
 8004b30:	f003 fe96 	bl	8008860 <gpio_init>
 8004b34:	69ab      	ldr	r3, [r5, #24]
 8004b36:	612c      	str	r4, [r5, #16]
 8004b38:	2b01      	cmp	r3, #1
 8004b3a:	4c94      	ldr	r4, [pc, #592]	; (8004d8c <Dmx::Dmx()+0x298>)
 8004b3c:	f000 8105 	beq.w	8004d4a <Dmx::Dmx()+0x256>
 8004b40:	6823      	ldr	r3, [r4, #0]
 8004b42:	2601      	movs	r6, #1
 8004b44:	61ae      	str	r6, [r5, #24]
 8004b46:	2b00      	cmp	r3, #0
 8004b48:	f000 80fd 	beq.w	8004d46 <Dmx::Dmx()+0x252>
 8004b4c:	4890      	ldr	r0, [pc, #576]	; (8004d90 <Dmx::Dmx()+0x29c>)
 8004b4e:	4f91      	ldr	r7, [pc, #580]	; (8004d94 <Dmx::Dmx()+0x2a0>)
 8004b50:	f240 3105 	movw	r1, #773	; 0x305
 8004b54:	f004 fa56 	bl	8009004 <usart_interrupt_disable>
 8004b58:	f04f 4980 	mov.w	r9, #1073741824	; 0x40000000
 8004b5c:	2200      	movs	r2, #0
 8004b5e:	f8c7 220c 	str.w	r2, [r7, #524]	; 0x20c
 8004b62:	f8d9 040c 	ldr.w	r0, [r9, #1036]	; 0x40c
 8004b66:	f020 0102 	bic.w	r1, r0, #2
 8004b6a:	f8c9 140c 	str.w	r1, [r9, #1036]	; 0x40c
 8004b6e:	6022      	str	r2, [r4, #0]
 8004b70:	4c89      	ldr	r4, [pc, #548]	; (8004d98 <Dmx::Dmx()+0x2a4>)
 8004b72:	f44f 6680 	mov.w	r6, #1024	; 0x400
 8004b76:	f8c4 6c14 	str.w	r6, [r4, #3092]	; 0xc14
 8004b7a:	2400      	movs	r4, #0
 8004b7c:	4887      	ldr	r0, [pc, #540]	; (8004d9c <Dmx::Dmx()+0x2a8>)
 8004b7e:	f8c7 420c 	str.w	r4, [r7, #524]	; 0x20c
 8004b82:	f240 2202 	movw	r2, #514	; 0x202
 8004b86:	4621      	mov	r1, r4
 8004b88:	f8c0 4204 	str.w	r4, [r0, #516]	; 0x204
 8004b8c:	f8c0 4208 	str.w	r4, [r0, #520]	; 0x208
 8004b90:	f003 fb25 	bl	80081de <memset>
 8004b94:	4682      	mov	sl, r0
 8004b96:	f240 2701 	movw	r7, #513	; 0x201
 8004b9a:	f44f 60a0 	mov.w	r0, #1280	; 0x500
 8004b9e:	f04f 0801 	mov.w	r8, #1
 8004ba2:	f8aa 7202 	strh.w	r7, [sl, #514]	; 0x202
 8004ba6:	f003 fee9 	bl	800897c <rcu_periph_clock_enable>
 8004baa:	f240 5001 	movw	r0, #1281	; 0x501
 8004bae:	f003 fee5 	bl	800897c <rcu_periph_clock_enable>
 8004bb2:	4641      	mov	r1, r8
 8004bb4:	487a      	ldr	r0, [pc, #488]	; (8004da0 <Dmx::Dmx()+0x2ac>)
 8004bb6:	4e7b      	ldr	r6, [pc, #492]	; (8004da4 <Dmx::Dmx()+0x2b0>)
 8004bb8:	f003 fd00 	bl	80085bc <dma_deinit>
 8004bbc:	f44f 7280 	mov.w	r2, #256	; 0x100
 8004bc0:	f44f 5100 	mov.w	r1, #8192	; 0x2000
 8004bc4:	4b78      	ldr	r3, [pc, #480]	; (8004da8 <Dmx::Dmx()+0x2b4>)
 8004bc6:	f8ad 2024 	strh.w	r2, [sp, #36]	; 0x24
 8004bca:	9108      	str	r1, [sp, #32]
 8004bcc:	aa03      	add	r2, sp, #12
 8004bce:	4641      	mov	r1, r8
 8004bd0:	4873      	ldr	r0, [pc, #460]	; (8004da0 <Dmx::Dmx()+0x2ac>)
 8004bd2:	9303      	str	r3, [sp, #12]
 8004bd4:	f88d 8026 	strb.w	r8, [sp, #38]	; 0x26
 8004bd8:	9406      	str	r4, [sp, #24]
 8004bda:	9404      	str	r4, [sp, #16]
 8004bdc:	f003 fd16 	bl	800860c <dma_init>
 8004be0:	4641      	mov	r1, r8
 8004be2:	486f      	ldr	r0, [pc, #444]	; (8004da0 <Dmx::Dmx()+0x2ac>)
 8004be4:	f003 fd4c 	bl	8008680 <dma_circulation_disable>
 8004be8:	4641      	mov	r1, r8
 8004bea:	486d      	ldr	r0, [pc, #436]	; (8004da0 <Dmx::Dmx()+0x2ac>)
 8004bec:	f003 fd58 	bl	80086a0 <dma_memory_to_memory_disable>
 8004bf0:	f04f 0910 	mov.w	r9, #16
 8004bf4:	486a      	ldr	r0, [pc, #424]	; (8004da0 <Dmx::Dmx()+0x2ac>)
 8004bf6:	220e      	movs	r2, #14
 8004bf8:	4641      	mov	r1, r8
 8004bfa:	f003 fd97 	bl	800872c <dma_interrupt_disable>
 8004bfe:	f886 930c 	strb.w	r9, [r6, #780]	; 0x30c
 8004c02:	f44f 5080 	mov.w	r0, #4096	; 0x1000
 8004c06:	6030      	str	r0, [r6, #0]
 8004c08:	f44f 60e0 	mov.w	r0, #1792	; 0x700
 8004c0c:	f003 feb6 	bl	800897c <rcu_periph_clock_enable>
 8004c10:	f04f 4080 	mov.w	r0, #1073741824	; 0x40000000
 8004c14:	f004 f846 	bl	8008ca4 <timer_deinit>
 8004c18:	f04f 37ff 	mov.w	r7, #4294967295	; 0xffffffff
 8004c1c:	a903      	add	r1, sp, #12
 8004c1e:	f04f 0a77 	mov.w	sl, #119	; 0x77
 8004c22:	f04f 4080 	mov.w	r0, #1073741824	; 0x40000000
 8004c26:	9404      	str	r4, [sp, #16]
 8004c28:	f88d 4018 	strb.w	r4, [sp, #24]
 8004c2c:	9705      	str	r7, [sp, #20]
 8004c2e:	f8cd a00c 	str.w	sl, [sp, #12]
 8004c32:	f004 f899 	bl	8008d68 <timer_init>
 8004c36:	4639      	mov	r1, r7
 8004c38:	f04f 4080 	mov.w	r0, #1073741824	; 0x40000000
 8004c3c:	f004 f8de 	bl	8008dfc <timer_flag_clear>
 8004c40:	4639      	mov	r1, r7
 8004c42:	f04f 4080 	mov.w	r0, #1073741824	; 0x40000000
 8004c46:	f004 f8d6 	bl	8008df6 <timer_interrupt_flag_clear>
 8004c4a:	464a      	mov	r2, r9
 8004c4c:	2102      	movs	r1, #2
 8004c4e:	f04f 4080 	mov.w	r0, #1073741824	; 0x40000000
 8004c52:	f004 f8d6 	bl	8008e02 <timer_channel_output_mode_config>
 8004c56:	463a      	mov	r2, r7
 8004c58:	2102      	movs	r1, #2
 8004c5a:	f04f 4080 	mov.w	r0, #1073741824	; 0x40000000
 8004c5e:	f004 f8f6 	bl	8008e4e <timer_channel_output_pulse_value_config>
 8004c62:	f886 431c 	strb.w	r4, [r6, #796]	; 0x31c
 8004c66:	f04f 5380 	mov.w	r3, #268435456	; 0x10000000
 8004c6a:	6033      	str	r3, [r6, #0]
 8004c6c:	f04f 4080 	mov.w	r0, #1073741824	; 0x40000000
 8004c70:	f004 f8b8 	bl	8008de4 <timer_enable>
 8004c74:	f240 7001 	movw	r0, #1793	; 0x701
 8004c78:	f003 fe80 	bl	800897c <rcu_periph_clock_enable>
 8004c7c:	484b      	ldr	r0, [pc, #300]	; (8004dac <Dmx::Dmx()+0x2b8>)
 8004c7e:	f004 f811 	bl	8008ca4 <timer_deinit>
 8004c82:	a903      	add	r1, sp, #12
 8004c84:	4849      	ldr	r0, [pc, #292]	; (8004dac <Dmx::Dmx()+0x2b8>)
 8004c86:	f8cd a00c 	str.w	sl, [sp, #12]
 8004c8a:	e9cd 4704 	strd	r4, r7, [sp, #16]
 8004c8e:	f88d 4018 	strb.w	r4, [sp, #24]
 8004c92:	f004 f869 	bl	8008d68 <timer_init>
 8004c96:	4639      	mov	r1, r7
 8004c98:	4844      	ldr	r0, [pc, #272]	; (8004dac <Dmx::Dmx()+0x2b8>)
 8004c9a:	f004 f8af 	bl	8008dfc <timer_flag_clear>
 8004c9e:	4639      	mov	r1, r7
 8004ca0:	4842      	ldr	r0, [pc, #264]	; (8004dac <Dmx::Dmx()+0x2b8>)
 8004ca2:	f004 f8a8 	bl	8008df6 <timer_interrupt_flag_clear>
 8004ca6:	464a      	mov	r2, r9
 8004ca8:	4621      	mov	r1, r4
 8004caa:	4840      	ldr	r0, [pc, #256]	; (8004dac <Dmx::Dmx()+0x2b8>)
 8004cac:	f004 f8a9 	bl	8008e02 <timer_channel_output_mode_config>
 8004cb0:	464a      	mov	r2, r9
 8004cb2:	4641      	mov	r1, r8
 8004cb4:	483d      	ldr	r0, [pc, #244]	; (8004dac <Dmx::Dmx()+0x2b8>)
 8004cb6:	f004 f8a4 	bl	8008e02 <timer_channel_output_mode_config>
 8004cba:	464a      	mov	r2, r9
 8004cbc:	483b      	ldr	r0, [pc, #236]	; (8004dac <Dmx::Dmx()+0x2b8>)
 8004cbe:	2102      	movs	r1, #2
 8004cc0:	f004 f89f 	bl	8008e02 <timer_channel_output_mode_config>
 8004cc4:	4839      	ldr	r0, [pc, #228]	; (8004dac <Dmx::Dmx()+0x2b8>)
 8004cc6:	464a      	mov	r2, r9
 8004cc8:	2103      	movs	r1, #3
 8004cca:	f004 f89a 	bl	8008e02 <timer_channel_output_mode_config>
 8004cce:	f886 931d 	strb.w	r9, [r6, #797]	; 0x31d
 8004cd2:	f04f 5200 	mov.w	r2, #536870912	; 0x20000000
 8004cd6:	6032      	str	r2, [r6, #0]
 8004cd8:	4834      	ldr	r0, [pc, #208]	; (8004dac <Dmx::Dmx()+0x2b8>)
 8004cda:	f004 f883 	bl	8008de4 <timer_enable>
 8004cde:	f240 7005 	movw	r0, #1797	; 0x705
 8004ce2:	f003 fe4b 	bl	800897c <rcu_periph_clock_enable>
 8004ce6:	4832      	ldr	r0, [pc, #200]	; (8004db0 <Dmx::Dmx()+0x2bc>)
 8004ce8:	f003 ffdc 	bl	8008ca4 <timer_deinit>
 8004cec:	f642 69df 	movw	r9, #11999	; 0x2edf
 8004cf0:	f242 7310 	movw	r3, #10000	; 0x2710
 8004cf4:	a903      	add	r1, sp, #12
 8004cf6:	482e      	ldr	r0, [pc, #184]	; (8004db0 <Dmx::Dmx()+0x2bc>)
 8004cf8:	9305      	str	r3, [sp, #20]
 8004cfa:	f8ad 900c 	strh.w	r9, [sp, #12]
 8004cfe:	f004 f833 	bl	8008d68 <timer_init>
 8004d02:	4639      	mov	r1, r7
 8004d04:	482a      	ldr	r0, [pc, #168]	; (8004db0 <Dmx::Dmx()+0x2bc>)
 8004d06:	f004 f879 	bl	8008dfc <timer_flag_clear>
 8004d0a:	4639      	mov	r1, r7
 8004d0c:	4828      	ldr	r0, [pc, #160]	; (8004db0 <Dmx::Dmx()+0x2bc>)
 8004d0e:	f004 f872 	bl	8008df6 <timer_interrupt_flag_clear>
 8004d12:	4827      	ldr	r0, [pc, #156]	; (8004db0 <Dmx::Dmx()+0x2bc>)
 8004d14:	4641      	mov	r1, r8
 8004d16:	f004 f86a 	bl	8008dee <timer_interrupt_enable>
 8004d1a:	f886 4337 	strb.w	r4, [r6, #823]	; 0x337
 8004d1e:	f44f 0100 	mov.w	r1, #8388608	; 0x800000
 8004d22:	6071      	str	r1, [r6, #4]
 8004d24:	4822      	ldr	r0, [pc, #136]	; (8004db0 <Dmx::Dmx()+0x2bc>)
 8004d26:	f004 f85d 	bl	8008de4 <timer_enable>
 8004d2a:	2002      	movs	r0, #2
 8004d2c:	9000      	str	r0, [sp, #0]
 8004d2e:	4921      	ldr	r1, [pc, #132]	; (8004db4 <Dmx::Dmx()+0x2c0>)
 8004d30:	4817      	ldr	r0, [pc, #92]	; (8004d90 <Dmx::Dmx()+0x29c>)
 8004d32:	4623      	mov	r3, r4
 8004d34:	2208      	movs	r2, #8
 8004d36:	f004 fc11 	bl	800955c <gd32_uart_begin>
 8004d3a:	2480      	movs	r4, #128	; 0x80
 8004d3c:	6074      	str	r4, [r6, #4]
 8004d3e:	4628      	mov	r0, r5
 8004d40:	b00a      	add	sp, #40	; 0x28
 8004d42:	e8bd 87f0 	ldmia.w	sp!, {r4, r5, r6, r7, r8, r9, sl, pc}
 8004d46:	4f13      	ldr	r7, [pc, #76]	; (8004d94 <Dmx::Dmx()+0x2a0>)
 8004d48:	e712      	b.n	8004b70 <Dmx::Dmx()+0x7c>
 8004d4a:	6826      	ldr	r6, [r4, #0]
 8004d4c:	b196      	cbz	r6, 8004d74 <Dmx::Dmx()+0x280>
 8004d4e:	4810      	ldr	r0, [pc, #64]	; (8004d90 <Dmx::Dmx()+0x29c>)
 8004d50:	4f10      	ldr	r7, [pc, #64]	; (8004d94 <Dmx::Dmx()+0x2a0>)
 8004d52:	f240 3105 	movw	r1, #773	; 0x305
 8004d56:	f004 f955 	bl	8009004 <usart_interrupt_disable>
 8004d5a:	f04f 4880 	mov.w	r8, #1073741824	; 0x40000000
 8004d5e:	2200      	movs	r2, #0
 8004d60:	f8c7 220c 	str.w	r2, [r7, #524]	; 0x20c
 8004d64:	f8d8 040c 	ldr.w	r0, [r8, #1036]	; 0x40c
 8004d68:	f020 0102 	bic.w	r1, r0, #2
 8004d6c:	f8c8 140c 	str.w	r1, [r8, #1036]	; 0x40c
 8004d70:	6022      	str	r2, [r4, #0]
 8004d72:	e702      	b.n	8004b7a <Dmx::Dmx()+0x86>
 8004d74:	4f07      	ldr	r7, [pc, #28]	; (8004d94 <Dmx::Dmx()+0x2a0>)
 8004d76:	e700      	b.n	8004b7a <Dmx::Dmx()+0x86>
 8004d78:	200011a4 	andcs	r1, r0, r4, lsr #3
 8004d7c:	200011ac 	andcs	r1, r0, ip, lsr #3
 8004d80:	200011b0 			; <UNDEFINED> instruction: 0x200011b0
 8004d84:	200011a8 	andcs	r1, r0, r8, lsr #3
 8004d88:	40010c00 	andmi	r0, r1, r0, lsl #24
 8004d8c:	200015e4 	andcs	r1, r0, r4, ror #11
 8004d90:	40004800 	andmi	r4, r0, r0, lsl #16
 8004d94:	200013c0 	andcs	r1, r0, r0, asr #7
 8004d98:	40010000 	andmi	r0, r1, r0
 8004d9c:	200011b4 			; <UNDEFINED> instruction: 0x200011b4
 8004da0:	40020000 	andmi	r0, r2, r0
 8004da4:	e000e100 	and	lr, r0, r0, lsl #2
 8004da8:	40004804 	andmi	r4, r0, r4, lsl #16
 8004dac:	40000400 	andmi	r0, r0, r0, lsl #8
 8004db0:	40001400 	andmi	r1, r0, r0, lsl #8
 8004db4:	0003d090 	muleq	r3, r0, r0

08004db8 <Dmx::SetPortDirection(unsigned long, dmx::PortDirection, bool)>:
 8004db8:	6981      	ldr	r1, [r0, #24]
 8004dba:	4291      	cmp	r1, r2
 8004dbc:	e92d 41f0 	stmdb	sp!, {r4, r5, r6, r7, r8, lr}
 8004dc0:	461e      	mov	r6, r3
 8004dc2:	d029      	beq.n	8004e18 <Dmx::SetPortDirection(unsigned long, dmx::PortDirection, bool)+0x60>
 8004dc4:	4f6e      	ldr	r7, [pc, #440]	; (8004f80 <Dmx::SetPortDirection(unsigned long, dmx::PortDirection, bool)+0x1c8>)
 8004dc6:	6182      	str	r2, [r0, #24]
 8004dc8:	683d      	ldr	r5, [r7, #0]
 8004dca:	4604      	mov	r4, r0
 8004dcc:	b1e5      	cbz	r5, 8004e08 <Dmx::SetPortDirection(unsigned long, dmx::PortDirection, bool)+0x50>
 8004dce:	2a00      	cmp	r2, #0
 8004dd0:	d15c      	bne.n	8004e8c <Dmx::SetPortDirection(unsigned long, dmx::PortDirection, bool)+0xd4>
 8004dd2:	4d6c      	ldr	r5, [pc, #432]	; (8004f84 <Dmx::SetPortDirection(unsigned long, dmx::PortDirection, bool)+0x1cc>)
 8004dd4:	f8d5 1208 	ldr.w	r1, [r5, #520]	; 0x208
 8004dd8:	2904      	cmp	r1, #4
 8004dda:	d071      	beq.n	8004ec0 <Dmx::SetPortDirection(unsigned long, dmx::PortDirection, bool)+0x108>
 8004ddc:	f8d5 3208 	ldr.w	r3, [r5, #520]	; 0x208
 8004de0:	2b00      	cmp	r3, #0
 8004de2:	d1f7      	bne.n	8004dd4 <Dmx::SetPortDirection(unsigned long, dmx::PortDirection, bool)+0x1c>
 8004de4:	4968      	ldr	r1, [pc, #416]	; (8004f88 <Dmx::SetPortDirection(unsigned long, dmx::PortDirection, bool)+0x1d0>)
 8004de6:	603b      	str	r3, [r7, #0]
 8004de8:	f44f 6080 	mov.w	r0, #1024	; 0x400
 8004dec:	f8c1 0c10 	str.w	r0, [r1, #3088]	; 0xc10
 8004df0:	b146      	cbz	r6, 8004e04 <Dmx::SetPortDirection(unsigned long, dmx::PortDirection, bool)+0x4c>
 8004df2:	69a2      	ldr	r2, [r4, #24]
 8004df4:	bb3a      	cbnz	r2, 8004e46 <Dmx::SetPortDirection(unsigned long, dmx::PortDirection, bool)+0x8e>
 8004df6:	4d63      	ldr	r5, [pc, #396]	; (8004f84 <Dmx::SetPortDirection(unsigned long, dmx::PortDirection, bool)+0x1cc>)
 8004df8:	f8d5 0204 	ldr.w	r0, [r5, #516]	; 0x204
 8004dfc:	2101      	movs	r1, #1
 8004dfe:	4288      	cmp	r0, r1
 8004e00:	6039      	str	r1, [r7, #0]
 8004e02:	d06d      	beq.n	8004ee0 <Dmx::SetPortDirection(unsigned long, dmx::PortDirection, bool)+0x128>
 8004e04:	e8bd 81f0 	ldmia.w	sp!, {r4, r5, r6, r7, r8, pc}
 8004e08:	2a00      	cmp	r2, #0
 8004e0a:	d13c      	bne.n	8004e86 <Dmx::SetPortDirection(unsigned long, dmx::PortDirection, bool)+0xce>
 8004e0c:	495e      	ldr	r1, [pc, #376]	; (8004f88 <Dmx::SetPortDirection(unsigned long, dmx::PortDirection, bool)+0x1d0>)
 8004e0e:	f44f 6080 	mov.w	r0, #1024	; 0x400
 8004e12:	f8c1 0c10 	str.w	r0, [r1, #3088]	; 0xc10
 8004e16:	e7eb      	b.n	8004df0 <Dmx::SetPortDirection(unsigned long, dmx::PortDirection, bool)+0x38>
 8004e18:	2b00      	cmp	r3, #0
 8004e1a:	d14f      	bne.n	8004ebc <Dmx::SetPortDirection(unsigned long, dmx::PortDirection, bool)+0x104>
 8004e1c:	4d58      	ldr	r5, [pc, #352]	; (8004f80 <Dmx::SetPortDirection(unsigned long, dmx::PortDirection, bool)+0x1c8>)
 8004e1e:	682b      	ldr	r3, [r5, #0]
 8004e20:	2b00      	cmp	r3, #0
 8004e22:	d0ef      	beq.n	8004e04 <Dmx::SetPortDirection(unsigned long, dmx::PortDirection, bool)+0x4c>
 8004e24:	2900      	cmp	r1, #0
 8004e26:	f040 808a 	bne.w	8004f3e <Dmx::SetPortDirection(unsigned long, dmx::PortDirection, bool)+0x186>
 8004e2a:	4c56      	ldr	r4, [pc, #344]	; (8004f84 <Dmx::SetPortDirection(unsigned long, dmx::PortDirection, bool)+0x1cc>)
 8004e2c:	f8d4 1208 	ldr.w	r1, [r4, #520]	; 0x208
 8004e30:	2904      	cmp	r1, #4
 8004e32:	f000 8095 	beq.w	8004f60 <Dmx::SetPortDirection(unsigned long, dmx::PortDirection, bool)+0x1a8>
 8004e36:	f8d4 0208 	ldr.w	r0, [r4, #520]	; 0x208
 8004e3a:	2800      	cmp	r0, #0
 8004e3c:	d1f6      	bne.n	8004e2c <Dmx::SetPortDirection(unsigned long, dmx::PortDirection, bool)+0x74>
 8004e3e:	2200      	movs	r2, #0
 8004e40:	602a      	str	r2, [r5, #0]
 8004e42:	e8bd 81f0 	ldmia.w	sp!, {r4, r5, r6, r7, r8, pc}
 8004e46:	4e51      	ldr	r6, [pc, #324]	; (8004f8c <Dmx::SetPortDirection(unsigned long, dmx::PortDirection, bool)+0x1d4>)
 8004e48:	4c51      	ldr	r4, [pc, #324]	; (8004f90 <Dmx::SetPortDirection(unsigned long, dmx::PortDirection, bool)+0x1d8>)
 8004e4a:	2300      	movs	r3, #0
 8004e4c:	f8c6 320c 	str.w	r3, [r6, #524]	; 0x20c
 8004e50:	2107      	movs	r1, #7
 8004e52:	4620      	mov	r0, r4
 8004e54:	f004 f8bc 	bl	8008fd0 <usart_flag_get>
 8004e58:	2800      	cmp	r0, #0
 8004e5a:	d0f9      	beq.n	8004e50 <Dmx::SetPortDirection(unsigned long, dmx::PortDirection, bool)+0x98>
 8004e5c:	494d      	ldr	r1, [pc, #308]	; (8004f94 <Dmx::SetPortDirection(unsigned long, dmx::PortDirection, bool)+0x1dc>)
 8004e5e:	484c      	ldr	r0, [pc, #304]	; (8004f90 <Dmx::SetPortDirection(unsigned long, dmx::PortDirection, bool)+0x1d8>)
 8004e60:	f004 f8db 	bl	800901a <usart_interrupt_flag_clear>
 8004e64:	f04f 4880 	mov.w	r8, #1073741824	; 0x40000000
 8004e68:	4849      	ldr	r0, [pc, #292]	; (8004f90 <Dmx::SetPortDirection(unsigned long, dmx::PortDirection, bool)+0x1d8>)
 8004e6a:	f240 3105 	movw	r1, #773	; 0x305
 8004e6e:	2502      	movs	r5, #2
 8004e70:	f004 f8be 	bl	8008ff0 <usart_interrupt_enable>
 8004e74:	603d      	str	r5, [r7, #0]
 8004e76:	f8d8 740c 	ldr.w	r7, [r8, #1036]	; 0x40c
 8004e7a:	f047 0202 	orr.w	r2, r7, #2
 8004e7e:	f8c8 240c 	str.w	r2, [r8, #1036]	; 0x40c
 8004e82:	e8bd 81f0 	ldmia.w	sp!, {r4, r5, r6, r7, r8, pc}
 8004e86:	2a01      	cmp	r2, #1
 8004e88:	d1b2      	bne.n	8004df0 <Dmx::SetPortDirection(unsigned long, dmx::PortDirection, bool)+0x38>
 8004e8a:	e011      	b.n	8004eb0 <Dmx::SetPortDirection(unsigned long, dmx::PortDirection, bool)+0xf8>
 8004e8c:	4840      	ldr	r0, [pc, #256]	; (8004f90 <Dmx::SetPortDirection(unsigned long, dmx::PortDirection, bool)+0x1d8>)
 8004e8e:	f240 3105 	movw	r1, #773	; 0x305
 8004e92:	f004 f8b7 	bl	8009004 <usart_interrupt_disable>
 8004e96:	493d      	ldr	r1, [pc, #244]	; (8004f8c <Dmx::SetPortDirection(unsigned long, dmx::PortDirection, bool)+0x1d4>)
 8004e98:	2000      	movs	r0, #0
 8004e9a:	f04f 4880 	mov.w	r8, #1073741824	; 0x40000000
 8004e9e:	f8c1 020c 	str.w	r0, [r1, #524]	; 0x20c
 8004ea2:	f8d8 340c 	ldr.w	r3, [r8, #1036]	; 0x40c
 8004ea6:	f023 0202 	bic.w	r2, r3, #2
 8004eaa:	f8c8 240c 	str.w	r2, [r8, #1036]	; 0x40c
 8004eae:	6038      	str	r0, [r7, #0]
 8004eb0:	4d35      	ldr	r5, [pc, #212]	; (8004f88 <Dmx::SetPortDirection(unsigned long, dmx::PortDirection, bool)+0x1d0>)
 8004eb2:	f44f 6280 	mov.w	r2, #1024	; 0x400
 8004eb6:	f8c5 2c14 	str.w	r2, [r5, #3092]	; 0xc14
 8004eba:	e799      	b.n	8004df0 <Dmx::SetPortDirection(unsigned long, dmx::PortDirection, bool)+0x38>
 8004ebc:	4f30      	ldr	r7, [pc, #192]	; (8004f80 <Dmx::SetPortDirection(unsigned long, dmx::PortDirection, bool)+0x1c8>)
 8004ebe:	e799      	b.n	8004df4 <Dmx::SetPortDirection(unsigned long, dmx::PortDirection, bool)+0x3c>
 8004ec0:	4833      	ldr	r0, [pc, #204]	; (8004f90 <Dmx::SetPortDirection(unsigned long, dmx::PortDirection, bool)+0x1d8>)
 8004ec2:	f8df 80cc 	ldr.w	r8, [pc, #204]	; 8004f90 <Dmx::SetPortDirection(unsigned long, dmx::PortDirection, bool)+0x1d8>
 8004ec6:	2106      	movs	r1, #6
 8004ec8:	f004 f88a 	bl	8008fe0 <usart_flag_clear>
 8004ecc:	2106      	movs	r1, #6
 8004ece:	4640      	mov	r0, r8
 8004ed0:	f004 f87e 	bl	8008fd0 <usart_flag_get>
 8004ed4:	2801      	cmp	r0, #1
 8004ed6:	d1f9      	bne.n	8004ecc <Dmx::SetPortDirection(unsigned long, dmx::PortDirection, bool)+0x114>
 8004ed8:	2000      	movs	r0, #0
 8004eda:	f8c5 0208 	str.w	r0, [r5, #520]	; 0x208
 8004ede:	e77d      	b.n	8004ddc <Dmx::SetPortDirection(unsigned long, dmx::PortDirection, bool)+0x24>
 8004ee0:	4b29      	ldr	r3, [pc, #164]	; (8004f88 <Dmx::SetPortDirection(unsigned long, dmx::PortDirection, bool)+0x1d0>)
 8004ee2:	4e2b      	ldr	r6, [pc, #172]	; (8004f90 <Dmx::SetPortDirection(unsigned long, dmx::PortDirection, bool)+0x1d8>)
 8004ee4:	f44f 6400 	mov.w	r4, #2048	; 0x800
 8004ee8:	f8c3 4810 	str.w	r4, [r3, #2064]	; 0x810
 8004eec:	2106      	movs	r1, #6
 8004eee:	4630      	mov	r0, r6
 8004ef0:	f004 f86e 	bl	8008fd0 <usart_flag_get>
 8004ef4:	2801      	cmp	r0, #1
 8004ef6:	4604      	mov	r4, r0
 8004ef8:	d1f8      	bne.n	8004eec <Dmx::SetPortDirection(unsigned long, dmx::PortDirection, bool)+0x134>
 8004efa:	4f27      	ldr	r7, [pc, #156]	; (8004f98 <Dmx::SetPortDirection(unsigned long, dmx::PortDirection, bool)+0x1e0>)
 8004efc:	f44f 6380 	mov.w	r3, #1024	; 0x400
 8004f00:	2203      	movs	r2, #3
 8004f02:	2110      	movs	r1, #16
 8004f04:	4638      	mov	r0, r7
 8004f06:	f003 fcab 	bl	8008860 <gpio_init>
 8004f0a:	f04f 4880 	mov.w	r8, #1073741824	; 0x40000000
 8004f0e:	4923      	ldr	r1, [pc, #140]	; (8004f9c <Dmx::SetPortDirection(unsigned long, dmx::PortDirection, bool)+0x1e4>)
 8004f10:	f44f 6280 	mov.w	r2, #1024	; 0x400
 8004f14:	617a      	str	r2, [r7, #20]
 8004f16:	6808      	ldr	r0, [r1, #0]
 8004f18:	f8d8 2024 	ldr.w	r2, [r8, #36]	; 0x24
 8004f1c:	2102      	movs	r1, #2
 8004f1e:	4402      	add	r2, r0
 8004f20:	4640      	mov	r0, r8
 8004f22:	f003 ff94 	bl	8008e4e <timer_channel_output_pulse_value_config>
 8004f26:	2108      	movs	r1, #8
 8004f28:	4640      	mov	r0, r8
 8004f2a:	f003 ff60 	bl	8008dee <timer_interrupt_enable>
 8004f2e:	4b16      	ldr	r3, [pc, #88]	; (8004f88 <Dmx::SetPortDirection(unsigned long, dmx::PortDirection, bool)+0x1d0>)
 8004f30:	f8c5 4208 	str.w	r4, [r5, #520]	; 0x208
 8004f34:	f44f 6600 	mov.w	r6, #2048	; 0x800
 8004f38:	f8c3 6814 	str.w	r6, [r3, #2068]	; 0x814
 8004f3c:	e762      	b.n	8004e04 <Dmx::SetPortDirection(unsigned long, dmx::PortDirection, bool)+0x4c>
 8004f3e:	4814      	ldr	r0, [pc, #80]	; (8004f90 <Dmx::SetPortDirection(unsigned long, dmx::PortDirection, bool)+0x1d8>)
 8004f40:	f240 3105 	movw	r1, #773	; 0x305
 8004f44:	f004 f85e 	bl	8009004 <usart_interrupt_disable>
 8004f48:	4810      	ldr	r0, [pc, #64]	; (8004f8c <Dmx::SetPortDirection(unsigned long, dmx::PortDirection, bool)+0x1d4>)
 8004f4a:	f04f 4280 	mov.w	r2, #1073741824	; 0x40000000
 8004f4e:	f8c0 620c 	str.w	r6, [r0, #524]	; 0x20c
 8004f52:	f8d2 440c 	ldr.w	r4, [r2, #1036]	; 0x40c
 8004f56:	f024 0702 	bic.w	r7, r4, #2
 8004f5a:	f8c2 740c 	str.w	r7, [r2, #1036]	; 0x40c
 8004f5e:	e76e      	b.n	8004e3e <Dmx::SetPortDirection(unsigned long, dmx::PortDirection, bool)+0x86>
 8004f60:	480b      	ldr	r0, [pc, #44]	; (8004f90 <Dmx::SetPortDirection(unsigned long, dmx::PortDirection, bool)+0x1d8>)
 8004f62:	4e0b      	ldr	r6, [pc, #44]	; (8004f90 <Dmx::SetPortDirection(unsigned long, dmx::PortDirection, bool)+0x1d8>)
 8004f64:	2106      	movs	r1, #6
 8004f66:	f004 f83b 	bl	8008fe0 <usart_flag_clear>
 8004f6a:	2106      	movs	r1, #6
 8004f6c:	4630      	mov	r0, r6
 8004f6e:	f004 f82f 	bl	8008fd0 <usart_flag_get>
 8004f72:	2801      	cmp	r0, #1
 8004f74:	d1f9      	bne.n	8004f6a <Dmx::SetPortDirection(unsigned long, dmx::PortDirection, bool)+0x1b2>
 8004f76:	2300      	movs	r3, #0
 8004f78:	f8c4 3208 	str.w	r3, [r4, #520]	; 0x208
 8004f7c:	e75b      	b.n	8004e36 <Dmx::SetPortDirection(unsigned long, dmx::PortDirection, bool)+0x7e>
 8004f7e:	bf00      	nop
 8004f80:	200015e4 	andcs	r1, r0, r4, ror #11
 8004f84:	200011b4 			; <UNDEFINED> instruction: 0x200011b4
 8004f88:	40010000 	andmi	r0, r1, r0
 8004f8c:	200013c0 	andcs	r1, r0, r0, asr #7
 8004f90:	40004800 	andmi	r4, r0, r0, lsl #16
 8004f94:	00050305 	andeq	r0, r5, r5, lsl #6
 8004f98:	40011000 	andmi	r1, r1, r0
 8004f9c:	200011b0 			; <UNDEFINED> instruction: 0x200011b0

08004fa0 <Dmx::GetDmxAvailable(unsigned long)>:
 8004fa0:	4b0b      	ldr	r3, [pc, #44]	; (8004fd0 <Dmx::GetDmxAvailable(unsigned long)+0x30>)
 8004fa2:	eb01 1141 	add.w	r1, r1, r1, lsl #5
 8004fa6:	eb03 1201 	add.w	r2, r3, r1, lsl #4
 8004faa:	f8d2 0204 	ldr.w	r0, [r2, #516]	; 0x204
 8004fae:	f410 4000 	ands.w	r0, r0, #32768	; 0x8000
 8004fb2:	d00b      	beq.n	8004fcc <Dmx::GetDmxAvailable(unsigned long)+0x2c>
 8004fb4:	f8d2 3204 	ldr.w	r3, [r2, #516]	; 0x204
 8004fb8:	f423 4100 	bic.w	r1, r3, #32768	; 0x8000
 8004fbc:	f8c2 1204 	str.w	r1, [r2, #516]	; 0x204
 8004fc0:	f8d2 3204 	ldr.w	r3, [r2, #516]	; 0x204
 8004fc4:	1e59      	subs	r1, r3, #1
 8004fc6:	4610      	mov	r0, r2
 8004fc8:	f8c2 1204 	str.w	r1, [r2, #516]	; 0x204
 8004fcc:	4770      	bx	lr
 8004fce:	bf00      	nop
 8004fd0:	200013c0 	andcs	r1, r0, r0, asr #7

08004fd4 <Dmx::GetDmxUpdatesPerSecond(unsigned long)>:
 8004fd4:	4b01      	ldr	r3, [pc, #4]	; (8004fdc <Dmx::GetDmxUpdatesPerSecond(unsigned long)+0x8>)
 8004fd6:	0109      	lsls	r1, r1, #4
 8004fd8:	5858      	ldr	r0, [r3, r1]
 8004fda:	4770      	bx	lr
 8004fdc:	200015d4 	ldrdcs	r1, [r0], -r4

08004fe0 <Dmx::RdmSendRaw(unsigned long, unsigned char const*, unsigned long)>:
 8004fe0:	b5f8      	push	{r3, r4, r5, r6, r7, lr}
 8004fe2:	4e21      	ldr	r6, [pc, #132]	; (8005068 <Dmx::RdmSendRaw(unsigned long, unsigned char const*, unsigned long)+0x88>)
 8004fe4:	4615      	mov	r5, r2
 8004fe6:	461c      	mov	r4, r3
 8004fe8:	2106      	movs	r1, #6
 8004fea:	4630      	mov	r0, r6
 8004fec:	f003 fff0 	bl	8008fd0 <usart_flag_get>
 8004ff0:	2801      	cmp	r0, #1
 8004ff2:	d1f9      	bne.n	8004fe8 <Dmx::RdmSendRaw(unsigned long, unsigned char const*, unsigned long)+0x8>
 8004ff4:	4e1d      	ldr	r6, [pc, #116]	; (800506c <Dmx::RdmSendRaw(unsigned long, unsigned char const*, unsigned long)+0x8c>)
 8004ff6:	2203      	movs	r2, #3
 8004ff8:	f44f 6380 	mov.w	r3, #1024	; 0x400
 8004ffc:	2110      	movs	r1, #16
 8004ffe:	4630      	mov	r0, r6
 8005000:	f44f 6780 	mov.w	r7, #1024	; 0x400
 8005004:	f003 fc2c 	bl	8008860 <gpio_init>
 8005008:	2100      	movs	r1, #0
 800500a:	20b0      	movs	r0, #176	; 0xb0
 800500c:	6177      	str	r7, [r6, #20]
 800500e:	f004 fbe7 	bl	80097e0 <udelay(unsigned long, unsigned long)>
 8005012:	4630      	mov	r0, r6
 8005014:	2118      	movs	r1, #24
 8005016:	463b      	mov	r3, r7
 8005018:	2203      	movs	r2, #3
 800501a:	f003 fc21 	bl	8008860 <gpio_init>
 800501e:	2100      	movs	r1, #0
 8005020:	200c      	movs	r0, #12
 8005022:	f004 fbdd 	bl	80097e0 <udelay(unsigned long, unsigned long)>
 8005026:	b18c      	cbz	r4, 800504c <Dmx::RdmSendRaw(unsigned long, unsigned char const*, unsigned long)+0x6c>
 8005028:	1928      	adds	r0, r5, r4
 800502a:	4c0f      	ldr	r4, [pc, #60]	; (8005068 <Dmx::RdmSendRaw(unsigned long, unsigned char const*, unsigned long)+0x88>)
 800502c:	3d01      	subs	r5, #1
 800502e:	1e46      	subs	r6, r0, #1
 8005030:	f04f 2740 	mov.w	r7, #1073758208	; 0x40004000
 8005034:	2107      	movs	r1, #7
 8005036:	4620      	mov	r0, r4
 8005038:	f003 ffca 	bl	8008fd0 <usart_flag_get>
 800503c:	2800      	cmp	r0, #0
 800503e:	d0f9      	beq.n	8005034 <Dmx::RdmSendRaw(unsigned long, unsigned char const*, unsigned long)+0x54>
 8005040:	f815 3f01 	ldrb.w	r3, [r5, #1]!
 8005044:	f8c7 3804 	str.w	r3, [r7, #2052]	; 0x804
 8005048:	42b5      	cmp	r5, r6
 800504a:	d1f3      	bne.n	8005034 <Dmx::RdmSendRaw(unsigned long, unsigned char const*, unsigned long)+0x54>
 800504c:	4c06      	ldr	r4, [pc, #24]	; (8005068 <Dmx::RdmSendRaw(unsigned long, unsigned char const*, unsigned long)+0x88>)
 800504e:	f04f 2540 	mov.w	r5, #1073758208	; 0x40004000
 8005052:	e001      	b.n	8005058 <Dmx::RdmSendRaw(unsigned long, unsigned char const*, unsigned long)+0x78>
 8005054:	f8d5 3804 	ldr.w	r3, [r5, #2052]	; 0x804
 8005058:	2106      	movs	r1, #6
 800505a:	4620      	mov	r0, r4
 800505c:	f003 ffb8 	bl	8008fd0 <usart_flag_get>
 8005060:	2801      	cmp	r0, #1
 8005062:	d1f7      	bne.n	8005054 <Dmx::RdmSendRaw(unsigned long, unsigned char const*, unsigned long)+0x74>
 8005064:	bdf8      	pop	{r3, r4, r5, r6, r7, pc}
 8005066:	bf00      	nop
 8005068:	40004800 	andmi	r4, r0, r0, lsl #16
 800506c:	40011000 	andmi	r1, r1, r0

08005070 <Dmx::RdmSendDiscoveryRespondMessage(unsigned long, unsigned char const*, unsigned long)>:
 8005070:	497a      	ldr	r1, [pc, #488]	; (800525c <Dmx::RdmSendDiscoveryRespondMessage(unsigned long, unsigned char const*, unsigned long)+0x1ec>)
 8005072:	e92d 43f8 	stmdb	sp!, {r3, r4, r5, r6, r7, r8, r9, lr}
 8005076:	4606      	mov	r6, r0
 8005078:	6809      	ldr	r1, [r1, #0]
 800507a:	4f79      	ldr	r7, [pc, #484]	; (8005260 <Dmx::RdmSendDiscoveryRespondMessage(unsigned long, unsigned char const*, unsigned long)+0x1f0>)
 800507c:	20c8      	movs	r0, #200	; 0xc8
 800507e:	461c      	mov	r4, r3
 8005080:	4615      	mov	r5, r2
 8005082:	f004 fbad 	bl	80097e0 <udelay(unsigned long, unsigned long)>
 8005086:	69b3      	ldr	r3, [r6, #24]
 8005088:	2b00      	cmp	r3, #0
 800508a:	f000 8087 	beq.w	800519c <Dmx::RdmSendDiscoveryRespondMessage(unsigned long, unsigned char const*, unsigned long)+0x12c>
 800508e:	683a      	ldr	r2, [r7, #0]
 8005090:	2000      	movs	r0, #0
 8005092:	61b0      	str	r0, [r6, #24]
 8005094:	b15a      	cbz	r2, 80050ae <Dmx::RdmSendDiscoveryRespondMessage(unsigned long, unsigned char const*, unsigned long)+0x3e>
 8005096:	f8df 81d8 	ldr.w	r8, [pc, #472]	; 8005270 <Dmx::RdmSendDiscoveryRespondMessage(unsigned long, unsigned char const*, unsigned long)+0x200>
 800509a:	f8d8 1208 	ldr.w	r1, [r8, #520]	; 0x208
 800509e:	2904      	cmp	r1, #4
 80050a0:	f000 808d 	beq.w	80051be <Dmx::RdmSendDiscoveryRespondMessage(unsigned long, unsigned char const*, unsigned long)+0x14e>
 80050a4:	f8d8 0208 	ldr.w	r0, [r8, #520]	; 0x208
 80050a8:	2800      	cmp	r0, #0
 80050aa:	d1f6      	bne.n	800509a <Dmx::RdmSendDiscoveryRespondMessage(unsigned long, unsigned char const*, unsigned long)+0x2a>
 80050ac:	6038      	str	r0, [r7, #0]
 80050ae:	496d      	ldr	r1, [pc, #436]	; (8005264 <Dmx::RdmSendDiscoveryRespondMessage(unsigned long, unsigned char const*, unsigned long)+0x1f4>)
 80050b0:	f44f 6280 	mov.w	r2, #1024	; 0x400
 80050b4:	f8c1 2c10 	str.w	r2, [r1, #3088]	; 0xc10
 80050b8:	b194      	cbz	r4, 80050e0 <Dmx::RdmSendDiscoveryRespondMessage(unsigned long, unsigned char const*, unsigned long)+0x70>
 80050ba:	442c      	add	r4, r5
 80050bc:	f104 38ff 	add.w	r8, r4, #4294967295	; 0xffffffff
 80050c0:	4c69      	ldr	r4, [pc, #420]	; (8005268 <Dmx::RdmSendDiscoveryRespondMessage(unsigned long, unsigned char const*, unsigned long)+0x1f8>)
 80050c2:	3d01      	subs	r5, #1
 80050c4:	f04f 2940 	mov.w	r9, #1073758208	; 0x40004000
 80050c8:	2107      	movs	r1, #7
 80050ca:	4620      	mov	r0, r4
 80050cc:	f003 ff80 	bl	8008fd0 <usart_flag_get>
 80050d0:	2800      	cmp	r0, #0
 80050d2:	d0f9      	beq.n	80050c8 <Dmx::RdmSendDiscoveryRespondMessage(unsigned long, unsigned char const*, unsigned long)+0x58>
 80050d4:	f815 3f01 	ldrb.w	r3, [r5, #1]!
 80050d8:	f8c9 3804 	str.w	r3, [r9, #2052]	; 0x804
 80050dc:	45a8      	cmp	r8, r5
 80050de:	d1f3      	bne.n	80050c8 <Dmx::RdmSendDiscoveryRespondMessage(unsigned long, unsigned char const*, unsigned long)+0x58>
 80050e0:	4d61      	ldr	r5, [pc, #388]	; (8005268 <Dmx::RdmSendDiscoveryRespondMessage(unsigned long, unsigned char const*, unsigned long)+0x1f8>)
 80050e2:	f04f 2840 	mov.w	r8, #1073758208	; 0x40004000
 80050e6:	e001      	b.n	80050ec <Dmx::RdmSendDiscoveryRespondMessage(unsigned long, unsigned char const*, unsigned long)+0x7c>
 80050e8:	f8d8 3804 	ldr.w	r3, [r8, #2052]	; 0x804
 80050ec:	2106      	movs	r1, #6
 80050ee:	4628      	mov	r0, r5
 80050f0:	f003 ff6e 	bl	8008fd0 <usart_flag_get>
 80050f4:	2801      	cmp	r0, #1
 80050f6:	4604      	mov	r4, r0
 80050f8:	d1f6      	bne.n	80050e8 <Dmx::RdmSendDiscoveryRespondMessage(unsigned long, unsigned char const*, unsigned long)+0x78>
 80050fa:	2004      	movs	r0, #4
 80050fc:	2100      	movs	r1, #0
 80050fe:	f004 fb6f 	bl	80097e0 <udelay(unsigned long, unsigned long)>
 8005102:	69b0      	ldr	r0, [r6, #24]
 8005104:	2801      	cmp	r0, #1
 8005106:	d058      	beq.n	80051ba <Dmx::RdmSendDiscoveryRespondMessage(unsigned long, unsigned char const*, unsigned long)+0x14a>
 8005108:	6839      	ldr	r1, [r7, #0]
 800510a:	61b4      	str	r4, [r6, #24]
 800510c:	b309      	cbz	r1, 8005152 <Dmx::RdmSendDiscoveryRespondMessage(unsigned long, unsigned char const*, unsigned long)+0xe2>
 800510e:	4856      	ldr	r0, [pc, #344]	; (8005268 <Dmx::RdmSendDiscoveryRespondMessage(unsigned long, unsigned char const*, unsigned long)+0x1f8>)
 8005110:	f240 3105 	movw	r1, #773	; 0x305
 8005114:	f003 ff76 	bl	8009004 <usart_interrupt_disable>
 8005118:	4b54      	ldr	r3, [pc, #336]	; (800526c <Dmx::RdmSendDiscoveryRespondMessage(unsigned long, unsigned char const*, unsigned long)+0x1fc>)
 800511a:	69b6      	ldr	r6, [r6, #24]
 800511c:	f8df c144 	ldr.w	ip, [pc, #324]	; 8005264 <Dmx::RdmSendDiscoveryRespondMessage(unsigned long, unsigned char const*, unsigned long)+0x1f4>
 8005120:	2100      	movs	r1, #0
 8005122:	f04f 4580 	mov.w	r5, #1073741824	; 0x40000000
 8005126:	f8c3 120c 	str.w	r1, [r3, #524]	; 0x20c
 800512a:	f8d5 240c 	ldr.w	r2, [r5, #1036]	; 0x40c
 800512e:	f022 0002 	bic.w	r0, r2, #2
 8005132:	f8c5 040c 	str.w	r0, [r5, #1036]	; 0x40c
 8005136:	6039      	str	r1, [r7, #0]
 8005138:	f44f 6180 	mov.w	r1, #1024	; 0x400
 800513c:	f8cc 1c14 	str.w	r1, [ip, #3092]	; 0xc14
 8005140:	b96e      	cbnz	r6, 800515e <Dmx::RdmSendDiscoveryRespondMessage(unsigned long, unsigned char const*, unsigned long)+0xee>
 8005142:	4d4b      	ldr	r5, [pc, #300]	; (8005270 <Dmx::RdmSendDiscoveryRespondMessage(unsigned long, unsigned char const*, unsigned long)+0x200>)
 8005144:	603c      	str	r4, [r7, #0]
 8005146:	f8d5 7204 	ldr.w	r7, [r5, #516]	; 0x204
 800514a:	2f01      	cmp	r7, #1
 800514c:	d047      	beq.n	80051de <Dmx::RdmSendDiscoveryRespondMessage(unsigned long, unsigned char const*, unsigned long)+0x16e>
 800514e:	e8bd 83f8 	ldmia.w	sp!, {r3, r4, r5, r6, r7, r8, r9, pc}
 8005152:	4d44      	ldr	r5, [pc, #272]	; (8005264 <Dmx::RdmSendDiscoveryRespondMessage(unsigned long, unsigned char const*, unsigned long)+0x1f4>)
 8005154:	4b45      	ldr	r3, [pc, #276]	; (800526c <Dmx::RdmSendDiscoveryRespondMessage(unsigned long, unsigned char const*, unsigned long)+0x1fc>)
 8005156:	f44f 6480 	mov.w	r4, #1024	; 0x400
 800515a:	f8c5 4c14 	str.w	r4, [r5, #3092]	; 0xc14
 800515e:	2200      	movs	r2, #0
 8005160:	4e41      	ldr	r6, [pc, #260]	; (8005268 <Dmx::RdmSendDiscoveryRespondMessage(unsigned long, unsigned char const*, unsigned long)+0x1f8>)
 8005162:	f8c3 220c 	str.w	r2, [r3, #524]	; 0x20c
 8005166:	2107      	movs	r1, #7
 8005168:	4630      	mov	r0, r6
 800516a:	f003 ff31 	bl	8008fd0 <usart_flag_get>
 800516e:	2800      	cmp	r0, #0
 8005170:	d0f9      	beq.n	8005166 <Dmx::RdmSendDiscoveryRespondMessage(unsigned long, unsigned char const*, unsigned long)+0xf6>
 8005172:	4940      	ldr	r1, [pc, #256]	; (8005274 <Dmx::RdmSendDiscoveryRespondMessage(unsigned long, unsigned char const*, unsigned long)+0x204>)
 8005174:	483c      	ldr	r0, [pc, #240]	; (8005268 <Dmx::RdmSendDiscoveryRespondMessage(unsigned long, unsigned char const*, unsigned long)+0x1f8>)
 8005176:	f003 ff50 	bl	800901a <usart_interrupt_flag_clear>
 800517a:	483b      	ldr	r0, [pc, #236]	; (8005268 <Dmx::RdmSendDiscoveryRespondMessage(unsigned long, unsigned char const*, unsigned long)+0x1f8>)
 800517c:	f240 3105 	movw	r1, #773	; 0x305
 8005180:	f003 ff36 	bl	8008ff0 <usart_interrupt_enable>
 8005184:	f04f 4980 	mov.w	r9, #1073741824	; 0x40000000
 8005188:	2302      	movs	r3, #2
 800518a:	603b      	str	r3, [r7, #0]
 800518c:	f8d9 740c 	ldr.w	r7, [r9, #1036]	; 0x40c
 8005190:	f047 0002 	orr.w	r0, r7, #2
 8005194:	f8c9 040c 	str.w	r0, [r9, #1036]	; 0x40c
 8005198:	e8bd 83f8 	ldmia.w	sp!, {r3, r4, r5, r6, r7, r8, r9, pc}
 800519c:	6838      	ldr	r0, [r7, #0]
 800519e:	2800      	cmp	r0, #0
 80051a0:	d08a      	beq.n	80050b8 <Dmx::RdmSendDiscoveryRespondMessage(unsigned long, unsigned char const*, unsigned long)+0x48>
 80051a2:	f8df 80cc 	ldr.w	r8, [pc, #204]	; 8005270 <Dmx::RdmSendDiscoveryRespondMessage(unsigned long, unsigned char const*, unsigned long)+0x200>
 80051a6:	f8d8 2208 	ldr.w	r2, [r8, #520]	; 0x208
 80051aa:	2a04      	cmp	r2, #4
 80051ac:	d046      	beq.n	800523c <Dmx::RdmSendDiscoveryRespondMessage(unsigned long, unsigned char const*, unsigned long)+0x1cc>
 80051ae:	f8d8 3208 	ldr.w	r3, [r8, #520]	; 0x208
 80051b2:	2b00      	cmp	r3, #0
 80051b4:	d1f7      	bne.n	80051a6 <Dmx::RdmSendDiscoveryRespondMessage(unsigned long, unsigned char const*, unsigned long)+0x136>
 80051b6:	603b      	str	r3, [r7, #0]
 80051b8:	e77e      	b.n	80050b8 <Dmx::RdmSendDiscoveryRespondMessage(unsigned long, unsigned char const*, unsigned long)+0x48>
 80051ba:	4b2c      	ldr	r3, [pc, #176]	; (800526c <Dmx::RdmSendDiscoveryRespondMessage(unsigned long, unsigned char const*, unsigned long)+0x1fc>)
 80051bc:	e7cf      	b.n	800515e <Dmx::RdmSendDiscoveryRespondMessage(unsigned long, unsigned char const*, unsigned long)+0xee>
 80051be:	482a      	ldr	r0, [pc, #168]	; (8005268 <Dmx::RdmSendDiscoveryRespondMessage(unsigned long, unsigned char const*, unsigned long)+0x1f8>)
 80051c0:	f8df 90a4 	ldr.w	r9, [pc, #164]	; 8005268 <Dmx::RdmSendDiscoveryRespondMessage(unsigned long, unsigned char const*, unsigned long)+0x1f8>
 80051c4:	2106      	movs	r1, #6
 80051c6:	f003 ff0b 	bl	8008fe0 <usart_flag_clear>
 80051ca:	2106      	movs	r1, #6
 80051cc:	4648      	mov	r0, r9
 80051ce:	f003 feff 	bl	8008fd0 <usart_flag_get>
 80051d2:	2801      	cmp	r0, #1
 80051d4:	d1f9      	bne.n	80051ca <Dmx::RdmSendDiscoveryRespondMessage(unsigned long, unsigned char const*, unsigned long)+0x15a>
 80051d6:	2300      	movs	r3, #0
 80051d8:	f8c8 3208 	str.w	r3, [r8, #520]	; 0x208
 80051dc:	e762      	b.n	80050a4 <Dmx::RdmSendDiscoveryRespondMessage(unsigned long, unsigned char const*, unsigned long)+0x34>
 80051de:	f44f 6400 	mov.w	r4, #2048	; 0x800
 80051e2:	4e21      	ldr	r6, [pc, #132]	; (8005268 <Dmx::RdmSendDiscoveryRespondMessage(unsigned long, unsigned char const*, unsigned long)+0x1f8>)
 80051e4:	f8cc 4810 	str.w	r4, [ip, #2064]	; 0x810
 80051e8:	2106      	movs	r1, #6
 80051ea:	4630      	mov	r0, r6
 80051ec:	f003 fef0 	bl	8008fd0 <usart_flag_get>
 80051f0:	2801      	cmp	r0, #1
 80051f2:	4604      	mov	r4, r0
 80051f4:	d1f8      	bne.n	80051e8 <Dmx::RdmSendDiscoveryRespondMessage(unsigned long, unsigned char const*, unsigned long)+0x178>
 80051f6:	4f20      	ldr	r7, [pc, #128]	; (8005278 <Dmx::RdmSendDiscoveryRespondMessage(unsigned long, unsigned char const*, unsigned long)+0x208>)
 80051f8:	f44f 6380 	mov.w	r3, #1024	; 0x400
 80051fc:	2203      	movs	r2, #3
 80051fe:	2110      	movs	r1, #16
 8005200:	4638      	mov	r0, r7
 8005202:	f003 fb2d 	bl	8008860 <gpio_init>
 8005206:	f04f 4880 	mov.w	r8, #1073741824	; 0x40000000
 800520a:	4b1c      	ldr	r3, [pc, #112]	; (800527c <Dmx::RdmSendDiscoveryRespondMessage(unsigned long, unsigned char const*, unsigned long)+0x20c>)
 800520c:	f44f 6280 	mov.w	r2, #1024	; 0x400
 8005210:	617a      	str	r2, [r7, #20]
 8005212:	6818      	ldr	r0, [r3, #0]
 8005214:	f8d8 2024 	ldr.w	r2, [r8, #36]	; 0x24
 8005218:	2102      	movs	r1, #2
 800521a:	4402      	add	r2, r0
 800521c:	4640      	mov	r0, r8
 800521e:	f003 fe16 	bl	8008e4e <timer_channel_output_pulse_value_config>
 8005222:	2108      	movs	r1, #8
 8005224:	4640      	mov	r0, r8
 8005226:	f003 fde2 	bl	8008dee <timer_interrupt_enable>
 800522a:	490e      	ldr	r1, [pc, #56]	; (8005264 <Dmx::RdmSendDiscoveryRespondMessage(unsigned long, unsigned char const*, unsigned long)+0x1f4>)
 800522c:	f8c5 4208 	str.w	r4, [r5, #520]	; 0x208
 8005230:	f44f 6600 	mov.w	r6, #2048	; 0x800
 8005234:	f8c1 6814 	str.w	r6, [r1, #2068]	; 0x814
 8005238:	e8bd 83f8 	ldmia.w	sp!, {r3, r4, r5, r6, r7, r8, r9, pc}
 800523c:	480a      	ldr	r0, [pc, #40]	; (8005268 <Dmx::RdmSendDiscoveryRespondMessage(unsigned long, unsigned char const*, unsigned long)+0x1f8>)
 800523e:	f8df 9028 	ldr.w	r9, [pc, #40]	; 8005268 <Dmx::RdmSendDiscoveryRespondMessage(unsigned long, unsigned char const*, unsigned long)+0x1f8>
 8005242:	2106      	movs	r1, #6
 8005244:	f003 fecc 	bl	8008fe0 <usart_flag_clear>
 8005248:	2106      	movs	r1, #6
 800524a:	4648      	mov	r0, r9
 800524c:	f003 fec0 	bl	8008fd0 <usart_flag_get>
 8005250:	2801      	cmp	r0, #1
 8005252:	d1f9      	bne.n	8005248 <Dmx::RdmSendDiscoveryRespondMessage(unsigned long, unsigned char const*, unsigned long)+0x1d8>
 8005254:	2100      	movs	r1, #0
 8005256:	f8c8 1208 	str.w	r1, [r8, #520]	; 0x208
 800525a:	e7a8      	b.n	80051ae <Dmx::RdmSendDiscoveryRespondMessage(unsigned long, unsigned char const*, unsigned long)+0x13e>
 800525c:	200015d0 	ldrdcs	r1, [r0], -r0
 8005260:	200015e4 	andcs	r1, r0, r4, ror #11
 8005264:	40010000 	andmi	r0, r1, r0
 8005268:	40004800 	andmi	r4, r0, r0, lsl #16
 800526c:	200013c0 	andcs	r1, r0, r0, asr #7
 8005270:	200011b4 			; <UNDEFINED> instruction: 0x200011b4
 8005274:	00050305 	andeq	r0, r5, r5, lsl #6
 8005278:	40011000 	andmi	r1, r1, r0
 800527c:	200011b0 			; <UNDEFINED> instruction: 0x200011b0

08005280 <Dmx::RdmReceive(unsigned long)>:
 8005280:	4807      	ldr	r0, [pc, #28]	; (80052a0 <Dmx::RdmReceive(unsigned long)+0x20>)
 8005282:	eb01 1141 	add.w	r1, r1, r1, lsl #5
 8005286:	eb00 1001 	add.w	r0, r0, r1, lsl #4
 800528a:	f8d0 3204 	ldr.w	r3, [r0, #516]	; 0x204
 800528e:	f413 4280 	ands.w	r2, r3, #16384	; 0x4000
 8005292:	bf1a      	itte	ne
 8005294:	2200      	movne	r2, #0
 8005296:	f8c0 2204 	strne.w	r2, [r0, #516]	; 0x204
 800529a:	4610      	moveq	r0, r2
 800529c:	4770      	bx	lr
 800529e:	bf00      	nop
 80052a0:	200013c0 	andcs	r1, r0, r0, asr #7

080052a4 <PixelDmxConfiguration::Validate(unsigned long, unsigned long&, pixeldmxconfiguration::PortInfo&)>:
 80052a4:	b5f8      	push	{r3, r4, r5, r6, r7, lr}
 80052a6:	4604      	mov	r4, r0
 80052a8:	460e      	mov	r6, r1
 80052aa:	4611      	mov	r1, r2
 80052ac:	4617      	mov	r7, r2
 80052ae:	461d      	mov	r5, r3
 80052b0:	f000 fe5c 	bl	8005f6c <PixelConfiguration::Validate(unsigned long&)>
 80052b4:	7d62      	ldrb	r2, [r4, #21]
 80052b6:	b94a      	cbnz	r2, 80052cc <PixelDmxConfiguration::Validate(unsigned long, unsigned long&, pixeldmxconfiguration::PortInfo&)+0x28>
 80052b8:	6823      	ldr	r3, [r4, #0]
 80052ba:	b11b      	cbz	r3, 80052c4 <PixelDmxConfiguration::Validate(unsigned long, unsigned long&, pixeldmxconfiguration::PortInfo&)+0x20>
 80052bc:	3b0b      	subs	r3, #11
 80052be:	2b01      	cmp	r3, #1
 80052c0:	bf88      	it	hi
 80052c2:	6022      	strhi	r2, [r4, #0]
 80052c4:	4639      	mov	r1, r7
 80052c6:	4620      	mov	r0, r4
 80052c8:	f000 fe50 	bl	8005f6c <PixelConfiguration::Validate(unsigned long&)>
 80052cc:	2300      	movs	r3, #0
 80052ce:	602b      	str	r3, [r5, #0]
 80052d0:	6823      	ldr	r3, [r4, #0]
 80052d2:	2b07      	cmp	r3, #7
 80052d4:	bf0b      	itete	eq
 80052d6:	f44f 7180 	moveq.w	r1, #256	; 0x100
 80052da:	f44f 71aa 	movne.w	r1, #340	; 0x154
 80052de:	2380      	moveq	r3, #128	; 0x80
 80052e0:	23aa      	movne	r3, #170	; 0xaa
 80052e2:	e9c5 3101 	strd	r3, r1, [r5, #4]
 80052e6:	6a21      	ldr	r1, [r4, #32]
 80052e8:	bf0c      	ite	eq
 80052ea:	f44f 72c0 	moveq.w	r2, #384	; 0x180
 80052ee:	f44f 72ff 	movne.w	r2, #510	; 0x1fe
 80052f2:	60ea      	str	r2, [r5, #12]
 80052f4:	6862      	ldr	r2, [r4, #4]
 80052f6:	b109      	cbz	r1, 80052fc <PixelDmxConfiguration::Validate(unsigned long, unsigned long&, pixeldmxconfiguration::PortInfo&)+0x58>
 80052f8:	4291      	cmp	r1, r2
 80052fa:	d900      	bls.n	80052fe <PixelDmxConfiguration::Validate(unsigned long, unsigned long&, pixeldmxconfiguration::PortInfo&)+0x5a>
 80052fc:	6222      	str	r2, [r4, #32]
 80052fe:	6a21      	ldr	r1, [r4, #32]
 8005300:	fbb2 f2f1 	udiv	r2, r2, r1
 8005304:	69e1      	ldr	r1, [r4, #28]
 8005306:	6262      	str	r2, [r4, #36]	; 0x24
 8005308:	42b1      	cmp	r1, r6
 800530a:	bf28      	it	cs
 800530c:	4631      	movcs	r1, r6
 800530e:	3301      	adds	r3, #1
 8005310:	2e01      	cmp	r6, #1
 8005312:	fbb2 f2f3 	udiv	r2, r2, r3
 8005316:	f102 0301 	add.w	r3, r2, #1
 800531a:	62a3      	str	r3, [r4, #40]	; 0x28
 800531c:	bf1c      	itt	ne
 800531e:	434b      	mulne	r3, r1
 8005320:	f103 32ff 	addne.w	r2, r3, #4294967295	; 0xffffffff
 8005324:	61e1      	str	r1, [r4, #28]
 8005326:	612a      	str	r2, [r5, #16]
 8005328:	bdf8      	pop	{r3, r4, r5, r6, r7, pc}
	...

0800532c <PixelDmxConfiguration::Print()>:
 800532c:	b510      	push	{r4, lr}
 800532e:	4604      	mov	r4, r0
 8005330:	f000 feb4 	bl	800609c <PixelConfiguration::Print()>
 8005334:	4806      	ldr	r0, [pc, #24]	; (8005350 <PixelDmxConfiguration::Print()+0x24>)
 8005336:	f7fc fc4b 	bl	8001bd0 <puts>
 800533a:	69e1      	ldr	r1, [r4, #28]
 800533c:	4805      	ldr	r0, [pc, #20]	; (8005354 <PixelDmxConfiguration::Print()+0x28>)
 800533e:	f7fc fc0f 	bl	8001b60 <printf>
 8005342:	e9d4 1208 	ldrd	r1, r2, [r4, #32]
 8005346:	4804      	ldr	r0, [pc, #16]	; (8005358 <PixelDmxConfiguration::Print()+0x2c>)
 8005348:	e8bd 4010 	ldmia.w	sp!, {r4, lr}
 800534c:	f7fc bc08 	b.w	8001b60 <printf>
 8005350:	0800ac27 	stmdaeq	r0, {r0, r1, r2, r5, sl, fp, sp, pc}
 8005354:	0800ac3f 	stmdaeq	r0, {r0, r1, r2, r3, r4, r5, sl, fp, sp, pc}
 8005358:	0800ac4e 	stmdaeq	r0, {r1, r2, r3, r6, sl, fp, sp, pc}

0800535c <PixelDmxParamsStore::Copy(pixeldmxparams::Params*)>:
 800535c:	b507      	push	{r0, r1, r2, lr}
 800535e:	2300      	movs	r3, #0
 8005360:	2101      	movs	r1, #1
 8005362:	e9cd 3100 	strd	r3, r1, [sp]
 8005366:	4602      	mov	r2, r0
 8005368:	4804      	ldr	r0, [pc, #16]	; (800537c <PixelDmxParamsStore::Copy(pixeldmxparams::Params*)+0x20>)
 800536a:	2318      	movs	r3, #24
 800536c:	6800      	ldr	r0, [r0, #0]
 800536e:	2102      	movs	r1, #2
 8005370:	f001 fed0 	bl	8007114 <ConfigStore::Copy(configstore::Store, void*, unsigned long, unsigned long, bool)>
 8005374:	b003      	add	sp, #12
 8005376:	f85d fb04 	ldr.w	pc, [sp], #4
 800537a:	bf00      	nop
 800537c:	20001638 	andcs	r1, r0, r8, lsr r6

08005380 <PixelDmxParams::PixelDmxParams()>:
 8005380:	b510      	push	{r4, lr}
 8005382:	2409      	movs	r4, #9
 8005384:	2103      	movs	r1, #3
 8005386:	72c4      	strb	r4, [r0, #11]
 8005388:	243d      	movs	r4, #61	; 0x3d
 800538a:	7101      	strb	r1, [r0, #4]
 800538c:	7304      	strb	r4, [r0, #12]
 800538e:	f06f 0155 	mvn.w	r1, #85	; 0x55
 8005392:	24ff      	movs	r4, #255	; 0xff
 8005394:	2200      	movs	r2, #0
 8005396:	7141      	strb	r1, [r0, #5]
 8005398:	7384      	strb	r4, [r0, #14]
 800539a:	2101      	movs	r1, #1
 800539c:	2406      	movs	r4, #6
 800539e:	7002      	strb	r2, [r0, #0]
 80053a0:	7042      	strb	r2, [r0, #1]
 80053a2:	7082      	strb	r2, [r0, #2]
 80053a4:	70c2      	strb	r2, [r0, #3]
 80053a6:	7182      	strb	r2, [r0, #6]
 80053a8:	71c1      	strb	r1, [r0, #7]
 80053aa:	7202      	strb	r2, [r0, #8]
 80053ac:	7282      	strb	r2, [r0, #10]
 80053ae:	7342      	strb	r2, [r0, #13]
 80053b0:	73c1      	strb	r1, [r0, #15]
 80053b2:	7441      	strb	r1, [r0, #17]
 80053b4:	7482      	strb	r2, [r0, #18]
 80053b6:	74c4      	strb	r4, [r0, #19]
 80053b8:	7502      	strb	r2, [r0, #20]
 80053ba:	7542      	strb	r2, [r0, #21]
 80053bc:	7242      	strb	r2, [r0, #9]
 80053be:	7402      	strb	r2, [r0, #16]
 80053c0:	7581      	strb	r1, [r0, #22]
 80053c2:	75c2      	strb	r2, [r0, #23]
 80053c4:	bd10      	pop	{r4, pc}

080053c6 <PixelDmxParams::Load()>:
 80053c6:	b508      	push	{r3, lr}
 80053c8:	2200      	movs	r2, #0
 80053ca:	7002      	strb	r2, [r0, #0]
 80053cc:	7042      	strb	r2, [r0, #1]
 80053ce:	7082      	strb	r2, [r0, #2]
 80053d0:	70c2      	strb	r2, [r0, #3]
 80053d2:	f7ff ffc3 	bl	800535c <PixelDmxParamsStore::Copy(pixeldmxparams::Params*)>
 80053d6:	bd08      	pop	{r3, pc}

080053d8 <PixelDmxParams::Set(PixelDmxConfiguration*)>:
 80053d8:	6803      	ldr	r3, [r0, #0]
 80053da:	07da      	lsls	r2, r3, #31
 80053dc:	bf44      	itt	mi
 80053de:	7902      	ldrbmi	r2, [r0, #4]
 80053e0:	600a      	strmi	r2, [r1, #0]
 80053e2:	079a      	lsls	r2, r3, #30
 80053e4:	d505      	bpl.n	80053f2 <PixelDmxParams::Set(PixelDmxConfiguration*)+0x1a>
 80053e6:	f8b0 2005 	ldrh.w	r2, [r0, #5]
 80053ea:	2a00      	cmp	r2, #0
 80053ec:	bf08      	it	eq
 80053ee:	22aa      	moveq	r2, #170	; 0xaa
 80053f0:	604a      	str	r2, [r1, #4]
 80053f2:	059a      	lsls	r2, r3, #22
 80053f4:	bf44      	itt	mi
 80053f6:	7cc2      	ldrbmi	r2, [r0, #19]
 80053f8:	608a      	strmi	r2, [r1, #8]
 80053fa:	055a      	lsls	r2, r3, #21
 80053fc:	bf44      	itt	mi
 80053fe:	7d02      	ldrbmi	r2, [r0, #20]
 8005400:	740a      	strbmi	r2, [r1, #16]
 8005402:	051a      	lsls	r2, r3, #20
 8005404:	bf44      	itt	mi
 8005406:	7d42      	ldrbmi	r2, [r0, #21]
 8005408:	744a      	strbmi	r2, [r1, #17]
 800540a:	06da      	lsls	r2, r3, #27
 800540c:	bf44      	itt	mi
 800540e:	f8d0 200a 	ldrmi.w	r2, [r0, #10]
 8005412:	60ca      	strmi	r2, [r1, #12]
 8005414:	069a      	lsls	r2, r3, #26
 8005416:	bf44      	itt	mi
 8005418:	7b82      	ldrbmi	r2, [r0, #14]
 800541a:	748a      	strbmi	r2, [r1, #18]
 800541c:	061a      	lsls	r2, r3, #24
 800541e:	d504      	bpl.n	800542a <PixelDmxParams::Set(PixelDmxConfiguration*)+0x52>
 8005420:	2201      	movs	r2, #1
 8005422:	750a      	strb	r2, [r1, #20]
 8005424:	7a42      	ldrb	r2, [r0, #9]
 8005426:	b102      	cbz	r2, 800542a <PixelDmxParams::Set(PixelDmxConfiguration*)+0x52>
 8005428:	74ca      	strb	r2, [r1, #19]
 800542a:	075a      	lsls	r2, r3, #29
 800542c:	d50b      	bpl.n	8005446 <PixelDmxParams::Set(PixelDmxConfiguration*)+0x6e>
 800542e:	79c2      	ldrb	r2, [r0, #7]
 8005430:	b510      	push	{r4, lr}
 8005432:	7a04      	ldrb	r4, [r0, #8]
 8005434:	ea42 2204 	orr.w	r2, r2, r4, lsl #8
 8005438:	858a      	strh	r2, [r1, #44]	; 0x2c
 800543a:	05da      	lsls	r2, r3, #23
 800543c:	bf44      	itt	mi
 800543e:	f8b0 3011 	ldrhmi.w	r3, [r0, #17]
 8005442:	620b      	strmi	r3, [r1, #32]
 8005444:	bd10      	pop	{r4, pc}
 8005446:	05db      	lsls	r3, r3, #23
 8005448:	bf44      	itt	mi
 800544a:	f8b0 3011 	ldrhmi.w	r3, [r0, #17]
 800544e:	620b      	strmi	r3, [r1, #32]
 8005450:	4770      	bx	lr

08005452 <LightSet::Blackout(bool)>:
 8005452:	4770      	bx	lr

08005454 <LightSet::FullOn()>:
 8005454:	4770      	bx	lr

08005456 <LightSet::Print()>:
 8005456:	4770      	bx	lr

08005458 <PixelDmxParamsRdm::Sync(unsigned long)>:
 8005458:	4770      	bx	lr

0800545a <PixelDmxParamsRdm::Sync(bool)>:
 800545a:	4770      	bx	lr

0800545c <PixelDmxParamsRdm::SetDmxStartAddress(unsigned short)>:
 800545c:	2000      	movs	r0, #0
 800545e:	4770      	bx	lr

08005460 <PixelDmxParamsRdm::GetDmxStartAddress()>:
 8005460:	2001      	movs	r0, #1
 8005462:	4770      	bx	lr

08005464 <PixelDmxParamsRdm::GetDmxFootprint()>:
 8005464:	2006      	movs	r0, #6
 8005466:	4770      	bx	lr

08005468 <PixelDmxParamsRdm::Stop(unsigned long)>:
 8005468:	4770      	bx	lr

0800546a <PixelDmxParamsRdm::GetSlotInfo(unsigned short, lightset::SlotInfo&)>:
 800546a:	2905      	cmp	r1, #5
 800546c:	f04f 0000 	mov.w	r0, #0
 8005470:	bf9f      	itttt	ls
 8005472:	f64f 73ff 	movwls	r3, #65535	; 0xffff
 8005476:	7090      	strbls	r0, [r2, #2]
 8005478:	8013      	strhls	r3, [r2, #0]
 800547a:	2001      	movls	r0, #1
 800547c:	4770      	bx	lr

0800547e <PixelDmxParamsRdm::~PixelDmxParamsRdm()>:
 800547e:	4770      	bx	lr

08005480 <PixelDmxParamsRdm::~PixelDmxParamsRdm()>:
 8005480:	b510      	push	{r4, lr}
 8005482:	2104      	movs	r1, #4
 8005484:	4604      	mov	r4, r0
 8005486:	f002 fdd8 	bl	800803a <operator delete(void*, unsigned int)>
 800548a:	4620      	mov	r0, r4
 800548c:	bd10      	pop	{r4, pc}
	...

08005490 <PixelDmxParamsRdm::PixelDmxParamsRdm()>:
 8005490:	4b01      	ldr	r3, [pc, #4]	; (8005498 <PixelDmxParamsRdm::PixelDmxParamsRdm()+0x8>)
 8005492:	6003      	str	r3, [r0, #0]
 8005494:	4770      	bx	lr
 8005496:	bf00      	nop
 8005498:	0800ac7c 	stmdaeq	r0, {r2, r3, r4, r5, r6, sl, fp, sp, pc}

0800549c <PixelDmxParamsRdm::SetData(unsigned long, unsigned char const*, unsigned long, bool)>:
 800549c:	e92d 43f0 	stmdb	sp!, {r4, r5, r6, r7, r8, r9, lr}
 80054a0:	2b05      	cmp	r3, #5
 80054a2:	b087      	sub	sp, #28
 80054a4:	4680      	mov	r8, r0
 80054a6:	4614      	mov	r4, r2
 80054a8:	d964      	bls.n	8005574 <PixelDmxParamsRdm::SetData(unsigned long, unsigned char const*, unsigned long, bool)+0xd8>
 80054aa:	7953      	ldrb	r3, [r2, #5]
 80054ac:	b933      	cbnz	r3, 80054bc <PixelDmxParamsRdm::SetData(unsigned long, unsigned char const*, unsigned long, bool)+0x20>
 80054ae:	4a33      	ldr	r2, [pc, #204]	; (800557c <PixelDmxParamsRdm::SetData(unsigned long, unsigned char const*, unsigned long, bool)+0xe0>)
 80054b0:	7013      	strb	r3, [r2, #0]
 80054b2:	4621      	mov	r1, r4
 80054b4:	4640      	mov	r0, r8
 80054b6:	f7fb fe41 	bl	800113c <PixelDmxParamsRdm::Display(unsigned char const*)>
 80054ba:	e05b      	b.n	8005574 <PixelDmxParamsRdm::SetData(unsigned long, unsigned char const*, unsigned long, bool)+0xd8>
 80054bc:	2bff      	cmp	r3, #255	; 0xff
 80054be:	d154      	bne.n	800556a <PixelDmxParamsRdm::SetData(unsigned long, unsigned char const*, unsigned long, bool)+0xce>
 80054c0:	4a2e      	ldr	r2, [pc, #184]	; (800557c <PixelDmxParamsRdm::SetData(unsigned long, unsigned char const*, unsigned long, bool)+0xe0>)
 80054c2:	7816      	ldrb	r6, [r2, #0]
 80054c4:	2e00      	cmp	r6, #0
 80054c6:	d1f4      	bne.n	80054b2 <PixelDmxParamsRdm::SetData(unsigned long, unsigned char const*, unsigned long, bool)+0x16>
 80054c8:	7013      	strb	r3, [r2, #0]
 80054ca:	7823      	ldrb	r3, [r4, #0]
 80054cc:	4f2c      	ldr	r7, [pc, #176]	; (8005580 <PixelDmxParamsRdm::SetData(unsigned long, unsigned char const*, unsigned long, bool)+0xe4>)
 80054ce:	9602      	str	r6, [sp, #8]
 80054d0:	f04f 0901 	mov.w	r9, #1
 80054d4:	e9cd 9900 	strd	r9, r9, [sp]
 80054d8:	2b0e      	cmp	r3, #14
 80054da:	bf28      	it	cs
 80054dc:	230e      	movcs	r3, #14
 80054de:	2502      	movs	r5, #2
 80054e0:	6838      	ldr	r0, [r7, #0]
 80054e2:	f88d 3016 	strb.w	r3, [sp, #22]
 80054e6:	2204      	movs	r2, #4
 80054e8:	f10d 0316 	add.w	r3, sp, #22
 80054ec:	2102      	movs	r1, #2
 80054ee:	f001 fdeb 	bl	80070c8 <ConfigStore::Update(configstore::Store, unsigned long, void const*, unsigned long, unsigned long, unsigned long)>
 80054f2:	7863      	ldrb	r3, [r4, #1]
 80054f4:	9602      	str	r6, [sp, #8]
 80054f6:	e9cd 5500 	strd	r5, r5, [sp]
 80054fa:	f8ad 3016 	strh.w	r3, [sp, #22]
 80054fe:	6838      	ldr	r0, [r7, #0]
 8005500:	f10d 0316 	add.w	r3, sp, #22
 8005504:	2205      	movs	r2, #5
 8005506:	4629      	mov	r1, r5
 8005508:	f001 fdde 	bl	80070c8 <ConfigStore::Update(configstore::Store, unsigned long, void const*, unsigned long, unsigned long, unsigned long)>
 800550c:	78a3      	ldrb	r3, [r4, #2]
 800550e:	f8ad 3016 	strh.w	r3, [sp, #22]
 8005512:	f44f 7380 	mov.w	r3, #256	; 0x100
 8005516:	e9cd 5300 	strd	r5, r3, [sp]
 800551a:	9602      	str	r6, [sp, #8]
 800551c:	6838      	ldr	r0, [r7, #0]
 800551e:	f10d 0316 	add.w	r3, sp, #22
 8005522:	2211      	movs	r2, #17
 8005524:	4629      	mov	r1, r5
 8005526:	f001 fdcf 	bl	80070c8 <ConfigStore::Update(configstore::Store, unsigned long, void const*, unsigned long, unsigned long, unsigned long)>
 800552a:	78e3      	ldrb	r3, [r4, #3]
 800552c:	9602      	str	r6, [sp, #8]
 800552e:	2b06      	cmp	r3, #6
 8005530:	bf28      	it	cs
 8005532:	2306      	movcs	r3, #6
 8005534:	f88d 3016 	strb.w	r3, [sp, #22]
 8005538:	f44f 7300 	mov.w	r3, #512	; 0x200
 800553c:	e9cd 9300 	strd	r9, r3, [sp]
 8005540:	2213      	movs	r2, #19
 8005542:	6838      	ldr	r0, [r7, #0]
 8005544:	f10d 0316 	add.w	r3, sp, #22
 8005548:	4629      	mov	r1, r5
 800554a:	f001 fdbd 	bl	80070c8 <ConfigStore::Update(configstore::Store, unsigned long, void const*, unsigned long, unsigned long, unsigned long)>
 800554e:	7923      	ldrb	r3, [r4, #4]
 8005550:	f88d 3016 	strb.w	r3, [sp, #22]
 8005554:	2308      	movs	r3, #8
 8005556:	e9cd 9300 	strd	r9, r3, [sp]
 800555a:	9602      	str	r6, [sp, #8]
 800555c:	6838      	ldr	r0, [r7, #0]
 800555e:	f10d 0316 	add.w	r3, sp, #22
 8005562:	2210      	movs	r2, #16
 8005564:	4629      	mov	r1, r5
 8005566:	f001 fdaf 	bl	80070c8 <ConfigStore::Update(configstore::Store, unsigned long, void const*, unsigned long, unsigned long, unsigned long)>
 800556a:	7963      	ldrb	r3, [r4, #5]
 800556c:	3b01      	subs	r3, #1
 800556e:	b2db      	uxtb	r3, r3
 8005570:	2bfd      	cmp	r3, #253	; 0xfd
 8005572:	d89e      	bhi.n	80054b2 <PixelDmxParamsRdm::SetData(unsigned long, unsigned char const*, unsigned long, bool)+0x16>
 8005574:	b007      	add	sp, #28
 8005576:	e8bd 83f0 	ldmia.w	sp!, {r4, r5, r6, r7, r8, r9, pc}
 800557a:	bf00      	nop
 800557c:	200015e8 	andcs	r1, r0, r8, ror #11
 8005580:	20001638 	andcs	r1, r0, r8, lsr r6

08005584 <WS28xxDmx::Sync(unsigned long)>:
 8005584:	4770      	bx	lr
 8005586:	bf00      	nop

08005588 <WS28xxDmx::GetDmxStartAddress()>:
 8005588:	f8b0 004c 	ldrh.w	r0, [r0, #76]	; 0x4c
 800558c:	4770      	bx	lr
 800558e:	bf00      	nop

08005590 <WS28xxDmx::GetDmxFootprint()>:
 8005590:	f8b0 004e 	ldrh.w	r0, [r0, #78]	; 0x4e
 8005594:	4770      	bx	lr
 8005596:	bf00      	nop

08005598 <WS28xxDmx::Start(unsigned long)>:
 8005598:	f890 3054 	ldrb.w	r3, [r0, #84]	; 0x54
 800559c:	b94b      	cbnz	r3, 80055b2 <WS28xxDmx::Start(unsigned long)+0x1a>
 800559e:	f103 4180 	add.w	r1, r3, #1073741824	; 0x40000000
 80055a2:	f501 3c88 	add.w	ip, r1, #69632	; 0x11000
 80055a6:	2301      	movs	r3, #1
 80055a8:	2204      	movs	r2, #4
 80055aa:	f880 3054 	strb.w	r3, [r0, #84]	; 0x54
 80055ae:	f8cc 2010 	str.w	r2, [ip, #16]
 80055b2:	4770      	bx	lr

080055b4 <WS28xxDmx::Stop(unsigned long)>:
 80055b4:	f890 3054 	ldrb.w	r3, [r0, #84]	; 0x54
 80055b8:	b12b      	cbz	r3, 80055c6 <WS28xxDmx::Stop(unsigned long)+0x12>
 80055ba:	4b03      	ldr	r3, [pc, #12]	; (80055c8 <WS28xxDmx::Stop(unsigned long)+0x14>)
 80055bc:	2100      	movs	r1, #0
 80055be:	2204      	movs	r2, #4
 80055c0:	f880 1054 	strb.w	r1, [r0, #84]	; 0x54
 80055c4:	615a      	str	r2, [r3, #20]
 80055c6:	4770      	bx	lr
 80055c8:	40011000 	andmi	r1, r1, r0

080055cc <WS28xxDmx::~WS28xxDmx()>:
 80055cc:	b538      	push	{r3, r4, r5, lr}
 80055ce:	6d05      	ldr	r5, [r0, #80]	; 0x50
 80055d0:	4b06      	ldr	r3, [pc, #24]	; (80055ec <WS28xxDmx::~WS28xxDmx()+0x20>)
 80055d2:	6003      	str	r3, [r0, #0]
 80055d4:	4604      	mov	r4, r0
 80055d6:	b135      	cbz	r5, 80055e6 <WS28xxDmx::~WS28xxDmx()+0x1a>
 80055d8:	4628      	mov	r0, r5
 80055da:	f001 fad3 	bl	8006b84 <WS28xx::~WS28xx()>
 80055de:	2128      	movs	r1, #40	; 0x28
 80055e0:	4628      	mov	r0, r5
 80055e2:	f002 fd2a 	bl	800803a <operator delete(void*, unsigned int)>
 80055e6:	4620      	mov	r0, r4
 80055e8:	bd38      	pop	{r3, r4, r5, pc}
 80055ea:	bf00      	nop
 80055ec:	0800acbc 	stmdaeq	r0, {r2, r3, r4, r5, r7, sl, fp, sp, pc}

080055f0 <WS28xxDmx::Sync(bool)>:
 80055f0:	b911      	cbnz	r1, 80055f8 <WS28xxDmx::Sync(bool)+0x8>
 80055f2:	6d00      	ldr	r0, [r0, #80]	; 0x50
 80055f4:	f001 bb28 	b.w	8006c48 <WS28xx::Update()>
 80055f8:	4770      	bx	lr
 80055fa:	bf00      	nop

080055fc <WS28xxDmx::SetData(unsigned long, unsigned char const*, unsigned long, bool)>:
 80055fc:	e92d 4ff0 	stmdb	sp!, {r4, r5, r6, r7, r8, r9, sl, fp, lr}
 8005600:	b089      	sub	sp, #36	; 0x24
 8005602:	4606      	mov	r6, r0
 8005604:	f89d 4048 	ldrb.w	r4, [sp, #72]	; 0x48
 8005608:	9406      	str	r4, [sp, #24]
 800560a:	460f      	mov	r7, r1
 800560c:	9107      	str	r1, [sp, #28]
 800560e:	4614      	mov	r4, r2
 8005610:	461d      	mov	r5, r3
 8005612:	9304      	str	r3, [sp, #16]
 8005614:	f003 ff98 	bl	8009548 <gd32_spi_dma_tx_is_active()>
 8005618:	2800      	cmp	r0, #0
 800561a:	f040 8094 	bne.w	8005746 <WS28xxDmx::SetData(unsigned long, unsigned char const*, unsigned long, bool)+0x14a>
 800561e:	f007 0803 	and.w	r8, r7, #3
 8005622:	eb06 0388 	add.w	r3, r6, r8, lsl #2
 8005626:	6ab2      	ldr	r2, [r6, #40]	; 0x28
 8005628:	6b5f      	ldr	r7, [r3, #52]	; 0x34
 800562a:	6cb3      	ldr	r3, [r6, #72]	; 0x48
 800562c:	fbb5 f1f3 	udiv	r1, r5, r3
 8005630:	4439      	add	r1, r7
 8005632:	4291      	cmp	r1, r2
 8005634:	bf28      	it	cs
 8005636:	4611      	movcs	r1, r2
 8005638:	9105      	str	r1, [sp, #20]
 800563a:	f1b8 0f00 	cmp.w	r8, #0
 800563e:	f000 8085 	beq.w	800574c <WS28xxDmx::SetData(unsigned long, unsigned char const*, unsigned long, bool)+0x150>
 8005642:	4680      	mov	r8, r0
 8005644:	2b03      	cmp	r3, #3
 8005646:	f8d6 b024 	ldr.w	fp, [r6, #36]	; 0x24
 800564a:	f000 808c 	beq.w	8005766 <WS28xxDmx::SetData(unsigned long, unsigned char const*, unsigned long, bool)+0x16a>
 800564e:	9a05      	ldr	r2, [sp, #20]
 8005650:	4297      	cmp	r7, r2
 8005652:	d272      	bcs.n	800573a <WS28xxDmx::SetData(unsigned long, unsigned char const*, unsigned long, bool)+0x13e>
 8005654:	9b04      	ldr	r3, [sp, #16]
 8005656:	4598      	cmp	r8, r3
 8005658:	d26f      	bcs.n	800573a <WS28xxDmx::SetData(unsigned long, unsigned char const*, unsigned long, bool)+0x13e>
 800565a:	fb0b fa07 	mul.w	sl, fp, r7
 800565e:	4444      	add	r4, r8
 8005660:	eb0b 090a 	add.w	r9, fp, sl
 8005664:	f1bb 0f00 	cmp.w	fp, #0
 8005668:	d05a      	beq.n	8005720 <WS28xxDmx::SetData(unsigned long, unsigned char const*, unsigned long, bool)+0x124>
 800566a:	eba9 010a 	sub.w	r1, r9, sl
 800566e:	f011 0003 	ands.w	r0, r1, #3
 8005672:	4655      	mov	r5, sl
 8005674:	d027      	beq.n	80056c6 <WS28xxDmx::SetData(unsigned long, unsigned char const*, unsigned long, bool)+0xca>
 8005676:	2801      	cmp	r0, #1
 8005678:	d018      	beq.n	80056ac <WS28xxDmx::SetData(unsigned long, unsigned char const*, unsigned long, bool)+0xb0>
 800567a:	2802      	cmp	r0, #2
 800567c:	d00b      	beq.n	8005696 <WS28xxDmx::SetData(unsigned long, unsigned char const*, unsigned long, bool)+0x9a>
 800567e:	78e5      	ldrb	r5, [r4, #3]
 8005680:	7863      	ldrb	r3, [r4, #1]
 8005682:	9501      	str	r5, [sp, #4]
 8005684:	78a2      	ldrb	r2, [r4, #2]
 8005686:	9200      	str	r2, [sp, #0]
 8005688:	7822      	ldrb	r2, [r4, #0]
 800568a:	6d30      	ldr	r0, [r6, #80]	; 0x50
 800568c:	4651      	mov	r1, sl
 800568e:	f001 f961 	bl	8006954 <WS28xx::SetPixel(unsigned long, unsigned char, unsigned char, unsigned char, unsigned char)>
 8005692:	f10a 0501 	add.w	r5, sl, #1
 8005696:	78e1      	ldrb	r1, [r4, #3]
 8005698:	7863      	ldrb	r3, [r4, #1]
 800569a:	9101      	str	r1, [sp, #4]
 800569c:	78a0      	ldrb	r0, [r4, #2]
 800569e:	9000      	str	r0, [sp, #0]
 80056a0:	4629      	mov	r1, r5
 80056a2:	7822      	ldrb	r2, [r4, #0]
 80056a4:	6d30      	ldr	r0, [r6, #80]	; 0x50
 80056a6:	3501      	adds	r5, #1
 80056a8:	f001 f954 	bl	8006954 <WS28xx::SetPixel(unsigned long, unsigned char, unsigned char, unsigned char, unsigned char)>
 80056ac:	78e2      	ldrb	r2, [r4, #3]
 80056ae:	7863      	ldrb	r3, [r4, #1]
 80056b0:	9201      	str	r2, [sp, #4]
 80056b2:	78a1      	ldrb	r1, [r4, #2]
 80056b4:	9100      	str	r1, [sp, #0]
 80056b6:	7822      	ldrb	r2, [r4, #0]
 80056b8:	6d30      	ldr	r0, [r6, #80]	; 0x50
 80056ba:	4629      	mov	r1, r5
 80056bc:	3501      	adds	r5, #1
 80056be:	f001 f949 	bl	8006954 <WS28xx::SetPixel(unsigned long, unsigned char, unsigned char, unsigned char, unsigned char)>
 80056c2:	454d      	cmp	r5, r9
 80056c4:	d02c      	beq.n	8005720 <WS28xxDmx::SetData(unsigned long, unsigned char const*, unsigned long, bool)+0x124>
 80056c6:	78e0      	ldrb	r0, [r4, #3]
 80056c8:	7863      	ldrb	r3, [r4, #1]
 80056ca:	9001      	str	r0, [sp, #4]
 80056cc:	78a2      	ldrb	r2, [r4, #2]
 80056ce:	9200      	str	r2, [sp, #0]
 80056d0:	4629      	mov	r1, r5
 80056d2:	7822      	ldrb	r2, [r4, #0]
 80056d4:	6d30      	ldr	r0, [r6, #80]	; 0x50
 80056d6:	f001 f93d 	bl	8006954 <WS28xx::SetPixel(unsigned long, unsigned char, unsigned char, unsigned char, unsigned char)>
 80056da:	78e1      	ldrb	r1, [r4, #3]
 80056dc:	7863      	ldrb	r3, [r4, #1]
 80056de:	9101      	str	r1, [sp, #4]
 80056e0:	78a0      	ldrb	r0, [r4, #2]
 80056e2:	9000      	str	r0, [sp, #0]
 80056e4:	1c69      	adds	r1, r5, #1
 80056e6:	7822      	ldrb	r2, [r4, #0]
 80056e8:	6d30      	ldr	r0, [r6, #80]	; 0x50
 80056ea:	9103      	str	r1, [sp, #12]
 80056ec:	f001 f932 	bl	8006954 <WS28xx::SetPixel(unsigned long, unsigned char, unsigned char, unsigned char, unsigned char)>
 80056f0:	78e2      	ldrb	r2, [r4, #3]
 80056f2:	7863      	ldrb	r3, [r4, #1]
 80056f4:	9201      	str	r2, [sp, #4]
 80056f6:	78a0      	ldrb	r0, [r4, #2]
 80056f8:	9903      	ldr	r1, [sp, #12]
 80056fa:	9000      	str	r0, [sp, #0]
 80056fc:	7822      	ldrb	r2, [r4, #0]
 80056fe:	6d30      	ldr	r0, [r6, #80]	; 0x50
 8005700:	3101      	adds	r1, #1
 8005702:	f001 f927 	bl	8006954 <WS28xx::SetPixel(unsigned long, unsigned char, unsigned char, unsigned char, unsigned char)>
 8005706:	78e1      	ldrb	r1, [r4, #3]
 8005708:	7863      	ldrb	r3, [r4, #1]
 800570a:	9101      	str	r1, [sp, #4]
 800570c:	78a2      	ldrb	r2, [r4, #2]
 800570e:	9200      	str	r2, [sp, #0]
 8005710:	1ce9      	adds	r1, r5, #3
 8005712:	7822      	ldrb	r2, [r4, #0]
 8005714:	6d30      	ldr	r0, [r6, #80]	; 0x50
 8005716:	3504      	adds	r5, #4
 8005718:	f001 f91c 	bl	8006954 <WS28xx::SetPixel(unsigned long, unsigned char, unsigned char, unsigned char, unsigned char)>
 800571c:	454d      	cmp	r5, r9
 800571e:	d1d2      	bne.n	80056c6 <WS28xxDmx::SetData(unsigned long, unsigned char const*, unsigned long, bool)+0xca>
 8005720:	9b05      	ldr	r3, [sp, #20]
 8005722:	3701      	adds	r7, #1
 8005724:	42bb      	cmp	r3, r7
 8005726:	f108 0804 	add.w	r8, r8, #4
 800572a:	d906      	bls.n	800573a <WS28xxDmx::SetData(unsigned long, unsigned char const*, unsigned long, bool)+0x13e>
 800572c:	9d04      	ldr	r5, [sp, #16]
 800572e:	4545      	cmp	r5, r8
 8005730:	44da      	add	sl, fp
 8005732:	f104 0404 	add.w	r4, r4, #4
 8005736:	44d9      	add	r9, fp
 8005738:	d894      	bhi.n	8005664 <WS28xxDmx::SetData(unsigned long, unsigned char const*, unsigned long, bool)+0x68>
 800573a:	9c06      	ldr	r4, [sp, #24]
 800573c:	b11c      	cbz	r4, 8005746 <WS28xxDmx::SetData(unsigned long, unsigned char const*, unsigned long, bool)+0x14a>
 800573e:	6c77      	ldr	r7, [r6, #68]	; 0x44
 8005740:	9d07      	ldr	r5, [sp, #28]
 8005742:	42af      	cmp	r7, r5
 8005744:	d01b      	beq.n	800577e <WS28xxDmx::SetData(unsigned long, unsigned char const*, unsigned long, bool)+0x182>
 8005746:	b009      	add	sp, #36	; 0x24
 8005748:	e8bd 8ff0 	ldmia.w	sp!, {r4, r5, r6, r7, r8, r9, sl, fp, pc}
 800574c:	6bb0      	ldr	r0, [r6, #56]	; 0x38
 800574e:	4290      	cmp	r0, r2
 8005750:	f67f af78 	bls.w	8005644 <WS28xxDmx::SetData(unsigned long, unsigned char const*, unsigned long, bool)+0x48>
 8005754:	f8b6 8030 	ldrh.w	r8, [r6, #48]	; 0x30
 8005758:	f8d6 b024 	ldr.w	fp, [r6, #36]	; 0x24
 800575c:	2b03      	cmp	r3, #3
 800575e:	f108 38ff 	add.w	r8, r8, #4294967295	; 0xffffffff
 8005762:	f47f af74 	bne.w	800564e <WS28xxDmx::SetData(unsigned long, unsigned char const*, unsigned long, bool)+0x52>
 8005766:	68f3      	ldr	r3, [r6, #12]
 8005768:	2b05      	cmp	r3, #5
 800576a:	f200 8165 	bhi.w	8005a38 <WS28xxDmx::SetData(unsigned long, unsigned char const*, unsigned long, bool)+0x43c>
 800576e:	e8df f013 	tbh	[pc, r3, lsl #1]
 8005772:	00f10080 	rscseq	r0, r1, r0, lsl #1
 8005776:	0010024b 	andseq	r0, r0, fp, asr #4
 800577a:	016301d7 	ldrdeq	r0, [r3, #-23]!	; 0xffffffe9
 800577e:	f896 1055 	ldrb.w	r1, [r6, #85]	; 0x55
 8005782:	2900      	cmp	r1, #0
 8005784:	d1df      	bne.n	8005746 <WS28xxDmx::SetData(unsigned long, unsigned char const*, unsigned long, bool)+0x14a>
 8005786:	6d30      	ldr	r0, [r6, #80]	; 0x50
 8005788:	b009      	add	sp, #36	; 0x24
 800578a:	e8bd 4ff0 	ldmia.w	sp!, {r4, r5, r6, r7, r8, r9, sl, fp, lr}
 800578e:	f001 ba5b 	b.w	8006c48 <WS28xx::Update()>
 8005792:	9d05      	ldr	r5, [sp, #20]
 8005794:	42af      	cmp	r7, r5
 8005796:	d2d0      	bcs.n	800573a <WS28xxDmx::SetData(unsigned long, unsigned char const*, unsigned long, bool)+0x13e>
 8005798:	9b04      	ldr	r3, [sp, #16]
 800579a:	4598      	cmp	r8, r3
 800579c:	d2cd      	bcs.n	800573a <WS28xxDmx::SetData(unsigned long, unsigned char const*, unsigned long, bool)+0x13e>
 800579e:	9a05      	ldr	r2, [sp, #20]
 80057a0:	1ee0      	subs	r0, r4, #3
 80057a2:	eb07 0147 	add.w	r1, r7, r7, lsl #1
 80057a6:	eb02 0e42 	add.w	lr, r2, r2, lsl #1
 80057aa:	1a45      	subs	r5, r0, r1
 80057ac:	4475      	add	r5, lr
 80057ae:	fb0b f707 	mul.w	r7, fp, r7
 80057b2:	4445      	add	r5, r8
 80057b4:	4444      	add	r4, r8
 80057b6:	9503      	str	r5, [sp, #12]
 80057b8:	eb07 090b 	add.w	r9, r7, fp
 80057bc:	f1bb 0f00 	cmp.w	fp, #0
 80057c0:	d049      	beq.n	8005856 <WS28xxDmx::SetData(unsigned long, unsigned char const*, unsigned long, bool)+0x25a>
 80057c2:	eba9 0c07 	sub.w	ip, r9, r7
 80057c6:	f01c 0303 	ands.w	r3, ip, #3
 80057ca:	463d      	mov	r5, r7
 80057cc:	d020      	beq.n	8005810 <WS28xxDmx::SetData(unsigned long, unsigned char const*, unsigned long, bool)+0x214>
 80057ce:	2b01      	cmp	r3, #1
 80057d0:	d013      	beq.n	80057fa <WS28xxDmx::SetData(unsigned long, unsigned char const*, unsigned long, bool)+0x1fe>
 80057d2:	2b02      	cmp	r3, #2
 80057d4:	d008      	beq.n	80057e8 <WS28xxDmx::SetData(unsigned long, unsigned char const*, unsigned long, bool)+0x1ec>
 80057d6:	7860      	ldrb	r0, [r4, #1]
 80057d8:	78a2      	ldrb	r2, [r4, #2]
 80057da:	9000      	str	r0, [sp, #0]
 80057dc:	7823      	ldrb	r3, [r4, #0]
 80057de:	6d30      	ldr	r0, [r6, #80]	; 0x50
 80057e0:	4639      	mov	r1, r7
 80057e2:	f000 ff95 	bl	8006710 <WS28xx::SetPixel(unsigned long, unsigned char, unsigned char, unsigned char)>
 80057e6:	1c7d      	adds	r5, r7, #1
 80057e8:	7861      	ldrb	r1, [r4, #1]
 80057ea:	78a2      	ldrb	r2, [r4, #2]
 80057ec:	9100      	str	r1, [sp, #0]
 80057ee:	7823      	ldrb	r3, [r4, #0]
 80057f0:	6d30      	ldr	r0, [r6, #80]	; 0x50
 80057f2:	4629      	mov	r1, r5
 80057f4:	3501      	adds	r5, #1
 80057f6:	f000 ff8b 	bl	8006710 <WS28xx::SetPixel(unsigned long, unsigned char, unsigned char, unsigned char)>
 80057fa:	7863      	ldrb	r3, [r4, #1]
 80057fc:	78a2      	ldrb	r2, [r4, #2]
 80057fe:	9300      	str	r3, [sp, #0]
 8005800:	4629      	mov	r1, r5
 8005802:	7823      	ldrb	r3, [r4, #0]
 8005804:	6d30      	ldr	r0, [r6, #80]	; 0x50
 8005806:	3501      	adds	r5, #1
 8005808:	f000 ff82 	bl	8006710 <WS28xx::SetPixel(unsigned long, unsigned char, unsigned char, unsigned char)>
 800580c:	45a9      	cmp	r9, r5
 800580e:	d022      	beq.n	8005856 <WS28xxDmx::SetData(unsigned long, unsigned char const*, unsigned long, bool)+0x25a>
 8005810:	7861      	ldrb	r1, [r4, #1]
 8005812:	78a2      	ldrb	r2, [r4, #2]
 8005814:	9100      	str	r1, [sp, #0]
 8005816:	7823      	ldrb	r3, [r4, #0]
 8005818:	6d30      	ldr	r0, [r6, #80]	; 0x50
 800581a:	4629      	mov	r1, r5
 800581c:	f000 ff78 	bl	8006710 <WS28xx::SetPixel(unsigned long, unsigned char, unsigned char, unsigned char)>
 8005820:	7863      	ldrb	r3, [r4, #1]
 8005822:	78a2      	ldrb	r2, [r4, #2]
 8005824:	9300      	str	r3, [sp, #0]
 8005826:	1c69      	adds	r1, r5, #1
 8005828:	7823      	ldrb	r3, [r4, #0]
 800582a:	6d30      	ldr	r0, [r6, #80]	; 0x50
 800582c:	f000 ff70 	bl	8006710 <WS28xx::SetPixel(unsigned long, unsigned char, unsigned char, unsigned char)>
 8005830:	7860      	ldrb	r0, [r4, #1]
 8005832:	78a2      	ldrb	r2, [r4, #2]
 8005834:	9000      	str	r0, [sp, #0]
 8005836:	1ca9      	adds	r1, r5, #2
 8005838:	7823      	ldrb	r3, [r4, #0]
 800583a:	6d30      	ldr	r0, [r6, #80]	; 0x50
 800583c:	f000 ff68 	bl	8006710 <WS28xx::SetPixel(unsigned long, unsigned char, unsigned char, unsigned char)>
 8005840:	7861      	ldrb	r1, [r4, #1]
 8005842:	78a2      	ldrb	r2, [r4, #2]
 8005844:	9100      	str	r1, [sp, #0]
 8005846:	7823      	ldrb	r3, [r4, #0]
 8005848:	6d30      	ldr	r0, [r6, #80]	; 0x50
 800584a:	1ce9      	adds	r1, r5, #3
 800584c:	3504      	adds	r5, #4
 800584e:	f000 ff5f 	bl	8006710 <WS28xx::SetPixel(unsigned long, unsigned char, unsigned char, unsigned char)>
 8005852:	45a9      	cmp	r9, r5
 8005854:	d1dc      	bne.n	8005810 <WS28xxDmx::SetData(unsigned long, unsigned char const*, unsigned long, bool)+0x214>
 8005856:	9a03      	ldr	r2, [sp, #12]
 8005858:	4294      	cmp	r4, r2
 800585a:	f108 0803 	add.w	r8, r8, #3
 800585e:	f43f af6c 	beq.w	800573a <WS28xxDmx::SetData(unsigned long, unsigned char const*, unsigned long, bool)+0x13e>
 8005862:	9804      	ldr	r0, [sp, #16]
 8005864:	4540      	cmp	r0, r8
 8005866:	445f      	add	r7, fp
 8005868:	f104 0403 	add.w	r4, r4, #3
 800586c:	44d9      	add	r9, fp
 800586e:	d8a5      	bhi.n	80057bc <WS28xxDmx::SetData(unsigned long, unsigned char const*, unsigned long, bool)+0x1c0>
 8005870:	e763      	b.n	800573a <WS28xxDmx::SetData(unsigned long, unsigned char const*, unsigned long, bool)+0x13e>
 8005872:	9d05      	ldr	r5, [sp, #20]
 8005874:	42af      	cmp	r7, r5
 8005876:	f4bf af60 	bcs.w	800573a <WS28xxDmx::SetData(unsigned long, unsigned char const*, unsigned long, bool)+0x13e>
 800587a:	9b04      	ldr	r3, [sp, #16]
 800587c:	4598      	cmp	r8, r3
 800587e:	f4bf af5c 	bcs.w	800573a <WS28xxDmx::SetData(unsigned long, unsigned char const*, unsigned long, bool)+0x13e>
 8005882:	1ee0      	subs	r0, r4, #3
 8005884:	eb07 0247 	add.w	r2, r7, r7, lsl #1
 8005888:	eb05 0c45 	add.w	ip, r5, r5, lsl #1
 800588c:	1a81      	subs	r1, r0, r2
 800588e:	4461      	add	r1, ip
 8005890:	fb0b f707 	mul.w	r7, fp, r7
 8005894:	4441      	add	r1, r8
 8005896:	4444      	add	r4, r8
 8005898:	9103      	str	r1, [sp, #12]
 800589a:	eb0b 0907 	add.w	r9, fp, r7
 800589e:	f1bb 0f00 	cmp.w	fp, #0
 80058a2:	d049      	beq.n	8005938 <WS28xxDmx::SetData(unsigned long, unsigned char const*, unsigned long, bool)+0x33c>
 80058a4:	eba9 0a07 	sub.w	sl, r9, r7
 80058a8:	f01a 0303 	ands.w	r3, sl, #3
 80058ac:	463d      	mov	r5, r7
 80058ae:	d020      	beq.n	80058f2 <WS28xxDmx::SetData(unsigned long, unsigned char const*, unsigned long, bool)+0x2f6>
 80058b0:	2b01      	cmp	r3, #1
 80058b2:	d013      	beq.n	80058dc <WS28xxDmx::SetData(unsigned long, unsigned char const*, unsigned long, bool)+0x2e0>
 80058b4:	2b02      	cmp	r3, #2
 80058b6:	d008      	beq.n	80058ca <WS28xxDmx::SetData(unsigned long, unsigned char const*, unsigned long, bool)+0x2ce>
 80058b8:	78a5      	ldrb	r5, [r4, #2]
 80058ba:	7863      	ldrb	r3, [r4, #1]
 80058bc:	9500      	str	r5, [sp, #0]
 80058be:	7822      	ldrb	r2, [r4, #0]
 80058c0:	6d30      	ldr	r0, [r6, #80]	; 0x50
 80058c2:	4639      	mov	r1, r7
 80058c4:	f000 ff24 	bl	8006710 <WS28xx::SetPixel(unsigned long, unsigned char, unsigned char, unsigned char)>
 80058c8:	1c7d      	adds	r5, r7, #1
 80058ca:	78a0      	ldrb	r0, [r4, #2]
 80058cc:	7863      	ldrb	r3, [r4, #1]
 80058ce:	9000      	str	r0, [sp, #0]
 80058d0:	4629      	mov	r1, r5
 80058d2:	7822      	ldrb	r2, [r4, #0]
 80058d4:	6d30      	ldr	r0, [r6, #80]	; 0x50
 80058d6:	3501      	adds	r5, #1
 80058d8:	f000 ff1a 	bl	8006710 <WS28xx::SetPixel(unsigned long, unsigned char, unsigned char, unsigned char)>
 80058dc:	78a2      	ldrb	r2, [r4, #2]
 80058de:	7863      	ldrb	r3, [r4, #1]
 80058e0:	9200      	str	r2, [sp, #0]
 80058e2:	4629      	mov	r1, r5
 80058e4:	7822      	ldrb	r2, [r4, #0]
 80058e6:	6d30      	ldr	r0, [r6, #80]	; 0x50
 80058e8:	3501      	adds	r5, #1
 80058ea:	f000 ff11 	bl	8006710 <WS28xx::SetPixel(unsigned long, unsigned char, unsigned char, unsigned char)>
 80058ee:	454d      	cmp	r5, r9
 80058f0:	d022      	beq.n	8005938 <WS28xxDmx::SetData(unsigned long, unsigned char const*, unsigned long, bool)+0x33c>
 80058f2:	78a0      	ldrb	r0, [r4, #2]
 80058f4:	7863      	ldrb	r3, [r4, #1]
 80058f6:	9000      	str	r0, [sp, #0]
 80058f8:	4629      	mov	r1, r5
 80058fa:	7822      	ldrb	r2, [r4, #0]
 80058fc:	6d30      	ldr	r0, [r6, #80]	; 0x50
 80058fe:	f000 ff07 	bl	8006710 <WS28xx::SetPixel(unsigned long, unsigned char, unsigned char, unsigned char)>
 8005902:	78a2      	ldrb	r2, [r4, #2]
 8005904:	7863      	ldrb	r3, [r4, #1]
 8005906:	9200      	str	r2, [sp, #0]
 8005908:	1c69      	adds	r1, r5, #1
 800590a:	7822      	ldrb	r2, [r4, #0]
 800590c:	6d30      	ldr	r0, [r6, #80]	; 0x50
 800590e:	f000 feff 	bl	8006710 <WS28xx::SetPixel(unsigned long, unsigned char, unsigned char, unsigned char)>
 8005912:	78a0      	ldrb	r0, [r4, #2]
 8005914:	7863      	ldrb	r3, [r4, #1]
 8005916:	9000      	str	r0, [sp, #0]
 8005918:	1ca9      	adds	r1, r5, #2
 800591a:	7822      	ldrb	r2, [r4, #0]
 800591c:	6d30      	ldr	r0, [r6, #80]	; 0x50
 800591e:	f000 fef7 	bl	8006710 <WS28xx::SetPixel(unsigned long, unsigned char, unsigned char, unsigned char)>
 8005922:	78a1      	ldrb	r1, [r4, #2]
 8005924:	7863      	ldrb	r3, [r4, #1]
 8005926:	9100      	str	r1, [sp, #0]
 8005928:	7822      	ldrb	r2, [r4, #0]
 800592a:	6d30      	ldr	r0, [r6, #80]	; 0x50
 800592c:	1ce9      	adds	r1, r5, #3
 800592e:	3504      	adds	r5, #4
 8005930:	f000 feee 	bl	8006710 <WS28xx::SetPixel(unsigned long, unsigned char, unsigned char, unsigned char)>
 8005934:	454d      	cmp	r5, r9
 8005936:	d1dc      	bne.n	80058f2 <WS28xxDmx::SetData(unsigned long, unsigned char const*, unsigned long, bool)+0x2f6>
 8005938:	9903      	ldr	r1, [sp, #12]
 800593a:	42a1      	cmp	r1, r4
 800593c:	f108 0803 	add.w	r8, r8, #3
 8005940:	f43f aefb 	beq.w	800573a <WS28xxDmx::SetData(unsigned long, unsigned char const*, unsigned long, bool)+0x13e>
 8005944:	9b04      	ldr	r3, [sp, #16]
 8005946:	4543      	cmp	r3, r8
 8005948:	445f      	add	r7, fp
 800594a:	f104 0403 	add.w	r4, r4, #3
 800594e:	44d9      	add	r9, fp
 8005950:	d8a5      	bhi.n	800589e <WS28xxDmx::SetData(unsigned long, unsigned char const*, unsigned long, bool)+0x2a2>
 8005952:	e6f2      	b.n	800573a <WS28xxDmx::SetData(unsigned long, unsigned char const*, unsigned long, bool)+0x13e>
 8005954:	9d05      	ldr	r5, [sp, #20]
 8005956:	42af      	cmp	r7, r5
 8005958:	f4bf aeef 	bcs.w	800573a <WS28xxDmx::SetData(unsigned long, unsigned char const*, unsigned long, bool)+0x13e>
 800595c:	9a04      	ldr	r2, [sp, #16]
 800595e:	4590      	cmp	r8, r2
 8005960:	f4bf aeeb 	bcs.w	800573a <WS28xxDmx::SetData(unsigned long, unsigned char const*, unsigned long, bool)+0x13e>
 8005964:	9b05      	ldr	r3, [sp, #20]
 8005966:	1ee0      	subs	r0, r4, #3
 8005968:	eb07 0147 	add.w	r1, r7, r7, lsl #1
 800596c:	eb03 0e43 	add.w	lr, r3, r3, lsl #1
 8005970:	1a45      	subs	r5, r0, r1
 8005972:	4475      	add	r5, lr
 8005974:	fb0b f707 	mul.w	r7, fp, r7
 8005978:	4445      	add	r5, r8
 800597a:	4444      	add	r4, r8
 800597c:	9503      	str	r5, [sp, #12]
 800597e:	eb07 090b 	add.w	r9, r7, fp
 8005982:	f1bb 0f00 	cmp.w	fp, #0
 8005986:	d049      	beq.n	8005a1c <WS28xxDmx::SetData(unsigned long, unsigned char const*, unsigned long, bool)+0x420>
 8005988:	eba9 0207 	sub.w	r2, r9, r7
 800598c:	f012 0303 	ands.w	r3, r2, #3
 8005990:	463d      	mov	r5, r7
 8005992:	d020      	beq.n	80059d6 <WS28xxDmx::SetData(unsigned long, unsigned char const*, unsigned long, bool)+0x3da>
 8005994:	2b01      	cmp	r3, #1
 8005996:	d013      	beq.n	80059c0 <WS28xxDmx::SetData(unsigned long, unsigned char const*, unsigned long, bool)+0x3c4>
 8005998:	2b02      	cmp	r3, #2
 800599a:	d008      	beq.n	80059ae <WS28xxDmx::SetData(unsigned long, unsigned char const*, unsigned long, bool)+0x3b2>
 800599c:	7860      	ldrb	r0, [r4, #1]
 800599e:	78a3      	ldrb	r3, [r4, #2]
 80059a0:	9000      	str	r0, [sp, #0]
 80059a2:	7822      	ldrb	r2, [r4, #0]
 80059a4:	6d30      	ldr	r0, [r6, #80]	; 0x50
 80059a6:	4639      	mov	r1, r7
 80059a8:	f000 feb2 	bl	8006710 <WS28xx::SetPixel(unsigned long, unsigned char, unsigned char, unsigned char)>
 80059ac:	1c7d      	adds	r5, r7, #1
 80059ae:	7861      	ldrb	r1, [r4, #1]
 80059b0:	78a3      	ldrb	r3, [r4, #2]
 80059b2:	9100      	str	r1, [sp, #0]
 80059b4:	7822      	ldrb	r2, [r4, #0]
 80059b6:	6d30      	ldr	r0, [r6, #80]	; 0x50
 80059b8:	4629      	mov	r1, r5
 80059ba:	3501      	adds	r5, #1
 80059bc:	f000 fea8 	bl	8006710 <WS28xx::SetPixel(unsigned long, unsigned char, unsigned char, unsigned char)>
 80059c0:	7862      	ldrb	r2, [r4, #1]
 80059c2:	78a3      	ldrb	r3, [r4, #2]
 80059c4:	9200      	str	r2, [sp, #0]
 80059c6:	4629      	mov	r1, r5
 80059c8:	7822      	ldrb	r2, [r4, #0]
 80059ca:	6d30      	ldr	r0, [r6, #80]	; 0x50
 80059cc:	3501      	adds	r5, #1
 80059ce:	f000 fe9f 	bl	8006710 <WS28xx::SetPixel(unsigned long, unsigned char, unsigned char, unsigned char)>
 80059d2:	45a9      	cmp	r9, r5
 80059d4:	d022      	beq.n	8005a1c <WS28xxDmx::SetData(unsigned long, unsigned char const*, unsigned long, bool)+0x420>
 80059d6:	7861      	ldrb	r1, [r4, #1]
 80059d8:	78a3      	ldrb	r3, [r4, #2]
 80059da:	9100      	str	r1, [sp, #0]
 80059dc:	7822      	ldrb	r2, [r4, #0]
 80059de:	6d30      	ldr	r0, [r6, #80]	; 0x50
 80059e0:	4629      	mov	r1, r5
 80059e2:	f000 fe95 	bl	8006710 <WS28xx::SetPixel(unsigned long, unsigned char, unsigned char, unsigned char)>
 80059e6:	7862      	ldrb	r2, [r4, #1]
 80059e8:	78a3      	ldrb	r3, [r4, #2]
 80059ea:	9200      	str	r2, [sp, #0]
 80059ec:	1c69      	adds	r1, r5, #1
 80059ee:	7822      	ldrb	r2, [r4, #0]
 80059f0:	6d30      	ldr	r0, [r6, #80]	; 0x50
 80059f2:	f000 fe8d 	bl	8006710 <WS28xx::SetPixel(unsigned long, unsigned char, unsigned char, unsigned char)>
 80059f6:	7860      	ldrb	r0, [r4, #1]
 80059f8:	78a3      	ldrb	r3, [r4, #2]
 80059fa:	9000      	str	r0, [sp, #0]
 80059fc:	1ca9      	adds	r1, r5, #2
 80059fe:	7822      	ldrb	r2, [r4, #0]
 8005a00:	6d30      	ldr	r0, [r6, #80]	; 0x50
 8005a02:	f000 fe85 	bl	8006710 <WS28xx::SetPixel(unsigned long, unsigned char, unsigned char, unsigned char)>
 8005a06:	7861      	ldrb	r1, [r4, #1]
 8005a08:	78a3      	ldrb	r3, [r4, #2]
 8005a0a:	9100      	str	r1, [sp, #0]
 8005a0c:	7822      	ldrb	r2, [r4, #0]
 8005a0e:	6d30      	ldr	r0, [r6, #80]	; 0x50
 8005a10:	1ce9      	adds	r1, r5, #3
 8005a12:	3504      	adds	r5, #4
 8005a14:	f000 fe7c 	bl	8006710 <WS28xx::SetPixel(unsigned long, unsigned char, unsigned char, unsigned char)>
 8005a18:	45a9      	cmp	r9, r5
 8005a1a:	d1dc      	bne.n	80059d6 <WS28xxDmx::SetData(unsigned long, unsigned char const*, unsigned long, bool)+0x3da>
 8005a1c:	9b03      	ldr	r3, [sp, #12]
 8005a1e:	42a3      	cmp	r3, r4
 8005a20:	f108 0803 	add.w	r8, r8, #3
 8005a24:	f43f ae89 	beq.w	800573a <WS28xxDmx::SetData(unsigned long, unsigned char const*, unsigned long, bool)+0x13e>
 8005a28:	9804      	ldr	r0, [sp, #16]
 8005a2a:	4540      	cmp	r0, r8
 8005a2c:	445f      	add	r7, fp
 8005a2e:	f104 0403 	add.w	r4, r4, #3
 8005a32:	44d9      	add	r9, fp
 8005a34:	d8a5      	bhi.n	8005982 <WS28xxDmx::SetData(unsigned long, unsigned char const*, unsigned long, bool)+0x386>
 8005a36:	e680      	b.n	800573a <WS28xxDmx::SetData(unsigned long, unsigned char const*, unsigned long, bool)+0x13e>
 8005a38:	9d05      	ldr	r5, [sp, #20]
 8005a3a:	42af      	cmp	r7, r5
 8005a3c:	f4bf ae7d 	bcs.w	800573a <WS28xxDmx::SetData(unsigned long, unsigned char const*, unsigned long, bool)+0x13e>
 8005a40:	9b04      	ldr	r3, [sp, #16]
 8005a42:	4598      	cmp	r8, r3
 8005a44:	f4bf ae79 	bcs.w	800573a <WS28xxDmx::SetData(unsigned long, unsigned char const*, unsigned long, bool)+0x13e>
 8005a48:	9a05      	ldr	r2, [sp, #20]
 8005a4a:	1ee0      	subs	r0, r4, #3
 8005a4c:	eb07 0147 	add.w	r1, r7, r7, lsl #1
 8005a50:	eb02 0e42 	add.w	lr, r2, r2, lsl #1
 8005a54:	1a45      	subs	r5, r0, r1
 8005a56:	4475      	add	r5, lr
 8005a58:	fb0b f707 	mul.w	r7, fp, r7
 8005a5c:	4445      	add	r5, r8
 8005a5e:	4444      	add	r4, r8
 8005a60:	9503      	str	r5, [sp, #12]
 8005a62:	eb0b 0907 	add.w	r9, fp, r7
 8005a66:	f1bb 0f00 	cmp.w	fp, #0
 8005a6a:	d04b      	beq.n	8005b04 <WS28xxDmx::SetData(unsigned long, unsigned char const*, unsigned long, bool)+0x508>
 8005a6c:	eba9 0c07 	sub.w	ip, r9, r7
 8005a70:	f01c 0303 	ands.w	r3, ip, #3
 8005a74:	463d      	mov	r5, r7
 8005a76:	d020      	beq.n	8005aba <WS28xxDmx::SetData(unsigned long, unsigned char const*, unsigned long, bool)+0x4be>
 8005a78:	2b01      	cmp	r3, #1
 8005a7a:	d013      	beq.n	8005aa4 <WS28xxDmx::SetData(unsigned long, unsigned char const*, unsigned long, bool)+0x4a8>
 8005a7c:	2b02      	cmp	r3, #2
 8005a7e:	d008      	beq.n	8005a92 <WS28xxDmx::SetData(unsigned long, unsigned char const*, unsigned long, bool)+0x496>
 8005a80:	7820      	ldrb	r0, [r4, #0]
 8005a82:	7863      	ldrb	r3, [r4, #1]
 8005a84:	78a2      	ldrb	r2, [r4, #2]
 8005a86:	9000      	str	r0, [sp, #0]
 8005a88:	6d30      	ldr	r0, [r6, #80]	; 0x50
 8005a8a:	4639      	mov	r1, r7
 8005a8c:	f000 fe40 	bl	8006710 <WS28xx::SetPixel(unsigned long, unsigned char, unsigned char, unsigned char)>
 8005a90:	1c7d      	adds	r5, r7, #1
 8005a92:	7821      	ldrb	r1, [r4, #0]
 8005a94:	7863      	ldrb	r3, [r4, #1]
 8005a96:	78a2      	ldrb	r2, [r4, #2]
 8005a98:	9100      	str	r1, [sp, #0]
 8005a9a:	6d30      	ldr	r0, [r6, #80]	; 0x50
 8005a9c:	4629      	mov	r1, r5
 8005a9e:	3501      	adds	r5, #1
 8005aa0:	f000 fe36 	bl	8006710 <WS28xx::SetPixel(unsigned long, unsigned char, unsigned char, unsigned char)>
 8005aa4:	7820      	ldrb	r0, [r4, #0]
 8005aa6:	7863      	ldrb	r3, [r4, #1]
 8005aa8:	78a2      	ldrb	r2, [r4, #2]
 8005aaa:	9000      	str	r0, [sp, #0]
 8005aac:	4629      	mov	r1, r5
 8005aae:	6d30      	ldr	r0, [r6, #80]	; 0x50
 8005ab0:	3501      	adds	r5, #1
 8005ab2:	f000 fe2d 	bl	8006710 <WS28xx::SetPixel(unsigned long, unsigned char, unsigned char, unsigned char)>
 8005ab6:	454d      	cmp	r5, r9
 8005ab8:	d024      	beq.n	8005b04 <WS28xxDmx::SetData(unsigned long, unsigned char const*, unsigned long, bool)+0x508>
 8005aba:	7820      	ldrb	r0, [r4, #0]
 8005abc:	7863      	ldrb	r3, [r4, #1]
 8005abe:	78a2      	ldrb	r2, [r4, #2]
 8005ac0:	9000      	str	r0, [sp, #0]
 8005ac2:	4629      	mov	r1, r5
 8005ac4:	6d30      	ldr	r0, [r6, #80]	; 0x50
 8005ac6:	f000 fe23 	bl	8006710 <WS28xx::SetPixel(unsigned long, unsigned char, unsigned char, unsigned char)>
 8005aca:	7821      	ldrb	r1, [r4, #0]
 8005acc:	7863      	ldrb	r3, [r4, #1]
 8005ace:	78a2      	ldrb	r2, [r4, #2]
 8005ad0:	9100      	str	r1, [sp, #0]
 8005ad2:	f105 0a01 	add.w	sl, r5, #1
 8005ad6:	6d30      	ldr	r0, [r6, #80]	; 0x50
 8005ad8:	4651      	mov	r1, sl
 8005ada:	f000 fe19 	bl	8006710 <WS28xx::SetPixel(unsigned long, unsigned char, unsigned char, unsigned char)>
 8005ade:	7820      	ldrb	r0, [r4, #0]
 8005ae0:	7863      	ldrb	r3, [r4, #1]
 8005ae2:	78a2      	ldrb	r2, [r4, #2]
 8005ae4:	9000      	str	r0, [sp, #0]
 8005ae6:	1ca9      	adds	r1, r5, #2
 8005ae8:	6d30      	ldr	r0, [r6, #80]	; 0x50
 8005aea:	f000 fe11 	bl	8006710 <WS28xx::SetPixel(unsigned long, unsigned char, unsigned char, unsigned char)>
 8005aee:	7821      	ldrb	r1, [r4, #0]
 8005af0:	7863      	ldrb	r3, [r4, #1]
 8005af2:	78a2      	ldrb	r2, [r4, #2]
 8005af4:	9100      	str	r1, [sp, #0]
 8005af6:	6d30      	ldr	r0, [r6, #80]	; 0x50
 8005af8:	1ce9      	adds	r1, r5, #3
 8005afa:	3504      	adds	r5, #4
 8005afc:	f000 fe08 	bl	8006710 <WS28xx::SetPixel(unsigned long, unsigned char, unsigned char, unsigned char)>
 8005b00:	454d      	cmp	r5, r9
 8005b02:	d1da      	bne.n	8005aba <WS28xxDmx::SetData(unsigned long, unsigned char const*, unsigned long, bool)+0x4be>
 8005b04:	9a03      	ldr	r2, [sp, #12]
 8005b06:	4294      	cmp	r4, r2
 8005b08:	f108 0803 	add.w	r8, r8, #3
 8005b0c:	f43f ae15 	beq.w	800573a <WS28xxDmx::SetData(unsigned long, unsigned char const*, unsigned long, bool)+0x13e>
 8005b10:	9b04      	ldr	r3, [sp, #16]
 8005b12:	4543      	cmp	r3, r8
 8005b14:	445f      	add	r7, fp
 8005b16:	f104 0403 	add.w	r4, r4, #3
 8005b1a:	44d9      	add	r9, fp
 8005b1c:	d8a3      	bhi.n	8005a66 <WS28xxDmx::SetData(unsigned long, unsigned char const*, unsigned long, bool)+0x46a>
 8005b1e:	e60c      	b.n	800573a <WS28xxDmx::SetData(unsigned long, unsigned char const*, unsigned long, bool)+0x13e>
 8005b20:	9d05      	ldr	r5, [sp, #20]
 8005b22:	42af      	cmp	r7, r5
 8005b24:	f4bf ae09 	bcs.w	800573a <WS28xxDmx::SetData(unsigned long, unsigned char const*, unsigned long, bool)+0x13e>
 8005b28:	9804      	ldr	r0, [sp, #16]
 8005b2a:	4580      	cmp	r8, r0
 8005b2c:	f4bf ae05 	bcs.w	800573a <WS28xxDmx::SetData(unsigned long, unsigned char const*, unsigned long, bool)+0x13e>
 8005b30:	9905      	ldr	r1, [sp, #20]
 8005b32:	1ee3      	subs	r3, r4, #3
 8005b34:	eb07 0247 	add.w	r2, r7, r7, lsl #1
 8005b38:	eb01 0c41 	add.w	ip, r1, r1, lsl #1
 8005b3c:	1a9d      	subs	r5, r3, r2
 8005b3e:	4465      	add	r5, ip
 8005b40:	fb0b f707 	mul.w	r7, fp, r7
 8005b44:	4445      	add	r5, r8
 8005b46:	4444      	add	r4, r8
 8005b48:	9503      	str	r5, [sp, #12]
 8005b4a:	eb0b 0907 	add.w	r9, fp, r7
 8005b4e:	f1bb 0f00 	cmp.w	fp, #0
 8005b52:	d04b      	beq.n	8005bec <WS28xxDmx::SetData(unsigned long, unsigned char const*, unsigned long, bool)+0x5f0>
 8005b54:	eba9 0007 	sub.w	r0, r9, r7
 8005b58:	f010 0103 	ands.w	r1, r0, #3
 8005b5c:	463d      	mov	r5, r7
 8005b5e:	d020      	beq.n	8005ba2 <WS28xxDmx::SetData(unsigned long, unsigned char const*, unsigned long, bool)+0x5a6>
 8005b60:	2901      	cmp	r1, #1
 8005b62:	d013      	beq.n	8005b8c <WS28xxDmx::SetData(unsigned long, unsigned char const*, unsigned long, bool)+0x590>
 8005b64:	2902      	cmp	r1, #2
 8005b66:	d008      	beq.n	8005b7a <WS28xxDmx::SetData(unsigned long, unsigned char const*, unsigned long, bool)+0x57e>
 8005b68:	7825      	ldrb	r5, [r4, #0]
 8005b6a:	78a3      	ldrb	r3, [r4, #2]
 8005b6c:	7862      	ldrb	r2, [r4, #1]
 8005b6e:	9500      	str	r5, [sp, #0]
 8005b70:	6d30      	ldr	r0, [r6, #80]	; 0x50
 8005b72:	4639      	mov	r1, r7
 8005b74:	f000 fdcc 	bl	8006710 <WS28xx::SetPixel(unsigned long, unsigned char, unsigned char, unsigned char)>
 8005b78:	1c7d      	adds	r5, r7, #1
 8005b7a:	7820      	ldrb	r0, [r4, #0]
 8005b7c:	78a3      	ldrb	r3, [r4, #2]
 8005b7e:	7862      	ldrb	r2, [r4, #1]
 8005b80:	9000      	str	r0, [sp, #0]
 8005b82:	4629      	mov	r1, r5
 8005b84:	6d30      	ldr	r0, [r6, #80]	; 0x50
 8005b86:	3501      	adds	r5, #1
 8005b88:	f000 fdc2 	bl	8006710 <WS28xx::SetPixel(unsigned long, unsigned char, unsigned char, unsigned char)>
 8005b8c:	7821      	ldrb	r1, [r4, #0]
 8005b8e:	78a3      	ldrb	r3, [r4, #2]
 8005b90:	7862      	ldrb	r2, [r4, #1]
 8005b92:	9100      	str	r1, [sp, #0]
 8005b94:	6d30      	ldr	r0, [r6, #80]	; 0x50
 8005b96:	4629      	mov	r1, r5
 8005b98:	3501      	adds	r5, #1
 8005b9a:	f000 fdb9 	bl	8006710 <WS28xx::SetPixel(unsigned long, unsigned char, unsigned char, unsigned char)>
 8005b9e:	454d      	cmp	r5, r9
 8005ba0:	d024      	beq.n	8005bec <WS28xxDmx::SetData(unsigned long, unsigned char const*, unsigned long, bool)+0x5f0>
 8005ba2:	7820      	ldrb	r0, [r4, #0]
 8005ba4:	78a3      	ldrb	r3, [r4, #2]
 8005ba6:	7862      	ldrb	r2, [r4, #1]
 8005ba8:	9000      	str	r0, [sp, #0]
 8005baa:	4629      	mov	r1, r5
 8005bac:	6d30      	ldr	r0, [r6, #80]	; 0x50
 8005bae:	f000 fdaf 	bl	8006710 <WS28xx::SetPixel(unsigned long, unsigned char, unsigned char, unsigned char)>
 8005bb2:	7821      	ldrb	r1, [r4, #0]
 8005bb4:	78a3      	ldrb	r3, [r4, #2]
 8005bb6:	7862      	ldrb	r2, [r4, #1]
 8005bb8:	9100      	str	r1, [sp, #0]
 8005bba:	f105 0a01 	add.w	sl, r5, #1
 8005bbe:	6d30      	ldr	r0, [r6, #80]	; 0x50
 8005bc0:	4651      	mov	r1, sl
 8005bc2:	f000 fda5 	bl	8006710 <WS28xx::SetPixel(unsigned long, unsigned char, unsigned char, unsigned char)>
 8005bc6:	7820      	ldrb	r0, [r4, #0]
 8005bc8:	78a3      	ldrb	r3, [r4, #2]
 8005bca:	7862      	ldrb	r2, [r4, #1]
 8005bcc:	9000      	str	r0, [sp, #0]
 8005bce:	1ca9      	adds	r1, r5, #2
 8005bd0:	6d30      	ldr	r0, [r6, #80]	; 0x50
 8005bd2:	f000 fd9d 	bl	8006710 <WS28xx::SetPixel(unsigned long, unsigned char, unsigned char, unsigned char)>
 8005bd6:	7821      	ldrb	r1, [r4, #0]
 8005bd8:	78a3      	ldrb	r3, [r4, #2]
 8005bda:	7862      	ldrb	r2, [r4, #1]
 8005bdc:	9100      	str	r1, [sp, #0]
 8005bde:	6d30      	ldr	r0, [r6, #80]	; 0x50
 8005be0:	1ce9      	adds	r1, r5, #3
 8005be2:	3504      	adds	r5, #4
 8005be4:	f000 fd94 	bl	8006710 <WS28xx::SetPixel(unsigned long, unsigned char, unsigned char, unsigned char)>
 8005be8:	454d      	cmp	r5, r9
 8005bea:	d1da      	bne.n	8005ba2 <WS28xxDmx::SetData(unsigned long, unsigned char const*, unsigned long, bool)+0x5a6>
 8005bec:	9b03      	ldr	r3, [sp, #12]
 8005bee:	429c      	cmp	r4, r3
 8005bf0:	f108 0803 	add.w	r8, r8, #3
 8005bf4:	f43f ada1 	beq.w	800573a <WS28xxDmx::SetData(unsigned long, unsigned char const*, unsigned long, bool)+0x13e>
 8005bf8:	9a04      	ldr	r2, [sp, #16]
 8005bfa:	4542      	cmp	r2, r8
 8005bfc:	445f      	add	r7, fp
 8005bfe:	f104 0403 	add.w	r4, r4, #3
 8005c02:	44d9      	add	r9, fp
 8005c04:	d8a3      	bhi.n	8005b4e <WS28xxDmx::SetData(unsigned long, unsigned char const*, unsigned long, bool)+0x552>
 8005c06:	e598      	b.n	800573a <WS28xxDmx::SetData(unsigned long, unsigned char const*, unsigned long, bool)+0x13e>
 8005c08:	9d05      	ldr	r5, [sp, #20]
 8005c0a:	42af      	cmp	r7, r5
 8005c0c:	f4bf ad95 	bcs.w	800573a <WS28xxDmx::SetData(unsigned long, unsigned char const*, unsigned long, bool)+0x13e>
 8005c10:	9a04      	ldr	r2, [sp, #16]
 8005c12:	4590      	cmp	r8, r2
 8005c14:	f4bf ad91 	bcs.w	800573a <WS28xxDmx::SetData(unsigned long, unsigned char const*, unsigned long, bool)+0x13e>
 8005c18:	9b05      	ldr	r3, [sp, #20]
 8005c1a:	1ee0      	subs	r0, r4, #3
 8005c1c:	eb07 0147 	add.w	r1, r7, r7, lsl #1
 8005c20:	eb03 0a43 	add.w	sl, r3, r3, lsl #1
 8005c24:	1a45      	subs	r5, r0, r1
 8005c26:	4455      	add	r5, sl
 8005c28:	fb0b f707 	mul.w	r7, fp, r7
 8005c2c:	4445      	add	r5, r8
 8005c2e:	4444      	add	r4, r8
 8005c30:	9503      	str	r5, [sp, #12]
 8005c32:	eb07 090b 	add.w	r9, r7, fp
 8005c36:	f1bb 0f00 	cmp.w	fp, #0
 8005c3a:	d049      	beq.n	8005cd0 <WS28xxDmx::SetData(unsigned long, unsigned char const*, unsigned long, bool)+0x6d4>
 8005c3c:	eba9 0207 	sub.w	r2, r9, r7
 8005c40:	f012 0303 	ands.w	r3, r2, #3
 8005c44:	463d      	mov	r5, r7
 8005c46:	d020      	beq.n	8005c8a <WS28xxDmx::SetData(unsigned long, unsigned char const*, unsigned long, bool)+0x68e>
 8005c48:	2b01      	cmp	r3, #1
 8005c4a:	d013      	beq.n	8005c74 <WS28xxDmx::SetData(unsigned long, unsigned char const*, unsigned long, bool)+0x678>
 8005c4c:	2b02      	cmp	r3, #2
 8005c4e:	d008      	beq.n	8005c62 <WS28xxDmx::SetData(unsigned long, unsigned char const*, unsigned long, bool)+0x666>
 8005c50:	78a0      	ldrb	r0, [r4, #2]
 8005c52:	7862      	ldrb	r2, [r4, #1]
 8005c54:	9000      	str	r0, [sp, #0]
 8005c56:	7823      	ldrb	r3, [r4, #0]
 8005c58:	6d30      	ldr	r0, [r6, #80]	; 0x50
 8005c5a:	4639      	mov	r1, r7
 8005c5c:	f000 fd58 	bl	8006710 <WS28xx::SetPixel(unsigned long, unsigned char, unsigned char, unsigned char)>
 8005c60:	1c7d      	adds	r5, r7, #1
 8005c62:	78a1      	ldrb	r1, [r4, #2]
 8005c64:	7862      	ldrb	r2, [r4, #1]
 8005c66:	9100      	str	r1, [sp, #0]
 8005c68:	7823      	ldrb	r3, [r4, #0]
 8005c6a:	6d30      	ldr	r0, [r6, #80]	; 0x50
 8005c6c:	4629      	mov	r1, r5
 8005c6e:	3501      	adds	r5, #1
 8005c70:	f000 fd4e 	bl	8006710 <WS28xx::SetPixel(unsigned long, unsigned char, unsigned char, unsigned char)>
 8005c74:	78a3      	ldrb	r3, [r4, #2]
 8005c76:	7862      	ldrb	r2, [r4, #1]
 8005c78:	9300      	str	r3, [sp, #0]
 8005c7a:	4629      	mov	r1, r5
 8005c7c:	7823      	ldrb	r3, [r4, #0]
 8005c7e:	6d30      	ldr	r0, [r6, #80]	; 0x50
 8005c80:	3501      	adds	r5, #1
 8005c82:	f000 fd45 	bl	8006710 <WS28xx::SetPixel(unsigned long, unsigned char, unsigned char, unsigned char)>
 8005c86:	45a9      	cmp	r9, r5
 8005c88:	d022      	beq.n	8005cd0 <WS28xxDmx::SetData(unsigned long, unsigned char const*, unsigned long, bool)+0x6d4>
 8005c8a:	78a1      	ldrb	r1, [r4, #2]
 8005c8c:	7862      	ldrb	r2, [r4, #1]
 8005c8e:	9100      	str	r1, [sp, #0]
 8005c90:	7823      	ldrb	r3, [r4, #0]
 8005c92:	6d30      	ldr	r0, [r6, #80]	; 0x50
 8005c94:	4629      	mov	r1, r5
 8005c96:	f000 fd3b 	bl	8006710 <WS28xx::SetPixel(unsigned long, unsigned char, unsigned char, unsigned char)>
 8005c9a:	78a3      	ldrb	r3, [r4, #2]
 8005c9c:	7862      	ldrb	r2, [r4, #1]
 8005c9e:	9300      	str	r3, [sp, #0]
 8005ca0:	1c69      	adds	r1, r5, #1
 8005ca2:	7823      	ldrb	r3, [r4, #0]
 8005ca4:	6d30      	ldr	r0, [r6, #80]	; 0x50
 8005ca6:	f000 fd33 	bl	8006710 <WS28xx::SetPixel(unsigned long, unsigned char, unsigned char, unsigned char)>
 8005caa:	78a0      	ldrb	r0, [r4, #2]
 8005cac:	7862      	ldrb	r2, [r4, #1]
 8005cae:	9000      	str	r0, [sp, #0]
 8005cb0:	1ca9      	adds	r1, r5, #2
 8005cb2:	7823      	ldrb	r3, [r4, #0]
 8005cb4:	6d30      	ldr	r0, [r6, #80]	; 0x50
 8005cb6:	f000 fd2b 	bl	8006710 <WS28xx::SetPixel(unsigned long, unsigned char, unsigned char, unsigned char)>
 8005cba:	78a1      	ldrb	r1, [r4, #2]
 8005cbc:	7862      	ldrb	r2, [r4, #1]
 8005cbe:	9100      	str	r1, [sp, #0]
 8005cc0:	7823      	ldrb	r3, [r4, #0]
 8005cc2:	6d30      	ldr	r0, [r6, #80]	; 0x50
 8005cc4:	1ce9      	adds	r1, r5, #3
 8005cc6:	3504      	adds	r5, #4
 8005cc8:	f000 fd22 	bl	8006710 <WS28xx::SetPixel(unsigned long, unsigned char, unsigned char, unsigned char)>
 8005ccc:	45a9      	cmp	r9, r5
 8005cce:	d1dc      	bne.n	8005c8a <WS28xxDmx::SetData(unsigned long, unsigned char const*, unsigned long, bool)+0x68e>
 8005cd0:	9a03      	ldr	r2, [sp, #12]
 8005cd2:	42a2      	cmp	r2, r4
 8005cd4:	f108 0803 	add.w	r8, r8, #3
 8005cd8:	f43f ad2f 	beq.w	800573a <WS28xxDmx::SetData(unsigned long, unsigned char const*, unsigned long, bool)+0x13e>
 8005cdc:	9804      	ldr	r0, [sp, #16]
 8005cde:	4540      	cmp	r0, r8
 8005ce0:	445f      	add	r7, fp
 8005ce2:	f104 0403 	add.w	r4, r4, #3
 8005ce6:	44d9      	add	r9, fp
 8005ce8:	d8a5      	bhi.n	8005c36 <WS28xxDmx::SetData(unsigned long, unsigned char const*, unsigned long, bool)+0x63a>
 8005cea:	e526      	b.n	800573a <WS28xxDmx::SetData(unsigned long, unsigned char const*, unsigned long, bool)+0x13e>

08005cec <WS28xxDmx::FullOn()>:
 8005cec:	b510      	push	{r4, lr}
 8005cee:	4604      	mov	r4, r0
 8005cf0:	f003 fc2a 	bl	8009548 <gd32_spi_dma_tx_is_active()>
 8005cf4:	2800      	cmp	r0, #0
 8005cf6:	d1fb      	bne.n	8005cf0 <WS28xxDmx::FullOn()+0x4>
 8005cf8:	6d20      	ldr	r0, [r4, #80]	; 0x50
 8005cfa:	e8bd 4010 	ldmia.w	sp!, {r4, lr}
 8005cfe:	f001 b806 	b.w	8006d0e <WS28xx::FullOn()>
 8005d02:	bf00      	nop

08005d04 <WS28xxDmx::SetDmxStartAddress(unsigned short)>:
 8005d04:	f8b0 204c 	ldrh.w	r2, [r0, #76]	; 0x4c
 8005d08:	428a      	cmp	r2, r1
 8005d0a:	d025      	beq.n	8005d58 <WS28xxDmx::SetDmxStartAddress(unsigned short)+0x54>
 8005d0c:	4603      	mov	r3, r0
 8005d0e:	f8b0 004e 	ldrh.w	r0, [r0, #78]	; 0x4e
 8005d12:	4408      	add	r0, r1
 8005d14:	f5b0 7f00 	cmp.w	r0, #512	; 0x200
 8005d18:	468c      	mov	ip, r1
 8005d1a:	dc03      	bgt.n	8005d24 <WS28xxDmx::SetDmxStartAddress(unsigned short)+0x20>
 8005d1c:	3901      	subs	r1, #1
 8005d1e:	f5b1 7f00 	cmp.w	r1, #512	; 0x200
 8005d22:	d301      	bcc.n	8005d28 <WS28xxDmx::SetDmxStartAddress(unsigned short)+0x24>
 8005d24:	2000      	movs	r0, #0
 8005d26:	4770      	bx	lr
 8005d28:	b500      	push	{lr}
 8005d2a:	480c      	ldr	r0, [pc, #48]	; (8005d5c <WS28xxDmx::SetDmxStartAddress(unsigned short)+0x58>)
 8005d2c:	f8a3 c04c 	strh.w	ip, [r3, #76]	; 0x4c
 8005d30:	b087      	sub	sp, #28
 8005d32:	2102      	movs	r1, #2
 8005d34:	f04f 0e04 	mov.w	lr, #4
 8005d38:	2200      	movs	r2, #0
 8005d3a:	6800      	ldr	r0, [r0, #0]
 8005d3c:	9202      	str	r2, [sp, #8]
 8005d3e:	e9cd 1e00 	strd	r1, lr, [sp]
 8005d42:	f10d 0316 	add.w	r3, sp, #22
 8005d46:	2207      	movs	r2, #7
 8005d48:	f8ad c016 	strh.w	ip, [sp, #22]
 8005d4c:	f001 f9bc 	bl	80070c8 <ConfigStore::Update(configstore::Store, unsigned long, void const*, unsigned long, unsigned long, unsigned long)>
 8005d50:	2001      	movs	r0, #1
 8005d52:	b007      	add	sp, #28
 8005d54:	f85d fb04 	ldr.w	pc, [sp], #4
 8005d58:	2001      	movs	r0, #1
 8005d5a:	4770      	bx	lr
 8005d5c:	20001638 	andcs	r1, r0, r8, lsr r6

08005d60 <WS28xxDmx::Print()>:
 8005d60:	3004      	adds	r0, #4
 8005d62:	f7ff bae3 	b.w	800532c <PixelDmxConfiguration::Print()>
 8005d66:	bf00      	nop

08005d68 <WS28xxDmx::Blackout(bool)>:
 8005d68:	b538      	push	{r3, r4, r5, lr}
 8005d6a:	4604      	mov	r4, r0
 8005d6c:	460d      	mov	r5, r1
 8005d6e:	f880 1055 	strb.w	r1, [r0, #85]	; 0x55
 8005d72:	f003 fbe9 	bl	8009548 <gd32_spi_dma_tx_is_active()>
 8005d76:	2800      	cmp	r0, #0
 8005d78:	d1fb      	bne.n	8005d72 <WS28xxDmx::Blackout(bool)+0xa>
 8005d7a:	6d20      	ldr	r0, [r4, #80]	; 0x50
 8005d7c:	b11d      	cbz	r5, 8005d86 <WS28xxDmx::Blackout(bool)+0x1e>
 8005d7e:	e8bd 4038 	ldmia.w	sp!, {r3, r4, r5, lr}
 8005d82:	f000 bf7d 	b.w	8006c80 <WS28xx::Blackout()>
 8005d86:	e8bd 4038 	ldmia.w	sp!, {r3, r4, r5, lr}
 8005d8a:	f000 bf5d 	b.w	8006c48 <WS28xx::Update()>
 8005d8e:	bf00      	nop

08005d90 <WS28xxDmx::GetSlotInfo(unsigned short, lightset::SlotInfo&)>:
 8005d90:	f8b0 304e 	ldrh.w	r3, [r0, #78]	; 0x4e
 8005d94:	428b      	cmp	r3, r1
 8005d96:	d30a      	bcc.n	8005dae <WS28xxDmx::GetSlotInfo(unsigned short, lightset::SlotInfo&)+0x1e>
 8005d98:	6c83      	ldr	r3, [r0, #72]	; 0x48
 8005d9a:	fbb1 f0f3 	udiv	r0, r1, r3
 8005d9e:	fb03 1110 	mls	r1, r3, r0, r1
 8005da2:	2903      	cmp	r1, #3
 8005da4:	d80d      	bhi.n	8005dc2 <WS28xxDmx::GetSlotInfo(unsigned short, lightset::SlotInfo&)+0x32>
 8005da6:	e8df f001 	tbb	[pc, r1]
 8005daa:	0c04120f 	sfmeq	f1, 4, [r4], {15}
 8005dae:	2000      	movs	r0, #0
 8005db0:	4770      	bx	lr
 8005db2:	f240 2c07 	movw	ip, #519	; 0x207
 8005db6:	2300      	movs	r3, #0
 8005db8:	7093      	strb	r3, [r2, #2]
 8005dba:	f8a2 c000 	strh.w	ip, [r2]
 8005dbe:	2001      	movs	r0, #1
 8005dc0:	4770      	bx	lr
 8005dc2:	f240 2c12 	movw	ip, #530	; 0x212
 8005dc6:	e7f6      	b.n	8005db6 <WS28xxDmx::GetSlotInfo(unsigned short, lightset::SlotInfo&)+0x26>
 8005dc8:	f240 2c05 	movw	ip, #517	; 0x205
 8005dcc:	e7f3      	b.n	8005db6 <WS28xxDmx::GetSlotInfo(unsigned short, lightset::SlotInfo&)+0x26>
 8005dce:	f240 2c06 	movw	ip, #518	; 0x206
 8005dd2:	e7f0      	b.n	8005db6 <WS28xxDmx::GetSlotInfo(unsigned short, lightset::SlotInfo&)+0x26>

08005dd4 <WS28xxDmx::~WS28xxDmx()>:
 8005dd4:	b538      	push	{r3, r4, r5, lr}
 8005dd6:	6d05      	ldr	r5, [r0, #80]	; 0x50
 8005dd8:	4b08      	ldr	r3, [pc, #32]	; (8005dfc <WS28xxDmx::~WS28xxDmx()+0x28>)
 8005dda:	6003      	str	r3, [r0, #0]
 8005ddc:	4604      	mov	r4, r0
 8005dde:	b135      	cbz	r5, 8005dee <WS28xxDmx::~WS28xxDmx()+0x1a>
 8005de0:	4628      	mov	r0, r5
 8005de2:	f000 fecf 	bl	8006b84 <WS28xx::~WS28xx()>
 8005de6:	2128      	movs	r1, #40	; 0x28
 8005de8:	4628      	mov	r0, r5
 8005dea:	f002 f926 	bl	800803a <operator delete(void*, unsigned int)>
 8005dee:	4620      	mov	r0, r4
 8005df0:	2158      	movs	r1, #88	; 0x58
 8005df2:	f002 f922 	bl	800803a <operator delete(void*, unsigned int)>
 8005df6:	4620      	mov	r0, r4
 8005df8:	bd38      	pop	{r3, r4, r5, pc}
 8005dfa:	bf00      	nop
 8005dfc:	0800acbc 	stmdaeq	r0, {r2, r3, r4, r5, r7, sl, fp, sp, pc}

08005e00 <WS28xxDmx::WS28xxDmx(PixelDmxConfiguration&)>:
 8005e00:	4684      	mov	ip, r0
 8005e02:	e92d 41f0 	stmdb	sp!, {r4, r5, r6, r7, r8, lr}
 8005e06:	4b23      	ldr	r3, [pc, #140]	; (8005e94 <WS28xxDmx::WS28xxDmx(PixelDmxConfiguration&)+0x94>)
 8005e08:	f84c 3b04 	str.w	r3, [ip], #4
 8005e0c:	468e      	mov	lr, r1
 8005e0e:	4604      	mov	r4, r0
 8005e10:	e8be 000f 	ldmia.w	lr!, {r0, r1, r2, r3}
 8005e14:	4665      	mov	r5, ip
 8005e16:	e8ac 000f 	stmia.w	ip!, {r0, r1, r2, r3}
 8005e1a:	e8be 000f 	ldmia.w	lr!, {r0, r1, r2, r3}
 8005e1e:	e8ac 000f 	stmia.w	ip!, {r0, r1, r2, r3}
 8005e22:	e89e 000f 	ldmia.w	lr, {r0, r1, r2, r3}
 8005e26:	2700      	movs	r7, #0
 8005e28:	f8df 8070 	ldr.w	r8, [pc, #112]	; 8005e9c <WS28xxDmx::WS28xxDmx(PixelDmxConfiguration&)+0x9c>
 8005e2c:	4e1a      	ldr	r6, [pc, #104]	; (8005e98 <WS28xxDmx::WS28xxDmx(PixelDmxConfiguration&)+0x98>)
 8005e2e:	f8c8 4000 	str.w	r4, [r8]
 8005e32:	e88c 000f 	stmia.w	ip, {r0, r1, r2, r3}
 8005e36:	f104 0334 	add.w	r3, r4, #52	; 0x34
 8005e3a:	f104 0248 	add.w	r2, r4, #72	; 0x48
 8005e3e:	6527      	str	r7, [r4, #80]	; 0x50
 8005e40:	f8a4 7054 	strh.w	r7, [r4, #84]	; 0x54
 8005e44:	2101      	movs	r1, #1
 8005e46:	4628      	mov	r0, r5
 8005e48:	f7ff fa2c 	bl	80052a4 <PixelDmxConfiguration::Validate(unsigned long, unsigned long&, pixeldmxconfiguration::PortInfo&)>
 8005e4c:	2028      	movs	r0, #40	; 0x28
 8005e4e:	f002 f8f6 	bl	800803e <operator new(unsigned int)>
 8005e52:	4629      	mov	r1, r5
 8005e54:	4607      	mov	r7, r0
 8005e56:	f000 feb3 	bl	8006bc0 <WS28xx::WS28xx(PixelConfiguration&)>
 8005e5a:	6ca0      	ldr	r0, [r4, #72]	; 0x48
 8005e5c:	6aa1      	ldr	r1, [r4, #40]	; 0x28
 8005e5e:	8e22      	ldrh	r2, [r4, #48]	; 0x30
 8005e60:	f8a4 204c 	strh.w	r2, [r4, #76]	; 0x4c
 8005e64:	fb10 f301 	smulbb	r3, r0, r1
 8005e68:	f8a4 304e 	strh.w	r3, [r4, #78]	; 0x4e
 8005e6c:	6527      	str	r7, [r4, #80]	; 0x50
 8005e6e:	f240 6004 	movw	r0, #1540	; 0x604
 8005e72:	f002 fd83 	bl	800897c <rcu_periph_clock_enable>
 8005e76:	2504      	movs	r5, #4
 8005e78:	2304      	movs	r3, #4
 8005e7a:	2203      	movs	r2, #3
 8005e7c:	2110      	movs	r1, #16
 8005e7e:	4630      	mov	r0, r6
 8005e80:	f002 fcee 	bl	8008860 <gpio_init>
 8005e84:	6d20      	ldr	r0, [r4, #80]	; 0x50
 8005e86:	6175      	str	r5, [r6, #20]
 8005e88:	f000 fefa 	bl	8006c80 <WS28xx::Blackout()>
 8005e8c:	4620      	mov	r0, r4
 8005e8e:	e8bd 81f0 	ldmia.w	sp!, {r4, r5, r6, r7, r8, pc}
 8005e92:	bf00      	nop
 8005e94:	0800acbc 	stmdaeq	r0, {r2, r3, r4, r5, r7, sl, fp, sp, pc}
 8005e98:	40011000 	andmi	r1, r1, r0
 8005e9c:	200015ec 	andcs	r1, r0, ip, ror #11

08005ea0 <RDMHandler::GetParameterDescriptionCount() const>:
 8005ea0:	2004      	movs	r0, #4
 8005ea2:	4770      	bx	lr

08005ea4 <rdm::handle_manufactureer_pid_get(unsigned short, rdm::ManufacturerParamData const*, rdm::ManufacturerParamData*, unsigned short&)>:
 8005ea4:	b510      	push	{r4, lr}
 8005ea6:	4614      	mov	r4, r2
 8005ea8:	f240 2285 	movw	r2, #645	; 0x285
 8005eac:	4290      	cmp	r0, r2
 8005eae:	d048      	beq.n	8005f42 <rdm::handle_manufactureer_pid_get(unsigned short, rdm::ManufacturerParamData const*, rdm::ManufacturerParamData*, unsigned short&)+0x9e>
 8005eb0:	d808      	bhi.n	8005ec4 <rdm::handle_manufactureer_pid_get(unsigned short, rdm::ManufacturerParamData const*, rdm::ManufacturerParamData*, unsigned short&)+0x20>
 8005eb2:	2885      	cmp	r0, #133	; 0x85
 8005eb4:	d021      	beq.n	8005efa <rdm::handle_manufactureer_pid_get(unsigned short, rdm::ManufacturerParamData const*, rdm::ManufacturerParamData*, unsigned short&)+0x56>
 8005eb6:	f240 1285 	movw	r2, #389	; 0x185
 8005eba:	4290      	cmp	r0, r2
 8005ebc:	d036      	beq.n	8005f2c <rdm::handle_manufactureer_pid_get(unsigned short, rdm::ManufacturerParamData const*, rdm::ManufacturerParamData*, unsigned short&)+0x88>
 8005ebe:	2000      	movs	r0, #0
 8005ec0:	8018      	strh	r0, [r3, #0]
 8005ec2:	e02d      	b.n	8005f20 <rdm::handle_manufactureer_pid_get(unsigned short, rdm::ManufacturerParamData const*, rdm::ManufacturerParamData*, unsigned short&)+0x7c>
 8005ec4:	f240 3285 	movw	r2, #901	; 0x385
 8005ec8:	4290      	cmp	r0, r2
 8005eca:	d1f8      	bne.n	8005ebe <rdm::handle_manufactureer_pid_get(unsigned short, rdm::ManufacturerParamData const*, rdm::ManufacturerParamData*, unsigned short&)+0x1a>
 8005ecc:	4b1f      	ldr	r3, [pc, #124]	; (8005f4c <rdm::handle_manufactureer_pid_get(unsigned short, rdm::ManufacturerParamData const*, rdm::ManufacturerParamData*, unsigned short&)+0xa8>)
 8005ece:	681b      	ldr	r3, [r3, #0]
 8005ed0:	68d8      	ldr	r0, [r3, #12]
 8005ed2:	f000 f957 	bl	8006184 <PixelType::GetMap(pixel::Map)>
 8005ed6:	4602      	mov	r2, r0
 8005ed8:	4613      	mov	r3, r2
 8005eda:	3201      	adds	r2, #1
 8005edc:	7819      	ldrb	r1, [r3, #0]
 8005ede:	2900      	cmp	r1, #0
 8005ee0:	d1fa      	bne.n	8005ed8 <rdm::handle_manufactureer_pid_get(unsigned short, rdm::ManufacturerParamData const*, rdm::ManufacturerParamData*, unsigned short&)+0x34>
 8005ee2:	1a1b      	subs	r3, r3, r0
 8005ee4:	6862      	ldr	r2, [r4, #4]
 8005ee6:	7023      	strb	r3, [r4, #0]
 8005ee8:	fa50 f383 	uxtab	r3, r0, r3
 8005eec:	4283      	cmp	r3, r0
 8005eee:	d016      	beq.n	8005f1e <rdm::handle_manufactureer_pid_get(unsigned short, rdm::ManufacturerParamData const*, rdm::ManufacturerParamData*, unsigned short&)+0x7a>
 8005ef0:	f810 1b01 	ldrb.w	r1, [r0], #1
 8005ef4:	f802 1b01 	strb.w	r1, [r2], #1
 8005ef8:	e7f8      	b.n	8005eec <rdm::handle_manufactureer_pid_get(unsigned short, rdm::ManufacturerParamData const*, rdm::ManufacturerParamData*, unsigned short&)+0x48>
 8005efa:	4b14      	ldr	r3, [pc, #80]	; (8005f4c <rdm::handle_manufactureer_pid_get(unsigned short, rdm::ManufacturerParamData const*, rdm::ManufacturerParamData*, unsigned short&)+0xa8>)
 8005efc:	681b      	ldr	r3, [r3, #0]
 8005efe:	6858      	ldr	r0, [r3, #4]
 8005f00:	f000 f934 	bl	800616c <PixelType::GetType(pixel::Type)>
 8005f04:	4602      	mov	r2, r0
 8005f06:	4613      	mov	r3, r2
 8005f08:	3201      	adds	r2, #1
 8005f0a:	7819      	ldrb	r1, [r3, #0]
 8005f0c:	2900      	cmp	r1, #0
 8005f0e:	d1fa      	bne.n	8005f06 <rdm::handle_manufactureer_pid_get(unsigned short, rdm::ManufacturerParamData const*, rdm::ManufacturerParamData*, unsigned short&)+0x62>
 8005f10:	1a1b      	subs	r3, r3, r0
 8005f12:	6862      	ldr	r2, [r4, #4]
 8005f14:	7023      	strb	r3, [r4, #0]
 8005f16:	fa50 f383 	uxtab	r3, r0, r3
 8005f1a:	4283      	cmp	r3, r0
 8005f1c:	d101      	bne.n	8005f22 <rdm::handle_manufactureer_pid_get(unsigned short, rdm::ManufacturerParamData const*, rdm::ManufacturerParamData*, unsigned short&)+0x7e>
 8005f1e:	2001      	movs	r0, #1
 8005f20:	bd10      	pop	{r4, pc}
 8005f22:	f810 1b01 	ldrb.w	r1, [r0], #1
 8005f26:	f802 1b01 	strb.w	r1, [r2], #1
 8005f2a:	e7f6      	b.n	8005f1a <rdm::handle_manufactureer_pid_get(unsigned short, rdm::ManufacturerParamData const*, rdm::ManufacturerParamData*, unsigned short&)+0x76>
 8005f2c:	4b07      	ldr	r3, [pc, #28]	; (8005f4c <rdm::handle_manufactureer_pid_get(unsigned short, rdm::ManufacturerParamData const*, rdm::ManufacturerParamData*, unsigned short&)+0xa8>)
 8005f2e:	681b      	ldr	r3, [r3, #0]
 8005f30:	689b      	ldr	r3, [r3, #8]
 8005f32:	2202      	movs	r2, #2
 8005f34:	7022      	strb	r2, [r4, #0]
 8005f36:	6862      	ldr	r2, [r4, #4]
 8005f38:	0a19      	lsrs	r1, r3, #8
 8005f3a:	7011      	strb	r1, [r2, #0]
 8005f3c:	6862      	ldr	r2, [r4, #4]
 8005f3e:	7053      	strb	r3, [r2, #1]
 8005f40:	e7ed      	b.n	8005f1e <rdm::handle_manufactureer_pid_get(unsigned short, rdm::ManufacturerParamData const*, rdm::ManufacturerParamData*, unsigned short&)+0x7a>
 8005f42:	4b02      	ldr	r3, [pc, #8]	; (8005f4c <rdm::handle_manufactureer_pid_get(unsigned short, rdm::ManufacturerParamData const*, rdm::ManufacturerParamData*, unsigned short&)+0xa8>)
 8005f44:	681b      	ldr	r3, [r3, #0]
 8005f46:	6a5b      	ldr	r3, [r3, #36]	; 0x24
 8005f48:	e7f3      	b.n	8005f32 <rdm::handle_manufactureer_pid_get(unsigned short, rdm::ManufacturerParamData const*, rdm::ManufacturerParamData*, unsigned short&)+0x8e>
 8005f4a:	bf00      	nop
 8005f4c:	200015ec 	andcs	r1, r0, ip, ror #11

08005f50 <PixelConfiguration::GetTxH(pixel::Type, unsigned char&, unsigned char&)>:
 8005f50:	23c0      	movs	r3, #192	; 0xc0
 8005f52:	2803      	cmp	r0, #3
 8005f54:	700b      	strb	r3, [r1, #0]
 8005f56:	d006      	beq.n	8005f66 <PixelConfiguration::GetTxH(pixel::Type, unsigned char&, unsigned char&)+0x16>
 8005f58:	3808      	subs	r0, #8
 8005f5a:	2802      	cmp	r0, #2
 8005f5c:	bf8c      	ite	hi
 8005f5e:	23f0      	movhi	r3, #240	; 0xf0
 8005f60:	23fc      	movls	r3, #252	; 0xfc
 8005f62:	7013      	strb	r3, [r2, #0]
 8005f64:	4770      	bx	lr
 8005f66:	23f8      	movs	r3, #248	; 0xf8
 8005f68:	e7fb      	b.n	8005f62 <PixelConfiguration::GetTxH(pixel::Type, unsigned char&, unsigned char&)+0x12>
	...

08005f6c <PixelConfiguration::Validate(unsigned long&)>:
 8005f6c:	b513      	push	{r0, r1, r4, lr}
 8005f6e:	4604      	mov	r4, r0
 8005f70:	6800      	ldr	r0, [r0, #0]
 8005f72:	2807      	cmp	r0, #7
 8005f74:	e9d4 3201 	ldrd	r3, r2, [r4, #4]
 8005f78:	d127      	bne.n	8005fca <PixelConfiguration::Validate(unsigned long&)+0x5e>
 8005f7a:	f5b3 7f00 	cmp.w	r3, #512	; 0x200
 8005f7e:	bf28      	it	cs
 8005f80:	f44f 7300 	movcs.w	r3, #512	; 0x200
 8005f84:	6063      	str	r3, [r4, #4]
 8005f86:	2304      	movs	r3, #4
 8005f88:	600b      	str	r3, [r1, #0]
 8005f8a:	2301      	movs	r3, #1
 8005f8c:	2a06      	cmp	r2, #6
 8005f8e:	7563      	strb	r3, [r4, #21]
 8005f90:	d102      	bne.n	8005f98 <PixelConfiguration::Validate(unsigned long&)+0x2c>
 8005f92:	f000 f903 	bl	800619c <PixelType::GetMap(pixel::Type)>
 8005f96:	60a0      	str	r0, [r4, #8]
 8005f98:	7c63      	ldrb	r3, [r4, #17]
 8005f9a:	7c22      	ldrb	r2, [r4, #16]
 8005f9c:	6820      	ldr	r0, [r4, #0]
 8005f9e:	429a      	cmp	r2, r3
 8005fa0:	bf24      	itt	cs
 8005fa2:	2300      	movcs	r3, #0
 8005fa4:	8223      	strhcs	r3, [r4, #16]
 8005fa6:	f10d 0207 	add.w	r2, sp, #7
 8005faa:	f10d 0106 	add.w	r1, sp, #6
 8005fae:	f7ff ffcf 	bl	8005f50 <PixelConfiguration::GetTxH(pixel::Type, unsigned char&, unsigned char&)>
 8005fb2:	7c23      	ldrb	r3, [r4, #16]
 8005fb4:	b913      	cbnz	r3, 8005fbc <PixelConfiguration::Validate(unsigned long&)+0x50>
 8005fb6:	f89d 3006 	ldrb.w	r3, [sp, #6]
 8005fba:	7423      	strb	r3, [r4, #16]
 8005fbc:	7c63      	ldrb	r3, [r4, #17]
 8005fbe:	b913      	cbnz	r3, 8005fc6 <PixelConfiguration::Validate(unsigned long&)+0x5a>
 8005fc0:	f89d 3007 	ldrb.w	r3, [sp, #7]
 8005fc4:	7463      	strb	r3, [r4, #17]
 8005fc6:	4b2b      	ldr	r3, [pc, #172]	; (8006074 <PixelConfiguration::Validate(unsigned long&)+0x108>)
 8005fc8:	e017      	b.n	8005ffa <PixelConfiguration::Validate(unsigned long&)+0x8e>
 8005fca:	f5b3 7f2a 	cmp.w	r3, #680	; 0x2a8
 8005fce:	bf28      	it	cs
 8005fd0:	f44f 732a 	movcs.w	r3, #680	; 0x2a8
 8005fd4:	6063      	str	r3, [r4, #4]
 8005fd6:	2303      	movs	r3, #3
 8005fd8:	600b      	str	r3, [r1, #0]
 8005fda:	f1a0 030b 	sub.w	r3, r0, #11
 8005fde:	2b01      	cmp	r3, #1
 8005fe0:	d90d      	bls.n	8005ffe <PixelConfiguration::Validate(unsigned long&)+0x92>
 8005fe2:	b1f0      	cbz	r0, 8006022 <PixelConfiguration::Validate(unsigned long&)+0xb6>
 8005fe4:	280d      	cmp	r0, #13
 8005fe6:	d1d0      	bne.n	8005f8a <PixelConfiguration::Validate(unsigned long&)+0x1e>
 8005fe8:	2a06      	cmp	r2, #6
 8005fea:	68e2      	ldr	r2, [r4, #12]
 8005fec:	f04f 0300 	mov.w	r3, #0
 8005ff0:	7563      	strb	r3, [r4, #21]
 8005ff2:	bf08      	it	eq
 8005ff4:	60a3      	streq	r3, [r4, #8]
 8005ff6:	b9b2      	cbnz	r2, 8006026 <PixelConfiguration::Validate(unsigned long&)+0xba>
 8005ff8:	4b1f      	ldr	r3, [pc, #124]	; (8006078 <PixelConfiguration::Validate(unsigned long&)+0x10c>)
 8005ffa:	60e3      	str	r3, [r4, #12]
 8005ffc:	e016      	b.n	800602c <PixelConfiguration::Validate(unsigned long&)+0xc0>
 8005ffe:	7ca3      	ldrb	r3, [r4, #18]
 8006000:	2b1f      	cmp	r3, #31
 8006002:	bf8c      	ite	hi
 8006004:	23ff      	movhi	r3, #255	; 0xff
 8006006:	f063 031f 	ornls	r3, r3, #31
 800600a:	74a3      	strb	r3, [r4, #18]
 800600c:	2300      	movs	r3, #0
 800600e:	7563      	strb	r3, [r4, #21]
 8006010:	2a06      	cmp	r2, #6
 8006012:	d101      	bne.n	8006018 <PixelConfiguration::Validate(unsigned long&)+0xac>
 8006014:	2300      	movs	r3, #0
 8006016:	60a3      	str	r3, [r4, #8]
 8006018:	68e2      	ldr	r2, [r4, #12]
 800601a:	2a00      	cmp	r2, #0
 800601c:	d0ec      	beq.n	8005ff8 <PixelConfiguration::Validate(unsigned long&)+0x8c>
 800601e:	4b17      	ldr	r3, [pc, #92]	; (800607c <PixelConfiguration::Validate(unsigned long&)+0x110>)
 8006020:	e002      	b.n	8006028 <PixelConfiguration::Validate(unsigned long&)+0xbc>
 8006022:	7560      	strb	r0, [r4, #21]
 8006024:	e7f4      	b.n	8006010 <PixelConfiguration::Validate(unsigned long&)+0xa4>
 8006026:	4b16      	ldr	r3, [pc, #88]	; (8006080 <PixelConfiguration::Validate(unsigned long&)+0x114>)
 8006028:	429a      	cmp	r2, r3
 800602a:	d8e6      	bhi.n	8005ffa <PixelConfiguration::Validate(unsigned long&)+0x8e>
 800602c:	7d23      	ldrb	r3, [r4, #20]
 800602e:	b1fb      	cbz	r3, 8006070 <PixelConfiguration::Validate(unsigned long&)+0x104>
 8006030:	7ce3      	ldrb	r3, [r4, #19]
 8006032:	b98b      	cbnz	r3, 8006058 <PixelConfiguration::Validate(unsigned long&)+0xec>
 8006034:	6822      	ldr	r2, [r4, #0]
 8006036:	b15a      	cbz	r2, 8006050 <PixelConfiguration::Validate(unsigned long&)+0xe4>
 8006038:	f1a2 030b 	sub.w	r3, r2, #11
 800603c:	2b01      	cmp	r3, #1
 800603e:	d909      	bls.n	8006054 <PixelConfiguration::Validate(unsigned long&)+0xe8>
 8006040:	4b10      	ldr	r3, [pc, #64]	; (8006084 <PixelConfiguration::Validate(unsigned long&)+0x118>)
 8006042:	4911      	ldr	r1, [pc, #68]	; (8006088 <PixelConfiguration::Validate(unsigned long&)+0x11c>)
 8006044:	2a0d      	cmp	r2, #13
 8006046:	bf18      	it	ne
 8006048:	460b      	movne	r3, r1
 800604a:	61a3      	str	r3, [r4, #24]
 800604c:	b002      	add	sp, #8
 800604e:	bd10      	pop	{r4, pc}
 8006050:	4b0e      	ldr	r3, [pc, #56]	; (800608c <PixelConfiguration::Validate(unsigned long&)+0x120>)
 8006052:	e7fa      	b.n	800604a <PixelConfiguration::Validate(unsigned long&)+0xde>
 8006054:	4b0e      	ldr	r3, [pc, #56]	; (8006090 <PixelConfiguration::Validate(unsigned long&)+0x124>)
 8006056:	e7f8      	b.n	800604a <PixelConfiguration::Validate(unsigned long&)+0xde>
 8006058:	f1a3 0214 	sub.w	r2, r3, #20
 800605c:	2a05      	cmp	r2, #5
 800605e:	d807      	bhi.n	8006070 <PixelConfiguration::Validate(unsigned long&)+0x104>
 8006060:	3b15      	subs	r3, #21
 8006062:	2b04      	cmp	r3, #4
 8006064:	bf96      	itet	ls
 8006066:	4a0b      	ldrls	r2, [pc, #44]	; (8006094 <PixelConfiguration::Validate(unsigned long&)+0x128>)
 8006068:	4b0b      	ldrhi	r3, [pc, #44]	; (8006098 <PixelConfiguration::Validate(unsigned long&)+0x12c>)
 800606a:	f852 3023 	ldrls.w	r3, [r2, r3, lsl #2]
 800606e:	e7ec      	b.n	800604a <PixelConfiguration::Validate(unsigned long&)+0xde>
 8006070:	4b04      	ldr	r3, [pc, #16]	; (8006084 <PixelConfiguration::Validate(unsigned long&)+0x118>)
 8006072:	e7ea      	b.n	800604a <PixelConfiguration::Validate(unsigned long&)+0xde>
 8006074:	0061a800 	rsbeq	sl, r1, r0, lsl #16
 8006078:	003d0900 	eorseq	r0, sp, r0, lsl #18
 800607c:	017d7840 	cmneq	sp, r0, asr #16
 8006080:	00e4e1c0 	rsceq	lr, r4, r0, asr #3
 8006084:	0800b560 	stmdaeq	r0, {r5, r6, r8, sl, ip, sp, pc}
 8006088:	0800b260 	stmdaeq	r0, {r5, r6, r9, ip, sp, pc}
 800608c:	0800af60 	stmdaeq	r0, {r5, r6, r8, r9, sl, fp, sp, pc}
 8006090:	0800ae60 	stmdaeq	r0, {r5, r6, r9, sl, fp, sp, pc}
 8006094:	0800ae4c 	stmdaeq	r0, {r2, r3, r6, r9, sl, fp, sp, pc}
 8006098:	0800b460 	stmdaeq	r0, {r5, r6, sl, ip, sp, pc}

0800609c <PixelConfiguration::Print()>:
 800609c:	b513      	push	{r0, r1, r4, lr}
 800609e:	4604      	mov	r4, r0
 80060a0:	4827      	ldr	r0, [pc, #156]	; (8006140 <PixelConfiguration::Print()+0xa4>)
 80060a2:	f7fb fd95 	bl	8001bd0 <puts>
 80060a6:	6820      	ldr	r0, [r4, #0]
 80060a8:	f000 f860 	bl	800616c <PixelType::GetType(pixel::Type)>
 80060ac:	6822      	ldr	r2, [r4, #0]
 80060ae:	4601      	mov	r1, r0
 80060b0:	4824      	ldr	r0, [pc, #144]	; (8006144 <PixelConfiguration::Print()+0xa8>)
 80060b2:	f7fb fd55 	bl	8001b60 <printf>
 80060b6:	6861      	ldr	r1, [r4, #4]
 80060b8:	4823      	ldr	r0, [pc, #140]	; (8006148 <PixelConfiguration::Print()+0xac>)
 80060ba:	f7fb fd51 	bl	8001b60 <printf>
 80060be:	7d63      	ldrb	r3, [r4, #21]
 80060c0:	2b00      	cmp	r3, #0
 80060c2:	d034      	beq.n	800612e <PixelConfiguration::Print()+0x92>
 80060c4:	68a0      	ldr	r0, [r4, #8]
 80060c6:	f000 f85d 	bl	8006184 <PixelType::GetMap(pixel::Map)>
 80060ca:	68a2      	ldr	r2, [r4, #8]
 80060cc:	4601      	mov	r1, r0
 80060ce:	481f      	ldr	r0, [pc, #124]	; (800614c <PixelConfiguration::Print()+0xb0>)
 80060d0:	f7fb fd46 	bl	8001b60 <printf>
 80060d4:	7c20      	ldrb	r0, [r4, #16]
 80060d6:	f000 f86b 	bl	80061b0 <PixelType::ConvertTxH(unsigned char)>
 80060da:	ee10 0a10 	vmov	r0, s0
 80060de:	f7fa f9eb 	bl	80004b8 <__aeabi_f2d>
 80060e2:	460b      	mov	r3, r1
 80060e4:	7c21      	ldrb	r1, [r4, #16]
 80060e6:	9100      	str	r1, [sp, #0]
 80060e8:	4602      	mov	r2, r0
 80060ea:	4819      	ldr	r0, [pc, #100]	; (8006150 <PixelConfiguration::Print()+0xb4>)
 80060ec:	f7fb fd38 	bl	8001b60 <printf>
 80060f0:	7c60      	ldrb	r0, [r4, #17]
 80060f2:	f000 f85d 	bl	80061b0 <PixelType::ConvertTxH(unsigned char)>
 80060f6:	ee10 0a10 	vmov	r0, s0
 80060fa:	f7fa f9dd 	bl	80004b8 <__aeabi_f2d>
 80060fe:	460b      	mov	r3, r1
 8006100:	7c61      	ldrb	r1, [r4, #17]
 8006102:	9100      	str	r1, [sp, #0]
 8006104:	4602      	mov	r2, r0
 8006106:	4813      	ldr	r0, [pc, #76]	; (8006154 <PixelConfiguration::Print()+0xb8>)
 8006108:	f7fb fd2a 	bl	8001b60 <printf>
 800610c:	7d21      	ldrb	r1, [r4, #20]
 800610e:	4a12      	ldr	r2, [pc, #72]	; (8006158 <PixelConfiguration::Print()+0xbc>)
 8006110:	4b12      	ldr	r3, [pc, #72]	; (800615c <PixelConfiguration::Print()+0xc0>)
 8006112:	4813      	ldr	r0, [pc, #76]	; (8006160 <PixelConfiguration::Print()+0xc4>)
 8006114:	2900      	cmp	r1, #0
 8006116:	bf0c      	ite	eq
 8006118:	4611      	moveq	r1, r2
 800611a:	4619      	movne	r1, r3
 800611c:	f7fb fd20 	bl	8001b60 <printf>
 8006120:	68e1      	ldr	r1, [r4, #12]
 8006122:	4810      	ldr	r0, [pc, #64]	; (8006164 <PixelConfiguration::Print()+0xc8>)
 8006124:	b002      	add	sp, #8
 8006126:	e8bd 4010 	ldmia.w	sp!, {r4, lr}
 800612a:	f7fb bd19 	b.w	8001b60 <printf>
 800612e:	6823      	ldr	r3, [r4, #0]
 8006130:	3b0b      	subs	r3, #11
 8006132:	2b01      	cmp	r3, #1
 8006134:	d8ea      	bhi.n	800610c <PixelConfiguration::Print()+0x70>
 8006136:	7ca1      	ldrb	r1, [r4, #18]
 8006138:	480b      	ldr	r0, [pc, #44]	; (8006168 <PixelConfiguration::Print()+0xcc>)
 800613a:	f7fb fd11 	bl	8001b60 <printf>
 800613e:	e7e5      	b.n	800610c <PixelConfiguration::Print()+0x70>
 8006140:	0800ad95 	stmdaeq	r0, {r0, r2, r4, r7, r8, sl, fp, sp, pc}
 8006144:	0800ada9 	stmdaeq	r0, {r0, r3, r5, r7, r8, sl, fp, sp, pc}
 8006148:	0800adbd 	stmdaeq	r0, {r0, r2, r3, r4, r5, r7, r8, sl, fp, sp, pc}
 800614c:	0800adcc 	stmdaeq	r0, {r2, r3, r6, r7, r8, sl, fp, sp, pc}
 8006150:	0800ade0 	stmdaeq	r0, {r5, r6, r7, r8, sl, fp, sp, pc}
 8006154:	0800adf8 	stmdaeq	r0, {r3, r4, r5, r6, r7, r8, sl, fp, sp, pc}
 8006158:	0800ad92 	stmdaeq	r0, {r1, r4, r7, r8, sl, fp, sp, pc}
 800615c:	0800ad8e 	stmdaeq	r0, {r1, r2, r3, r7, r8, sl, fp, sp, pc}
 8006160:	0800ae27 	stmdaeq	r0, {r0, r1, r2, r5, r9, sl, fp, sp, pc}
 8006164:	0800ae3d 	stmdaeq	r0, {r0, r2, r3, r4, r5, r9, sl, fp, sp, pc}
 8006168:	0800ae10 	stmdaeq	r0, {r4, r9, sl, fp, sp, pc}

0800616c <PixelType::GetType(pixel::Type)>:
 800616c:	280d      	cmp	r0, #13
 800616e:	bfda      	itte	le
 8006170:	4b02      	ldrle	r3, [pc, #8]	; (800617c <PixelType::GetType(pixel::Type)+0x10>)
 8006172:	eb03 00c0 	addle.w	r0, r3, r0, lsl #3
 8006176:	4802      	ldrgt	r0, [pc, #8]	; (8006180 <PixelType::GetType(pixel::Type)+0x14>)
 8006178:	4770      	bx	lr
 800617a:	bf00      	nop
 800617c:	0800b68a 	stmdaeq	r0, {r1, r3, r7, r9, sl, ip, sp, pc}
 8006180:	0800b660 	stmdaeq	r0, {r5, r6, r9, sl, ip, sp, pc}

08006184 <PixelType::GetMap(pixel::Map)>:
 8006184:	2805      	cmp	r0, #5
 8006186:	bfda      	itte	le
 8006188:	4b02      	ldrle	r3, [pc, #8]	; (8006194 <PixelType::GetMap(pixel::Map)+0x10>)
 800618a:	eb03 0080 	addle.w	r0, r3, r0, lsl #2
 800618e:	4802      	ldrgt	r0, [pc, #8]	; (8006198 <PixelType::GetMap(pixel::Map)+0x14>)
 8006190:	4770      	bx	lr
 8006192:	bf00      	nop
 8006194:	0800b672 	stmdaeq	r0, {r1, r4, r5, r6, r9, sl, ip, sp, pc}
 8006198:	08009ec7 	stmdaeq	r0, {r0, r1, r2, r6, r7, r9, sl, fp, ip, pc}

0800619c <PixelType::GetMap(pixel::Type)>:
 800619c:	3801      	subs	r0, #1
 800619e:	2809      	cmp	r0, #9
 80061a0:	bf9a      	itte	ls
 80061a2:	4b02      	ldrls	r3, [pc, #8]	; (80061ac <PixelType::GetMap(pixel::Type)+0x10>)
 80061a4:	5618      	ldrsbls	r0, [r3, r0]
 80061a6:	2002      	movhi	r0, #2
 80061a8:	4770      	bx	lr
 80061aa:	bf00      	nop
 80061ac:	0800b668 	stmdaeq	r0, {r3, r5, r6, r9, sl, ip, sp, pc}

080061b0 <PixelType::ConvertTxH(unsigned char)>:
 80061b0:	28f0      	cmp	r0, #240	; 0xf0
 80061b2:	d015      	beq.n	80061e0 <PixelType::ConvertTxH(unsigned char)+0x30>
 80061b4:	d80c      	bhi.n	80061d0 <PixelType::ConvertTxH(unsigned char)+0x20>
 80061b6:	28c0      	cmp	r0, #192	; 0xc0
 80061b8:	d015      	beq.n	80061e6 <PixelType::ConvertTxH(unsigned char)+0x36>
 80061ba:	28e0      	cmp	r0, #224	; 0xe0
 80061bc:	d016      	beq.n	80061ec <PixelType::ConvertTxH(unsigned char)+0x3c>
 80061be:	2880      	cmp	r0, #128	; 0x80
 80061c0:	eeb4 0a04 	vmov.f32	s0, #68	; 0x3e200000  0.1562500
 80061c4:	eddf 7a0e 	vldr	s15, [pc, #56]	; 8006200 <PixelType::ConvertTxH(unsigned char)+0x50>
 80061c8:	bf18      	it	ne
 80061ca:	eeb0 0a67 	vmovne.f32	s0, s15
 80061ce:	4770      	bx	lr
 80061d0:	28fc      	cmp	r0, #252	; 0xfc
 80061d2:	d00e      	beq.n	80061f2 <PixelType::ConvertTxH(unsigned char)+0x42>
 80061d4:	28fe      	cmp	r0, #254	; 0xfe
 80061d6:	d00f      	beq.n	80061f8 <PixelType::ConvertTxH(unsigned char)+0x48>
 80061d8:	28f8      	cmp	r0, #248	; 0xf8
 80061da:	eeb6 0a09 	vmov.f32	s0, #105	; 0x3f480000  0.7812500
 80061de:	e7f1      	b.n	80061c4 <PixelType::ConvertTxH(unsigned char)+0x14>
 80061e0:	eeb6 0a04 	vmov.f32	s0, #100	; 0x3f200000  0.625
 80061e4:	4770      	bx	lr
 80061e6:	eeb5 0a04 	vmov.f32	s0, #84	; 0x3ea00000  0.3125000
 80061ea:	4770      	bx	lr
 80061ec:	eeb5 0a0e 	vmov.f32	s0, #94	; 0x3ef00000  0.4687500
 80061f0:	4770      	bx	lr
 80061f2:	eeb6 0a0e 	vmov.f32	s0, #110	; 0x3f700000  0.9375000
 80061f6:	4770      	bx	lr
 80061f8:	ed9f 0a02 	vldr	s0, [pc, #8]	; 8006204 <PixelType::ConvertTxH(unsigned char)+0x54>
 80061fc:	4770      	bx	lr
 80061fe:	bf00      	nop
 8006200:	00000000 	andeq	r0, r0, r0
 8006204:	3f8c0000 	svccc	0x008c0000

08006208 <PixelPatterns::SetPixelColour(unsigned long, unsigned long, unsigned long) [clone .isra.0]>:
 8006208:	b537      	push	{r0, r1, r2, r4, r5, lr}
 800620a:	f3c1 2307 	ubfx	r3, r1, #8, #8
 800620e:	f3c1 4207 	ubfx	r2, r1, #16, #8
 8006212:	b2cc      	uxtb	r4, r1
 8006214:	490e      	ldr	r1, [pc, #56]	; (8006250 <PixelPatterns::SetPixelColour(unsigned long, unsigned long, unsigned long) [clone .isra.0]+0x48>)
 8006216:	4605      	mov	r5, r0
 8006218:	6808      	ldr	r0, [r1, #0]
 800621a:	6801      	ldr	r1, [r0, #0]
 800621c:	2907      	cmp	r1, #7
 800621e:	d005      	beq.n	800622c <PixelPatterns::SetPixelColour(unsigned long, unsigned long, unsigned long) [clone .isra.0]+0x24>
 8006220:	9400      	str	r4, [sp, #0]
 8006222:	4629      	mov	r1, r5
 8006224:	f000 fa74 	bl	8006710 <WS28xx::SetPixel(unsigned long, unsigned char, unsigned char, unsigned char)>
 8006228:	b003      	add	sp, #12
 800622a:	bd30      	pop	{r4, r5, pc}
 800622c:	429a      	cmp	r2, r3
 800622e:	f04f 0100 	mov.w	r1, #0
 8006232:	d109      	bne.n	8006248 <PixelPatterns::SetPixelColour(unsigned long, unsigned long, unsigned long) [clone .isra.0]+0x40>
 8006234:	42a2      	cmp	r2, r4
 8006236:	d107      	bne.n	8006248 <PixelPatterns::SetPixelColour(unsigned long, unsigned long, unsigned long) [clone .isra.0]+0x40>
 8006238:	e9cd 1200 	strd	r1, r2, [sp]
 800623c:	460b      	mov	r3, r1
 800623e:	460a      	mov	r2, r1
 8006240:	4629      	mov	r1, r5
 8006242:	f000 fb87 	bl	8006954 <WS28xx::SetPixel(unsigned long, unsigned char, unsigned char, unsigned char, unsigned char)>
 8006246:	e7ef      	b.n	8006228 <PixelPatterns::SetPixelColour(unsigned long, unsigned long, unsigned long) [clone .isra.0]+0x20>
 8006248:	e9cd 4100 	strd	r4, r1, [sp]
 800624c:	e7f8      	b.n	8006240 <PixelPatterns::SetPixelColour(unsigned long, unsigned long, unsigned long) [clone .isra.0]+0x38>
 800624e:	bf00      	nop
 8006250:	2000161c 	andcs	r1, r0, ip, lsl r6

08006254 <PixelPatterns::Clear(unsigned long) [clone .isra.0]>:
 8006254:	b538      	push	{r3, r4, r5, lr}
 8006256:	4d06      	ldr	r5, [pc, #24]	; (8006270 <PixelPatterns::Clear(unsigned long) [clone .isra.0]+0x1c>)
 8006258:	2400      	movs	r4, #0
 800625a:	682b      	ldr	r3, [r5, #0]
 800625c:	429c      	cmp	r4, r3
 800625e:	d300      	bcc.n	8006262 <PixelPatterns::Clear(unsigned long) [clone .isra.0]+0xe>
 8006260:	bd38      	pop	{r3, r4, r5, pc}
 8006262:	4620      	mov	r0, r4
 8006264:	2100      	movs	r1, #0
 8006266:	f7ff ffcf 	bl	8006208 <PixelPatterns::SetPixelColour(unsigned long, unsigned long, unsigned long) [clone .isra.0]>
 800626a:	3401      	adds	r4, #1
 800626c:	e7f5      	b.n	800625a <PixelPatterns::Clear(unsigned long) [clone .isra.0]+0x6>
 800626e:	bf00      	nop
 8006270:	20001614 	andcs	r1, r0, r4, lsl r6

08006274 <PixelPatterns::PixelPatterns(unsigned long)>:
 8006274:	4b09      	ldr	r3, [pc, #36]	; (800629c <PixelPatterns::PixelPatterns(unsigned long)+0x28>)
 8006276:	4a0a      	ldr	r2, [pc, #40]	; (80062a0 <PixelPatterns::PixelPatterns(unsigned long)+0x2c>)
 8006278:	681b      	ldr	r3, [r3, #0]
 800627a:	6013      	str	r3, [r2, #0]
 800627c:	2901      	cmp	r1, #1
 800627e:	4a09      	ldr	r2, [pc, #36]	; (80062a4 <PixelPatterns::PixelPatterns(unsigned long)+0x30>)
 8006280:	bf28      	it	cs
 8006282:	2101      	movcs	r1, #1
 8006284:	6011      	str	r1, [r2, #0]
 8006286:	685a      	ldr	r2, [r3, #4]
 8006288:	4b07      	ldr	r3, [pc, #28]	; (80062a8 <PixelPatterns::PixelPatterns(unsigned long)+0x34>)
 800628a:	601a      	str	r2, [r3, #0]
 800628c:	4b07      	ldr	r3, [pc, #28]	; (80062ac <PixelPatterns::PixelPatterns(unsigned long)+0x38>)
 800628e:	6819      	ldr	r1, [r3, #0]
 8006290:	4b07      	ldr	r3, [pc, #28]	; (80062b0 <PixelPatterns::PixelPatterns(unsigned long)+0x3c>)
 8006292:	2200      	movs	r2, #0
 8006294:	61da      	str	r2, [r3, #28]
 8006296:	6019      	str	r1, [r3, #0]
 8006298:	619a      	str	r2, [r3, #24]
 800629a:	4770      	bx	lr
 800629c:	20001628 	andcs	r1, r0, r8, lsr #12
 80062a0:	2000161c 	andcs	r1, r0, ip, lsl r6
 80062a4:	20001618 	andcs	r1, r0, r8, lsl r6
 80062a8:	20001614 	andcs	r1, r0, r4, lsl r6
 80062ac:	20008794 	mulcs	r0, r4, r7
 80062b0:	200015f4 	strdcs	r1, [r0], -r4

080062b4 <PixelPatterns::GetName(pixelpatterns::Pattern)>:
 80062b4:	2805      	cmp	r0, #5
 80062b6:	bfdd      	ittte	le
 80062b8:	4b02      	ldrle	r3, [pc, #8]	; (80062c4 <PixelPatterns::GetName(pixelpatterns::Pattern)+0x10>)
 80062ba:	220e      	movle	r2, #14
 80062bc:	fb02 3000 	mlale	r0, r2, r0, r3
 80062c0:	4801      	ldrgt	r0, [pc, #4]	; (80062c8 <PixelPatterns::GetName(pixelpatterns::Pattern)+0x14>)
 80062c2:	4770      	bx	lr
 80062c4:	0800b6fa 	stmdaeq	r0, {r1, r3, r4, r5, r6, r7, r9, sl, ip, sp, pc}
 80062c8:	0800b660 	stmdaeq	r0, {r5, r6, r9, sl, ip, sp, pc}

080062cc <PixelPatterns::RainbowCycle(unsigned long, unsigned long, pixelpatterns::Direction)>:
 80062cc:	b570      	push	{r4, r5, r6, lr}
 80062ce:	460e      	mov	r6, r1
 80062d0:	4615      	mov	r5, r2
 80062d2:	461c      	mov	r4, r3
 80062d4:	f7ff ffbe 	bl	8006254 <PixelPatterns::Clear(unsigned long) [clone .isra.0]>
 80062d8:	4905      	ldr	r1, [pc, #20]	; (80062f0 <PixelPatterns::RainbowCycle(unsigned long, unsigned long, pixelpatterns::Direction)+0x24>)
 80062da:	eb01 1146 	add.w	r1, r1, r6, lsl #5
 80062de:	2301      	movs	r3, #1
 80062e0:	61cb      	str	r3, [r1, #28]
 80062e2:	22ff      	movs	r2, #255	; 0xff
 80062e4:	2300      	movs	r3, #0
 80062e6:	e9c1 2304 	strd	r2, r3, [r1, #16]
 80062ea:	604d      	str	r5, [r1, #4]
 80062ec:	618c      	str	r4, [r1, #24]
 80062ee:	bd70      	pop	{r4, r5, r6, pc}
 80062f0:	200015f4 	strdcs	r1, [r0], -r4

080062f4 <PixelPatterns::TheaterChase(unsigned long, unsigned long, unsigned long, unsigned long, pixelpatterns::Direction)>:
 80062f4:	b570      	push	{r4, r5, r6, lr}
 80062f6:	460e      	mov	r6, r1
 80062f8:	461c      	mov	r4, r3
 80062fa:	4615      	mov	r5, r2
 80062fc:	f7ff ffaa 	bl	8006254 <PixelPatterns::Clear(unsigned long) [clone .isra.0]>
 8006300:	4908      	ldr	r1, [pc, #32]	; (8006324 <PixelPatterns::TheaterChase(unsigned long, unsigned long, unsigned long, unsigned long, pixelpatterns::Direction)+0x30>)
 8006302:	eb01 1146 	add.w	r1, r1, r6, lsl #5
 8006306:	2302      	movs	r3, #2
 8006308:	61cb      	str	r3, [r1, #28]
 800630a:	9b04      	ldr	r3, [sp, #16]
 800630c:	604b      	str	r3, [r1, #4]
 800630e:	4b06      	ldr	r3, [pc, #24]	; (8006328 <PixelPatterns::TheaterChase(unsigned long, unsigned long, unsigned long, unsigned long, pixelpatterns::Direction)+0x34>)
 8006310:	681b      	ldr	r3, [r3, #0]
 8006312:	610b      	str	r3, [r1, #16]
 8006314:	2300      	movs	r3, #0
 8006316:	614b      	str	r3, [r1, #20]
 8006318:	9b05      	ldr	r3, [sp, #20]
 800631a:	618b      	str	r3, [r1, #24]
 800631c:	e9c1 5402 	strd	r5, r4, [r1, #8]
 8006320:	bd70      	pop	{r4, r5, r6, pc}
 8006322:	bf00      	nop
 8006324:	200015f4 	strdcs	r1, [r0], -r4
 8006328:	20001614 	andcs	r1, r0, r4, lsl r6

0800632c <PixelPatterns::ColourWipe(unsigned long, unsigned long, unsigned long, pixelpatterns::Direction)>:
 800632c:	b570      	push	{r4, r5, r6, lr}
 800632e:	460e      	mov	r6, r1
 8006330:	461d      	mov	r5, r3
 8006332:	4614      	mov	r4, r2
 8006334:	f7ff ff8e 	bl	8006254 <PixelPatterns::Clear(unsigned long) [clone .isra.0]>
 8006338:	4907      	ldr	r1, [pc, #28]	; (8006358 <PixelPatterns::ColourWipe(unsigned long, unsigned long, unsigned long, pixelpatterns::Direction)+0x2c>)
 800633a:	eb01 1146 	add.w	r1, r1, r6, lsl #5
 800633e:	2303      	movs	r3, #3
 8006340:	61cb      	str	r3, [r1, #28]
 8006342:	4b06      	ldr	r3, [pc, #24]	; (800635c <PixelPatterns::ColourWipe(unsigned long, unsigned long, unsigned long, pixelpatterns::Direction)+0x30>)
 8006344:	604d      	str	r5, [r1, #4]
 8006346:	681b      	ldr	r3, [r3, #0]
 8006348:	610b      	str	r3, [r1, #16]
 800634a:	2300      	movs	r3, #0
 800634c:	614b      	str	r3, [r1, #20]
 800634e:	9b04      	ldr	r3, [sp, #16]
 8006350:	608c      	str	r4, [r1, #8]
 8006352:	618b      	str	r3, [r1, #24]
 8006354:	bd70      	pop	{r4, r5, r6, pc}
 8006356:	bf00      	nop
 8006358:	200015f4 	strdcs	r1, [r0], -r4
 800635c:	20001614 	andcs	r1, r0, r4, lsl r6

08006360 <PixelPatterns::Scanner(unsigned long, unsigned long, unsigned long)>:
 8006360:	b570      	push	{r4, r5, r6, lr}
 8006362:	461d      	mov	r5, r3
 8006364:	460e      	mov	r6, r1
 8006366:	4614      	mov	r4, r2
 8006368:	f7ff ff74 	bl	8006254 <PixelPatterns::Clear(unsigned long) [clone .isra.0]>
 800636c:	4912      	ldr	r1, [pc, #72]	; (80063b8 <PixelPatterns::Scanner(unsigned long, unsigned long, unsigned long)+0x58>)
 800636e:	eb01 1146 	add.w	r1, r1, r6, lsl #5
 8006372:	2304      	movs	r3, #4
 8006374:	604d      	str	r5, [r1, #4]
 8006376:	4d11      	ldr	r5, [pc, #68]	; (80063bc <PixelPatterns::Scanner(unsigned long, unsigned long, unsigned long)+0x5c>)
 8006378:	61cb      	str	r3, [r1, #28]
 800637a:	6828      	ldr	r0, [r5, #0]
 800637c:	608c      	str	r4, [r1, #8]
 800637e:	1e43      	subs	r3, r0, #1
 8006380:	005b      	lsls	r3, r3, #1
 8006382:	b29b      	uxth	r3, r3
 8006384:	4c0e      	ldr	r4, [pc, #56]	; (80063c0 <PixelPatterns::Scanner(unsigned long, unsigned long, unsigned long)+0x60>)
 8006386:	610b      	str	r3, [r1, #16]
 8006388:	2300      	movs	r3, #0
 800638a:	614b      	str	r3, [r1, #20]
 800638c:	6823      	ldr	r3, [r4, #0]
 800638e:	b97b      	cbnz	r3, 80063b0 <PixelPatterns::Scanner(unsigned long, unsigned long, unsigned long)+0x50>
 8006390:	f06f 4360 	mvn.w	r3, #3758096384	; 0xe0000000
 8006394:	4298      	cmp	r0, r3
 8006396:	bf34      	ite	cc
 8006398:	0080      	lslcc	r0, r0, #2
 800639a:	f04f 30ff 	movcs.w	r0, #4294967295	; 0xffffffff
 800639e:	f001 fe50 	bl	8008042 <operator new[](unsigned int)>
 80063a2:	682b      	ldr	r3, [r5, #0]
 80063a4:	6020      	str	r0, [r4, #0]
 80063a6:	eb00 0383 	add.w	r3, r0, r3, lsl #2
 80063aa:	2200      	movs	r2, #0
 80063ac:	4298      	cmp	r0, r3
 80063ae:	d100      	bne.n	80063b2 <PixelPatterns::Scanner(unsigned long, unsigned long, unsigned long)+0x52>
 80063b0:	bd70      	pop	{r4, r5, r6, pc}
 80063b2:	f840 2b04 	str.w	r2, [r0], #4
 80063b6:	e7f9      	b.n	80063ac <PixelPatterns::Scanner(unsigned long, unsigned long, unsigned long)+0x4c>
 80063b8:	200015f4 	strdcs	r1, [r0], -r4
 80063bc:	20001614 	andcs	r1, r0, r4, lsl r6
 80063c0:	200015f0 	strdcs	r1, [r0], -r0

080063c4 <PixelPatterns::Fade(unsigned long, unsigned long, unsigned long, unsigned long, unsigned long, pixelpatterns::Direction)>:
 80063c4:	b570      	push	{r4, r5, r6, lr}
 80063c6:	460e      	mov	r6, r1
 80063c8:	461c      	mov	r4, r3
 80063ca:	4615      	mov	r5, r2
 80063cc:	f7ff ff42 	bl	8006254 <PixelPatterns::Clear(unsigned long) [clone .isra.0]>
 80063d0:	4907      	ldr	r1, [pc, #28]	; (80063f0 <PixelPatterns::Fade(unsigned long, unsigned long, unsigned long, unsigned long, unsigned long, pixelpatterns::Direction)+0x2c>)
 80063d2:	eb01 1146 	add.w	r1, r1, r6, lsl #5
 80063d6:	2305      	movs	r3, #5
 80063d8:	61cb      	str	r3, [r1, #28]
 80063da:	9b05      	ldr	r3, [sp, #20]
 80063dc:	604b      	str	r3, [r1, #4]
 80063de:	9b04      	ldr	r3, [sp, #16]
 80063e0:	610b      	str	r3, [r1, #16]
 80063e2:	2300      	movs	r3, #0
 80063e4:	614b      	str	r3, [r1, #20]
 80063e6:	9b06      	ldr	r3, [sp, #24]
 80063e8:	618b      	str	r3, [r1, #24]
 80063ea:	e9c1 5402 	strd	r5, r4, [r1, #8]
 80063ee:	bd70      	pop	{r4, r5, r6, pc}
 80063f0:	200015f4 	strdcs	r1, [r0], -r4

080063f4 <PixelPatterns::Wheel(unsigned char)>:
 80063f4:	43cb      	mvns	r3, r1
 80063f6:	b2db      	uxtb	r3, r3
 80063f8:	2b54      	cmp	r3, #84	; 0x54
 80063fa:	d807      	bhi.n	800640c <PixelPatterns::Wheel(unsigned char)+0x18>
 80063fc:	eb03 0343 	add.w	r3, r3, r3, lsl #1
 8006400:	b2db      	uxtb	r3, r3
 8006402:	0418      	lsls	r0, r3, #16
 8006404:	f480 007f 	eor.w	r0, r0, #16711680	; 0xff0000
 8006408:	4318      	orrs	r0, r3
 800640a:	4770      	bx	lr
 800640c:	2ba9      	cmp	r3, #169	; 0xa9
 800640e:	d809      	bhi.n	8006424 <PixelPatterns::Wheel(unsigned char)+0x30>
 8006410:	f1c1 01aa 	rsb	r1, r1, #170	; 0xaa
 8006414:	eb01 0141 	add.w	r1, r1, r1, lsl #1
 8006418:	b2c9      	uxtb	r1, r1
 800641a:	43c8      	mvns	r0, r1
 800641c:	b2c0      	uxtb	r0, r0
 800641e:	ea40 2001 	orr.w	r0, r0, r1, lsl #8
 8006422:	4770      	bx	lr
 8006424:	f1c1 0155 	rsb	r1, r1, #85	; 0x55
 8006428:	eb01 0141 	add.w	r1, r1, r1, lsl #1
 800642c:	b2c9      	uxtb	r1, r1
 800642e:	0208      	lsls	r0, r1, #8
 8006430:	f480 407f 	eor.w	r0, r0, #65280	; 0xff00
 8006434:	ea40 4001 	orr.w	r0, r0, r1, lsl #16
 8006438:	4770      	bx	lr
	...

0800643c <PixelPatterns::Increment(unsigned long)>:
 800643c:	4a0d      	ldr	r2, [pc, #52]	; (8006474 <PixelPatterns::Increment(unsigned long)+0x38>)
 800643e:	b510      	push	{r4, lr}
 8006440:	014c      	lsls	r4, r1, #5
 8006442:	eb02 1141 	add.w	r1, r2, r1, lsl #5
 8006446:	e9d1 3005 	ldrd	r3, r0, [r1, #20]
 800644a:	b938      	cbnz	r0, 800645c <PixelPatterns::Increment(unsigned long)+0x20>
 800644c:	690c      	ldr	r4, [r1, #16]
 800644e:	3301      	adds	r3, #1
 8006450:	42a3      	cmp	r3, r4
 8006452:	bf14      	ite	ne
 8006454:	461a      	movne	r2, r3
 8006456:	4602      	moveq	r2, r0
 8006458:	614a      	str	r2, [r1, #20]
 800645a:	bd10      	pop	{r4, pc}
 800645c:	b92b      	cbnz	r3, 800646a <PixelPatterns::Increment(unsigned long)+0x2e>
 800645e:	4422      	add	r2, r4
 8006460:	6913      	ldr	r3, [r2, #16]
 8006462:	3b01      	subs	r3, #1
 8006464:	b29b      	uxth	r3, r3
 8006466:	6153      	str	r3, [r2, #20]
 8006468:	e7f7      	b.n	800645a <PixelPatterns::Increment(unsigned long)+0x1e>
 800646a:	3b01      	subs	r3, #1
 800646c:	614b      	str	r3, [r1, #20]
 800646e:	2b00      	cmp	r3, #0
 8006470:	d1f3      	bne.n	800645a <PixelPatterns::Increment(unsigned long)+0x1e>
 8006472:	e7f4      	b.n	800645e <PixelPatterns::Increment(unsigned long)+0x22>
 8006474:	200015f4 	strdcs	r1, [r0], -r4

08006478 <PixelPatterns::RainbowCycleUpdate(unsigned long)>:
 8006478:	4b10      	ldr	r3, [pc, #64]	; (80064bc <PixelPatterns::RainbowCycleUpdate(unsigned long)+0x44>)
 800647a:	eb03 1341 	add.w	r3, r3, r1, lsl #5
 800647e:	e92d 41f0 	stmdb	sp!, {r4, r5, r6, r7, r8, lr}
 8006482:	f8d3 8014 	ldr.w	r8, [r3, #20]
 8006486:	4f0e      	ldr	r7, [pc, #56]	; (80064c0 <PixelPatterns::RainbowCycleUpdate(unsigned long)+0x48>)
 8006488:	4605      	mov	r5, r0
 800648a:	460e      	mov	r6, r1
 800648c:	2400      	movs	r4, #0
 800648e:	683a      	ldr	r2, [r7, #0]
 8006490:	42a2      	cmp	r2, r4
 8006492:	d805      	bhi.n	80064a0 <PixelPatterns::RainbowCycleUpdate(unsigned long)+0x28>
 8006494:	4631      	mov	r1, r6
 8006496:	4628      	mov	r0, r5
 8006498:	e8bd 41f0 	ldmia.w	sp!, {r4, r5, r6, r7, r8, lr}
 800649c:	f7ff bfce 	b.w	800643c <PixelPatterns::Increment(unsigned long)>
 80064a0:	0223      	lsls	r3, r4, #8
 80064a2:	fbb3 f3f2 	udiv	r3, r3, r2
 80064a6:	4443      	add	r3, r8
 80064a8:	b2d9      	uxtb	r1, r3
 80064aa:	4628      	mov	r0, r5
 80064ac:	f7ff ffa2 	bl	80063f4 <PixelPatterns::Wheel(unsigned char)>
 80064b0:	4601      	mov	r1, r0
 80064b2:	4620      	mov	r0, r4
 80064b4:	f7ff fea8 	bl	8006208 <PixelPatterns::SetPixelColour(unsigned long, unsigned long, unsigned long) [clone .isra.0]>
 80064b8:	3401      	adds	r4, #1
 80064ba:	e7e8      	b.n	800648e <PixelPatterns::RainbowCycleUpdate(unsigned long)+0x16>
 80064bc:	200015f4 	strdcs	r1, [r0], -r4
 80064c0:	20001614 	andcs	r1, r0, r4, lsl r6

080064c4 <PixelPatterns::TheaterChaseUpdate(unsigned long)>:
 80064c4:	e92d 4ff8 	stmdb	sp!, {r3, r4, r5, r6, r7, r8, r9, sl, fp, lr}
 80064c8:	4b11      	ldr	r3, [pc, #68]	; (8006510 <PixelPatterns::TheaterChaseUpdate(unsigned long)+0x4c>)
 80064ca:	4f12      	ldr	r7, [pc, #72]	; (8006514 <PixelPatterns::TheaterChaseUpdate(unsigned long)+0x50>)
 80064cc:	f8df b048 	ldr.w	fp, [pc, #72]	; 8006518 <PixelPatterns::TheaterChaseUpdate(unsigned long)+0x54>
 80064d0:	eb03 1341 	add.w	r3, r3, r1, lsl #5
 80064d4:	e9d3 8902 	ldrd	r8, r9, [r3, #8]
 80064d8:	f8d3 a014 	ldr.w	sl, [r3, #20]
 80064dc:	4606      	mov	r6, r0
 80064de:	460d      	mov	r5, r1
 80064e0:	2400      	movs	r4, #0
 80064e2:	683b      	ldr	r3, [r7, #0]
 80064e4:	42a3      	cmp	r3, r4
 80064e6:	d805      	bhi.n	80064f4 <PixelPatterns::TheaterChaseUpdate(unsigned long)+0x30>
 80064e8:	4629      	mov	r1, r5
 80064ea:	4630      	mov	r0, r6
 80064ec:	e8bd 4ff8 	ldmia.w	sp!, {r3, r4, r5, r6, r7, r8, r9, sl, fp, lr}
 80064f0:	f7ff bfa4 	b.w	800643c <PixelPatterns::Increment(unsigned long)>
 80064f4:	eb04 030a 	add.w	r3, r4, sl
 80064f8:	fb0b f303 	mul.w	r3, fp, r3
 80064fc:	f1b3 3f55 	cmp.w	r3, #1431655765	; 0x55555555
 8006500:	4620      	mov	r0, r4
 8006502:	bf94      	ite	ls
 8006504:	4641      	movls	r1, r8
 8006506:	4649      	movhi	r1, r9
 8006508:	f7ff fe7e 	bl	8006208 <PixelPatterns::SetPixelColour(unsigned long, unsigned long, unsigned long) [clone .isra.0]>
 800650c:	3401      	adds	r4, #1
 800650e:	e7e8      	b.n	80064e2 <PixelPatterns::TheaterChaseUpdate(unsigned long)+0x1e>
 8006510:	200015f4 	strdcs	r1, [r0], -r4
 8006514:	20001614 	andcs	r1, r0, r4, lsl r6
 8006518:	aaaaaaab 	bge	6ab0fcc <__heap_size+0x6aaffcc>

0800651c <PixelPatterns::ColourWipeUpdate(unsigned long)>:
 800651c:	b538      	push	{r3, r4, r5, lr}
 800651e:	4b07      	ldr	r3, [pc, #28]	; (800653c <PixelPatterns::ColourWipeUpdate(unsigned long)+0x20>)
 8006520:	eb03 1341 	add.w	r3, r3, r1, lsl #5
 8006524:	4605      	mov	r5, r0
 8006526:	460c      	mov	r4, r1
 8006528:	6958      	ldr	r0, [r3, #20]
 800652a:	6899      	ldr	r1, [r3, #8]
 800652c:	f7ff fe6c 	bl	8006208 <PixelPatterns::SetPixelColour(unsigned long, unsigned long, unsigned long) [clone .isra.0]>
 8006530:	4621      	mov	r1, r4
 8006532:	4628      	mov	r0, r5
 8006534:	e8bd 4038 	ldmia.w	sp!, {r3, r4, r5, lr}
 8006538:	f7ff bf80 	b.w	800643c <PixelPatterns::Increment(unsigned long)>
 800653c:	200015f4 	strdcs	r1, [r0], -r4

08006540 <PixelPatterns::ScannerUpdate(unsigned long)>:
 8006540:	e92d 4ff7 	stmdb	sp!, {r0, r1, r2, r4, r5, r6, r7, r8, r9, sl, fp, lr}
 8006544:	4b23      	ldr	r3, [pc, #140]	; (80065d4 <PixelPatterns::ScannerUpdate(unsigned long)+0x94>)
 8006546:	f8df b090 	ldr.w	fp, [pc, #144]	; 80065d8 <PixelPatterns::ScannerUpdate(unsigned long)+0x98>
 800654a:	f8df 9090 	ldr.w	r9, [pc, #144]	; 80065dc <PixelPatterns::ScannerUpdate(unsigned long)+0x9c>
 800654e:	eb03 1341 	add.w	r3, r3, r1, lsl #5
 8006552:	e9d3 2a04 	ldrd	r2, sl, [r3, #16]
 8006556:	e9cd 1000 	strd	r1, r0, [sp]
 800655a:	689f      	ldr	r7, [r3, #8]
 800655c:	2400      	movs	r4, #0
 800655e:	eba2 080a 	sub.w	r8, r2, sl
 8006562:	f8db 2000 	ldr.w	r2, [fp]
 8006566:	42a2      	cmp	r2, r4
 8006568:	d806      	bhi.n	8006578 <PixelPatterns::ScannerUpdate(unsigned long)+0x38>
 800656a:	e9dd 1000 	ldrd	r1, r0, [sp]
 800656e:	b003      	add	sp, #12
 8006570:	e8bd 4ff0 	ldmia.w	sp!, {r4, r5, r6, r7, r8, r9, sl, fp, lr}
 8006574:	f7ff bf62 	b.w	800643c <PixelPatterns::Increment(unsigned long)>
 8006578:	4554      	cmp	r4, sl
 800657a:	ea4f 0684 	mov.w	r6, r4, lsl #2
 800657e:	d109      	bne.n	8006594 <PixelPatterns::ScannerUpdate(unsigned long)+0x54>
 8006580:	4639      	mov	r1, r7
 8006582:	4620      	mov	r0, r4
 8006584:	f7ff fe40 	bl	8006208 <PixelPatterns::SetPixelColour(unsigned long, unsigned long, unsigned long) [clone .isra.0]>
 8006588:	f8d9 2000 	ldr.w	r2, [r9]
 800658c:	f842 7024 	str.w	r7, [r2, r4, lsl #2]
 8006590:	3401      	adds	r4, #1
 8006592:	e7e6      	b.n	8006562 <PixelPatterns::ScannerUpdate(unsigned long)+0x22>
 8006594:	45a0      	cmp	r8, r4
 8006596:	d107      	bne.n	80065a8 <PixelPatterns::ScannerUpdate(unsigned long)+0x68>
 8006598:	4639      	mov	r1, r7
 800659a:	4640      	mov	r0, r8
 800659c:	f7ff fe34 	bl	8006208 <PixelPatterns::SetPixelColour(unsigned long, unsigned long, unsigned long) [clone .isra.0]>
 80065a0:	f8d9 1000 	ldr.w	r1, [r9]
 80065a4:	518f      	str	r7, [r1, r6]
 80065a6:	e7f3      	b.n	8006590 <PixelPatterns::ScannerUpdate(unsigned long)+0x50>
 80065a8:	f8d9 1000 	ldr.w	r1, [r9]
 80065ac:	5989      	ldr	r1, [r1, r6]
 80065ae:	f3c1 2546 	ubfx	r5, r1, #9, #7
 80065b2:	f3c1 4046 	ubfx	r0, r1, #17, #7
 80065b6:	022d      	lsls	r5, r5, #8
 80065b8:	ea45 4500 	orr.w	r5, r5, r0, lsl #16
 80065bc:	f3c1 0146 	ubfx	r1, r1, #1, #7
 80065c0:	430d      	orrs	r5, r1
 80065c2:	4629      	mov	r1, r5
 80065c4:	4620      	mov	r0, r4
 80065c6:	f7ff fe1f 	bl	8006208 <PixelPatterns::SetPixelColour(unsigned long, unsigned long, unsigned long) [clone .isra.0]>
 80065ca:	f8d9 1000 	ldr.w	r1, [r9]
 80065ce:	518d      	str	r5, [r1, r6]
 80065d0:	e7de      	b.n	8006590 <PixelPatterns::ScannerUpdate(unsigned long)+0x50>
 80065d2:	bf00      	nop
 80065d4:	200015f4 	strdcs	r1, [r0], -r4
 80065d8:	20001614 	andcs	r1, r0, r4, lsl r6
 80065dc:	200015f0 	strdcs	r1, [r0], -r0

080065e0 <PixelPatterns::FadeUpdate(unsigned long)>:
 80065e0:	4a21      	ldr	r2, [pc, #132]	; (8006668 <PixelPatterns::FadeUpdate(unsigned long)+0x88>)
 80065e2:	eb02 1241 	add.w	r2, r2, r1, lsl #5
 80065e6:	e92d 41f0 	stmdb	sp!, {r4, r5, r6, r7, r8, lr}
 80065ea:	460d      	mov	r5, r1
 80065ec:	e9d2 1302 	ldrd	r1, r3, [r2, #8]
 80065f0:	4604      	mov	r4, r0
 80065f2:	e9d2 0704 	ldrd	r0, r7, [r2, #16]
 80065f6:	f3c3 2207 	ubfx	r2, r3, #8, #8
 80065fa:	1bc6      	subs	r6, r0, r7
 80065fc:	f3c1 2c07 	ubfx	ip, r1, #8, #8
 8006600:	437a      	muls	r2, r7
 8006602:	fb06 220c 	mla	r2, r6, ip, r2
 8006606:	fbb2 f2f0 	udiv	r2, r2, r0
 800660a:	0212      	lsls	r2, r2, #8
 800660c:	fa1f fc82 	uxth.w	ip, r2
 8006610:	f3c3 4207 	ubfx	r2, r3, #16, #8
 8006614:	f3c1 4e07 	ubfx	lr, r1, #16, #8
 8006618:	437a      	muls	r2, r7
 800661a:	fb06 220e 	mla	r2, r6, lr, r2
 800661e:	b2db      	uxtb	r3, r3
 8006620:	fbb2 f2f0 	udiv	r2, r2, r0
 8006624:	0412      	lsls	r2, r2, #16
 8006626:	437b      	muls	r3, r7
 8006628:	f402 027f 	and.w	r2, r2, #16711680	; 0xff0000
 800662c:	b2c9      	uxtb	r1, r1
 800662e:	fb06 3301 	mla	r3, r6, r1, r3
 8006632:	ea4c 0202 	orr.w	r2, ip, r2
 8006636:	fbb3 f3f0 	udiv	r3, r3, r0
 800663a:	f8df 8030 	ldr.w	r8, [pc, #48]	; 800666c <PixelPatterns::FadeUpdate(unsigned long)+0x8c>
 800663e:	b2db      	uxtb	r3, r3
 8006640:	ea42 0603 	orr.w	r6, r2, r3
 8006644:	2700      	movs	r7, #0
 8006646:	f8d8 3000 	ldr.w	r3, [r8]
 800664a:	429f      	cmp	r7, r3
 800664c:	d305      	bcc.n	800665a <PixelPatterns::FadeUpdate(unsigned long)+0x7a>
 800664e:	4629      	mov	r1, r5
 8006650:	4620      	mov	r0, r4
 8006652:	e8bd 41f0 	ldmia.w	sp!, {r4, r5, r6, r7, r8, lr}
 8006656:	f7ff bef1 	b.w	800643c <PixelPatterns::Increment(unsigned long)>
 800665a:	4638      	mov	r0, r7
 800665c:	4631      	mov	r1, r6
 800665e:	f7ff fdd3 	bl	8006208 <PixelPatterns::SetPixelColour(unsigned long, unsigned long, unsigned long) [clone .isra.0]>
 8006662:	3701      	adds	r7, #1
 8006664:	e7ef      	b.n	8006646 <PixelPatterns::FadeUpdate(unsigned long)+0x66>
 8006666:	bf00      	nop
 8006668:	200015f4 	strdcs	r1, [r0], -r4
 800666c:	20001614 	andcs	r1, r0, r4, lsl r6

08006670 <PixelPatterns::PortUpdate(unsigned long, unsigned long)>:
 8006670:	b5f8      	push	{r3, r4, r5, r6, r7, lr}
 8006672:	4b12      	ldr	r3, [pc, #72]	; (80066bc <PixelPatterns::PortUpdate(unsigned long, unsigned long)+0x4c>)
 8006674:	014e      	lsls	r6, r1, #5
 8006676:	eb03 1541 	add.w	r5, r3, r1, lsl #5
 800667a:	599c      	ldr	r4, [r3, r6]
 800667c:	686f      	ldr	r7, [r5, #4]
 800667e:	1b14      	subs	r4, r2, r4
 8006680:	42bc      	cmp	r4, r7
 8006682:	d309      	bcc.n	8006698 <PixelPatterns::PortUpdate(unsigned long, unsigned long)+0x28>
 8006684:	519a      	str	r2, [r3, r6]
 8006686:	69eb      	ldr	r3, [r5, #28]
 8006688:	3b01      	subs	r3, #1
 800668a:	2b04      	cmp	r3, #4
 800668c:	d804      	bhi.n	8006698 <PixelPatterns::PortUpdate(unsigned long, unsigned long)+0x28>
 800668e:	e8df f003 	tbb	[pc, r3]
 8006692:	0f0c0905 	svceq	0x000c0905
 8006696:	20000012 	andcs	r0, r0, r2, lsl r0
 800669a:	bdf8      	pop	{r3, r4, r5, r6, r7, pc}
 800669c:	f7ff feec 	bl	8006478 <PixelPatterns::RainbowCycleUpdate(unsigned long)>
 80066a0:	2001      	movs	r0, #1
 80066a2:	e7fa      	b.n	800669a <PixelPatterns::PortUpdate(unsigned long, unsigned long)+0x2a>
 80066a4:	f7ff ff0e 	bl	80064c4 <PixelPatterns::TheaterChaseUpdate(unsigned long)>
 80066a8:	e7fa      	b.n	80066a0 <PixelPatterns::PortUpdate(unsigned long, unsigned long)+0x30>
 80066aa:	f7ff ff37 	bl	800651c <PixelPatterns::ColourWipeUpdate(unsigned long)>
 80066ae:	e7f7      	b.n	80066a0 <PixelPatterns::PortUpdate(unsigned long, unsigned long)+0x30>
 80066b0:	f7ff ff46 	bl	8006540 <PixelPatterns::ScannerUpdate(unsigned long)>
 80066b4:	e7f4      	b.n	80066a0 <PixelPatterns::PortUpdate(unsigned long, unsigned long)+0x30>
 80066b6:	f7ff ff93 	bl	80065e0 <PixelPatterns::FadeUpdate(unsigned long)>
 80066ba:	e7f1      	b.n	80066a0 <PixelPatterns::PortUpdate(unsigned long, unsigned long)+0x30>
 80066bc:	200015f4 	strdcs	r1, [r0], -r4

080066c0 <PixelPatterns::Run()>:
 80066c0:	e92d 41f0 	stmdb	sp!, {r4, r5, r6, r7, r8, lr}
 80066c4:	4606      	mov	r6, r0
 80066c6:	f002 ff3f 	bl	8009548 <gd32_spi_dma_tx_is_active()>
 80066ca:	4604      	mov	r4, r0
 80066cc:	b9b8      	cbnz	r0, 80066fe <PixelPatterns::Run()+0x3e>
 80066ce:	4b0d      	ldr	r3, [pc, #52]	; (8006704 <PixelPatterns::Run()+0x44>)
 80066d0:	4f0d      	ldr	r7, [pc, #52]	; (8006708 <PixelPatterns::Run()+0x48>)
 80066d2:	f8d3 8000 	ldr.w	r8, [r3]
 80066d6:	4605      	mov	r5, r0
 80066d8:	683b      	ldr	r3, [r7, #0]
 80066da:	42ab      	cmp	r3, r5
 80066dc:	d806      	bhi.n	80066ec <PixelPatterns::Run()+0x2c>
 80066de:	b174      	cbz	r4, 80066fe <PixelPatterns::Run()+0x3e>
 80066e0:	4b0a      	ldr	r3, [pc, #40]	; (800670c <PixelPatterns::Run()+0x4c>)
 80066e2:	e8bd 41f0 	ldmia.w	sp!, {r4, r5, r6, r7, r8, lr}
 80066e6:	6818      	ldr	r0, [r3, #0]
 80066e8:	f000 baae 	b.w	8006c48 <WS28xx::Update()>
 80066ec:	4629      	mov	r1, r5
 80066ee:	4642      	mov	r2, r8
 80066f0:	4630      	mov	r0, r6
 80066f2:	f7ff ffbd 	bl	8006670 <PixelPatterns::PortUpdate(unsigned long, unsigned long)>
 80066f6:	4304      	orrs	r4, r0
 80066f8:	b2e4      	uxtb	r4, r4
 80066fa:	3501      	adds	r5, #1
 80066fc:	e7ec      	b.n	80066d8 <PixelPatterns::Run()+0x18>
 80066fe:	e8bd 81f0 	ldmia.w	sp!, {r4, r5, r6, r7, r8, pc}
 8006702:	bf00      	nop
 8006704:	20008794 	mulcs	r0, r4, r7
 8006708:	20001618 	andcs	r1, r0, r8, lsl r6
 800670c:	2000161c 	andcs	r1, r0, ip, lsl r6

08006710 <WS28xx::SetPixel(unsigned long, unsigned char, unsigned char, unsigned char)>:
 8006710:	b570      	push	{r4, r5, r6, lr}
 8006712:	6984      	ldr	r4, [r0, #24]
 8006714:	f89d 5010 	ldrb.w	r5, [sp, #16]
 8006718:	f814 c003 	ldrb.w	ip, [r4, r3]
 800671c:	7d43      	ldrb	r3, [r0, #21]
 800671e:	5ca2      	ldrb	r2, [r4, r2]
 8006720:	f814 e005 	ldrb.w	lr, [r4, r5]
 8006724:	bbb3      	cbnz	r3, 8006794 <WS28xx::SetPixel(unsigned long, unsigned char, unsigned char, unsigned char)+0x84>
 8006726:	6806      	ldr	r6, [r0, #0]
 8006728:	b33e      	cbz	r6, 800677a <WS28xx::SetPixel(unsigned long, unsigned char, unsigned char, unsigned char)+0x6a>
 800672a:	f1a6 050b 	sub.w	r5, r6, #11
 800672e:	2d01      	cmp	r5, #1
 8006730:	f101 0101 	add.w	r1, r1, #1
 8006734:	f240 80fa 	bls.w	800692c <WS28xx::SetPixel(unsigned long, unsigned char, unsigned char, unsigned char)+0x21c>
 8006738:	ea6f 049e 	mvn.w	r4, lr, lsr #2
 800673c:	f004 0330 	and.w	r3, r4, #48	; 0x30
 8006740:	f082 06c0 	eor.w	r6, r2, #192	; 0xc0
 8006744:	ea6f 141c 	mvn.w	r4, ip, lsr #4
 8006748:	ea43 1596 	orr.w	r5, r3, r6, lsr #6
 800674c:	f004 030c 	and.w	r3, r4, #12
 8006750:	431d      	orrs	r5, r3
 8006752:	f065 063f 	orn	r6, r5, #63	; 0x3f
 8006756:	6a05      	ldr	r5, [r0, #32]
 8006758:	f805 6021 	strb.w	r6, [r5, r1, lsl #2]
 800675c:	6a04      	ldr	r4, [r0, #32]
 800675e:	eb04 0381 	add.w	r3, r4, r1, lsl #2
 8006762:	f883 e001 	strb.w	lr, [r3, #1]
 8006766:	6a06      	ldr	r6, [r0, #32]
 8006768:	eb06 0581 	add.w	r5, r6, r1, lsl #2
 800676c:	f885 c002 	strb.w	ip, [r5, #2]
 8006770:	6a00      	ldr	r0, [r0, #32]
 8006772:	eb00 0181 	add.w	r1, r0, r1, lsl #2
 8006776:	70ca      	strb	r2, [r1, #3]
 8006778:	bd70      	pop	{r4, r5, r6, pc}
 800677a:	6a04      	ldr	r4, [r0, #32]
 800677c:	eb01 0141 	add.w	r1, r1, r1, lsl #1
 8006780:	5462      	strb	r2, [r4, r1]
 8006782:	6a06      	ldr	r6, [r0, #32]
 8006784:	440e      	add	r6, r1
 8006786:	f886 c001 	strb.w	ip, [r6, #1]
 800678a:	6a05      	ldr	r5, [r0, #32]
 800678c:	440d      	add	r5, r1
 800678e:	f885 e002 	strb.w	lr, [r5, #2]
 8006792:	bd70      	pop	{r4, r5, r6, pc}
 8006794:	eb01 0341 	add.w	r3, r1, r1, lsl #1
 8006798:	00db      	lsls	r3, r3, #3
 800679a:	6a05      	ldr	r5, [r0, #32]
 800679c:	7c01      	ldrb	r1, [r0, #16]
 800679e:	7c44      	ldrb	r4, [r0, #17]
 80067a0:	1c5e      	adds	r6, r3, #1
 80067a2:	f012 0f80 	tst.w	r2, #128	; 0x80
 80067a6:	bf14      	ite	ne
 80067a8:	55ac      	strbne	r4, [r5, r6]
 80067aa:	55a9      	strbeq	r1, [r5, r6]
 80067ac:	1c9e      	adds	r6, r3, #2
 80067ae:	6a05      	ldr	r5, [r0, #32]
 80067b0:	f012 0f40 	tst.w	r2, #64	; 0x40
 80067b4:	bf14      	ite	ne
 80067b6:	55ac      	strbne	r4, [r5, r6]
 80067b8:	55a9      	strbeq	r1, [r5, r6]
 80067ba:	1cde      	adds	r6, r3, #3
 80067bc:	6a05      	ldr	r5, [r0, #32]
 80067be:	f012 0f20 	tst.w	r2, #32
 80067c2:	bf14      	ite	ne
 80067c4:	55ac      	strbne	r4, [r5, r6]
 80067c6:	55a9      	strbeq	r1, [r5, r6]
 80067c8:	1d1e      	adds	r6, r3, #4
 80067ca:	6a05      	ldr	r5, [r0, #32]
 80067cc:	f012 0f10 	tst.w	r2, #16
 80067d0:	bf14      	ite	ne
 80067d2:	55ac      	strbne	r4, [r5, r6]
 80067d4:	55a9      	strbeq	r1, [r5, r6]
 80067d6:	1d5e      	adds	r6, r3, #5
 80067d8:	6a05      	ldr	r5, [r0, #32]
 80067da:	f012 0f08 	tst.w	r2, #8
 80067de:	bf14      	ite	ne
 80067e0:	55ac      	strbne	r4, [r5, r6]
 80067e2:	55a9      	strbeq	r1, [r5, r6]
 80067e4:	1d9e      	adds	r6, r3, #6
 80067e6:	6a05      	ldr	r5, [r0, #32]
 80067e8:	f012 0f04 	tst.w	r2, #4
 80067ec:	bf14      	ite	ne
 80067ee:	55ac      	strbne	r4, [r5, r6]
 80067f0:	55a9      	strbeq	r1, [r5, r6]
 80067f2:	1dde      	adds	r6, r3, #7
 80067f4:	6a05      	ldr	r5, [r0, #32]
 80067f6:	f012 0f02 	tst.w	r2, #2
 80067fa:	bf14      	ite	ne
 80067fc:	55ac      	strbne	r4, [r5, r6]
 80067fe:	55a9      	strbeq	r1, [r5, r6]
 8006800:	f103 0608 	add.w	r6, r3, #8
 8006804:	f012 0f01 	tst.w	r2, #1
 8006808:	6a02      	ldr	r2, [r0, #32]
 800680a:	bf14      	ite	ne
 800680c:	5594      	strbne	r4, [r2, r6]
 800680e:	5591      	strbeq	r1, [r2, r6]
 8006810:	f103 0409 	add.w	r4, r3, #9
 8006814:	6a05      	ldr	r5, [r0, #32]
 8006816:	7c41      	ldrb	r1, [r0, #17]
 8006818:	7c06      	ldrb	r6, [r0, #16]
 800681a:	f01c 0f80 	tst.w	ip, #128	; 0x80
 800681e:	bf0c      	ite	eq
 8006820:	552e      	strbeq	r6, [r5, r4]
 8006822:	5529      	strbne	r1, [r5, r4]
 8006824:	f103 020a 	add.w	r2, r3, #10
 8006828:	6a04      	ldr	r4, [r0, #32]
 800682a:	f01c 0f40 	tst.w	ip, #64	; 0x40
 800682e:	bf0c      	ite	eq
 8006830:	54a6      	strbeq	r6, [r4, r2]
 8006832:	54a1      	strbne	r1, [r4, r2]
 8006834:	f103 020b 	add.w	r2, r3, #11
 8006838:	6a05      	ldr	r5, [r0, #32]
 800683a:	f01c 0f20 	tst.w	ip, #32
 800683e:	bf0c      	ite	eq
 8006840:	54ae      	strbeq	r6, [r5, r2]
 8006842:	54a9      	strbne	r1, [r5, r2]
 8006844:	f103 040c 	add.w	r4, r3, #12
 8006848:	6a02      	ldr	r2, [r0, #32]
 800684a:	f01c 0f10 	tst.w	ip, #16
 800684e:	bf0c      	ite	eq
 8006850:	5516      	strbeq	r6, [r2, r4]
 8006852:	5511      	strbne	r1, [r2, r4]
 8006854:	f103 040d 	add.w	r4, r3, #13
 8006858:	6a05      	ldr	r5, [r0, #32]
 800685a:	f01c 0f08 	tst.w	ip, #8
 800685e:	bf0c      	ite	eq
 8006860:	552e      	strbeq	r6, [r5, r4]
 8006862:	5529      	strbne	r1, [r5, r4]
 8006864:	f103 020e 	add.w	r2, r3, #14
 8006868:	6a04      	ldr	r4, [r0, #32]
 800686a:	f01c 0f04 	tst.w	ip, #4
 800686e:	bf0c      	ite	eq
 8006870:	54a6      	strbeq	r6, [r4, r2]
 8006872:	54a1      	strbne	r1, [r4, r2]
 8006874:	f103 020f 	add.w	r2, r3, #15
 8006878:	6a05      	ldr	r5, [r0, #32]
 800687a:	f01c 0f02 	tst.w	ip, #2
 800687e:	bf0c      	ite	eq
 8006880:	54ae      	strbeq	r6, [r5, r2]
 8006882:	54a9      	strbne	r1, [r5, r2]
 8006884:	f01c 0f01 	tst.w	ip, #1
 8006888:	bf14      	ite	ne
 800688a:	6a06      	ldrne	r6, [r0, #32]
 800688c:	6a01      	ldreq	r1, [r0, #32]
 800688e:	f103 0410 	add.w	r4, r3, #16
 8006892:	f103 0211 	add.w	r2, r3, #17
 8006896:	bf14      	ite	ne
 8006898:	5531      	strbne	r1, [r6, r4]
 800689a:	550e      	strbeq	r6, [r1, r4]
 800689c:	6a05      	ldr	r5, [r0, #32]
 800689e:	7c41      	ldrb	r1, [r0, #17]
 80068a0:	7c06      	ldrb	r6, [r0, #16]
 80068a2:	f01e 0f80 	tst.w	lr, #128	; 0x80
 80068a6:	bf0c      	ite	eq
 80068a8:	54ae      	strbeq	r6, [r5, r2]
 80068aa:	54a9      	strbne	r1, [r5, r2]
 80068ac:	f103 0c12 	add.w	ip, r3, #18
 80068b0:	6a04      	ldr	r4, [r0, #32]
 80068b2:	f01e 0f40 	tst.w	lr, #64	; 0x40
 80068b6:	bf0c      	ite	eq
 80068b8:	f804 600c 	strbeq.w	r6, [r4, ip]
 80068bc:	f804 100c 	strbne.w	r1, [r4, ip]
 80068c0:	f103 0213 	add.w	r2, r3, #19
 80068c4:	6a05      	ldr	r5, [r0, #32]
 80068c6:	f01e 0f20 	tst.w	lr, #32
 80068ca:	bf0c      	ite	eq
 80068cc:	54ae      	strbeq	r6, [r5, r2]
 80068ce:	54a9      	strbne	r1, [r5, r2]
 80068d0:	f103 0c14 	add.w	ip, r3, #20
 80068d4:	6a04      	ldr	r4, [r0, #32]
 80068d6:	f01e 0f10 	tst.w	lr, #16
 80068da:	bf0c      	ite	eq
 80068dc:	f804 600c 	strbeq.w	r6, [r4, ip]
 80068e0:	f804 100c 	strbne.w	r1, [r4, ip]
 80068e4:	f103 0215 	add.w	r2, r3, #21
 80068e8:	6a05      	ldr	r5, [r0, #32]
 80068ea:	f01e 0f08 	tst.w	lr, #8
 80068ee:	bf0c      	ite	eq
 80068f0:	54ae      	strbeq	r6, [r5, r2]
 80068f2:	54a9      	strbne	r1, [r5, r2]
 80068f4:	f103 0c16 	add.w	ip, r3, #22
 80068f8:	6a04      	ldr	r4, [r0, #32]
 80068fa:	f01e 0f04 	tst.w	lr, #4
 80068fe:	bf0c      	ite	eq
 8006900:	f804 600c 	strbeq.w	r6, [r4, ip]
 8006904:	f804 100c 	strbne.w	r1, [r4, ip]
 8006908:	f103 0217 	add.w	r2, r3, #23
 800690c:	6a05      	ldr	r5, [r0, #32]
 800690e:	f01e 0f02 	tst.w	lr, #2
 8006912:	bf0c      	ite	eq
 8006914:	54ae      	strbeq	r6, [r5, r2]
 8006916:	54a9      	strbne	r1, [r5, r2]
 8006918:	f01e 0f01 	tst.w	lr, #1
 800691c:	f103 0318 	add.w	r3, r3, #24
 8006920:	bf15      	itete	ne
 8006922:	6a06      	ldrne	r6, [r0, #32]
 8006924:	6a01      	ldreq	r1, [r0, #32]
 8006926:	54f1      	strbne	r1, [r6, r3]
 8006928:	54ce      	strbeq	r6, [r1, r3]
 800692a:	bd70      	pop	{r4, r5, r6, pc}
 800692c:	6a03      	ldr	r3, [r0, #32]
 800692e:	7c84      	ldrb	r4, [r0, #18]
 8006930:	f803 4021 	strb.w	r4, [r3, r1, lsl #2]
 8006934:	6a06      	ldr	r6, [r0, #32]
 8006936:	eb06 0581 	add.w	r5, r6, r1, lsl #2
 800693a:	706a      	strb	r2, [r5, #1]
 800693c:	6a02      	ldr	r2, [r0, #32]
 800693e:	eb02 0381 	add.w	r3, r2, r1, lsl #2
 8006942:	f883 c002 	strb.w	ip, [r3, #2]
 8006946:	6a00      	ldr	r0, [r0, #32]
 8006948:	eb00 0c81 	add.w	ip, r0, r1, lsl #2
 800694c:	f88c e003 	strb.w	lr, [ip, #3]
 8006950:	bd70      	pop	{r4, r5, r6, pc}
 8006952:	bf00      	nop

08006954 <WS28xx::SetPixel(unsigned long, unsigned char, unsigned char, unsigned char, unsigned char)>:
 8006954:	b5f0      	push	{r4, r5, r6, r7, lr}
 8006956:	6984      	ldr	r4, [r0, #24]
 8006958:	f89d 5014 	ldrb.w	r5, [sp, #20]
 800695c:	56e6      	ldrsb	r6, [r4, r3]
 800695e:	f814 e002 	ldrb.w	lr, [r4, r2]
 8006962:	f89d 2018 	ldrb.w	r2, [sp, #24]
 8006966:	f814 c005 	ldrb.w	ip, [r4, r5]
 800696a:	5ca2      	ldrb	r2, [r4, r2]
 800696c:	5ce3      	ldrb	r3, [r4, r3]
 800696e:	7c05      	ldrb	r5, [r0, #16]
 8006970:	7c44      	ldrb	r4, [r0, #17]
 8006972:	0149      	lsls	r1, r1, #5
 8006974:	1c4f      	adds	r7, r1, #1
 8006976:	2e00      	cmp	r6, #0
 8006978:	6a06      	ldr	r6, [r0, #32]
 800697a:	bfac      	ite	ge
 800697c:	55f5      	strbge	r5, [r6, r7]
 800697e:	55f4      	strblt	r4, [r6, r7]
 8006980:	1c8e      	adds	r6, r1, #2
 8006982:	6a07      	ldr	r7, [r0, #32]
 8006984:	f013 0f40 	tst.w	r3, #64	; 0x40
 8006988:	bf0c      	ite	eq
 800698a:	55bd      	strbeq	r5, [r7, r6]
 800698c:	55bc      	strbne	r4, [r7, r6]
 800698e:	1cce      	adds	r6, r1, #3
 8006990:	6a07      	ldr	r7, [r0, #32]
 8006992:	f013 0f20 	tst.w	r3, #32
 8006996:	bf0c      	ite	eq
 8006998:	55bd      	strbeq	r5, [r7, r6]
 800699a:	55bc      	strbne	r4, [r7, r6]
 800699c:	1d0e      	adds	r6, r1, #4
 800699e:	6a07      	ldr	r7, [r0, #32]
 80069a0:	f013 0f10 	tst.w	r3, #16
 80069a4:	bf0c      	ite	eq
 80069a6:	55bd      	strbeq	r5, [r7, r6]
 80069a8:	55bc      	strbne	r4, [r7, r6]
 80069aa:	1d4e      	adds	r6, r1, #5
 80069ac:	6a07      	ldr	r7, [r0, #32]
 80069ae:	f013 0f08 	tst.w	r3, #8
 80069b2:	bf0c      	ite	eq
 80069b4:	55bd      	strbeq	r5, [r7, r6]
 80069b6:	55bc      	strbne	r4, [r7, r6]
 80069b8:	1d8e      	adds	r6, r1, #6
 80069ba:	6a07      	ldr	r7, [r0, #32]
 80069bc:	f013 0f04 	tst.w	r3, #4
 80069c0:	bf0c      	ite	eq
 80069c2:	55bd      	strbeq	r5, [r7, r6]
 80069c4:	55bc      	strbne	r4, [r7, r6]
 80069c6:	1dce      	adds	r6, r1, #7
 80069c8:	6a07      	ldr	r7, [r0, #32]
 80069ca:	f013 0f02 	tst.w	r3, #2
 80069ce:	bf0c      	ite	eq
 80069d0:	55bd      	strbeq	r5, [r7, r6]
 80069d2:	55bc      	strbne	r4, [r7, r6]
 80069d4:	f101 0608 	add.w	r6, r1, #8
 80069d8:	f013 0f01 	tst.w	r3, #1
 80069dc:	6a03      	ldr	r3, [r0, #32]
 80069de:	bf14      	ite	ne
 80069e0:	559c      	strbne	r4, [r3, r6]
 80069e2:	559d      	strbeq	r5, [r3, r6]
 80069e4:	f101 0609 	add.w	r6, r1, #9
 80069e8:	6a05      	ldr	r5, [r0, #32]
 80069ea:	7c07      	ldrb	r7, [r0, #16]
 80069ec:	7c44      	ldrb	r4, [r0, #17]
 80069ee:	f01e 0f80 	tst.w	lr, #128	; 0x80
 80069f2:	bf0c      	ite	eq
 80069f4:	55af      	strbeq	r7, [r5, r6]
 80069f6:	55ac      	strbne	r4, [r5, r6]
 80069f8:	f101 030a 	add.w	r3, r1, #10
 80069fc:	6a06      	ldr	r6, [r0, #32]
 80069fe:	f01e 0f40 	tst.w	lr, #64	; 0x40
 8006a02:	bf0c      	ite	eq
 8006a04:	54f7      	strbeq	r7, [r6, r3]
 8006a06:	54f4      	strbne	r4, [r6, r3]
 8006a08:	f101 030b 	add.w	r3, r1, #11
 8006a0c:	6a05      	ldr	r5, [r0, #32]
 8006a0e:	f01e 0f20 	tst.w	lr, #32
 8006a12:	bf0c      	ite	eq
 8006a14:	54ef      	strbeq	r7, [r5, r3]
 8006a16:	54ec      	strbne	r4, [r5, r3]
 8006a18:	f101 060c 	add.w	r6, r1, #12
 8006a1c:	6a03      	ldr	r3, [r0, #32]
 8006a1e:	f01e 0f10 	tst.w	lr, #16
 8006a22:	bf0c      	ite	eq
 8006a24:	559f      	strbeq	r7, [r3, r6]
 8006a26:	559c      	strbne	r4, [r3, r6]
 8006a28:	f101 060d 	add.w	r6, r1, #13
 8006a2c:	6a05      	ldr	r5, [r0, #32]
 8006a2e:	f01e 0f08 	tst.w	lr, #8
 8006a32:	bf0c      	ite	eq
 8006a34:	55af      	strbeq	r7, [r5, r6]
 8006a36:	55ac      	strbne	r4, [r5, r6]
 8006a38:	f101 030e 	add.w	r3, r1, #14
 8006a3c:	6a06      	ldr	r6, [r0, #32]
 8006a3e:	f01e 0f04 	tst.w	lr, #4
 8006a42:	bf0c      	ite	eq
 8006a44:	54f7      	strbeq	r7, [r6, r3]
 8006a46:	54f4      	strbne	r4, [r6, r3]
 8006a48:	f101 030f 	add.w	r3, r1, #15
 8006a4c:	6a05      	ldr	r5, [r0, #32]
 8006a4e:	f01e 0f02 	tst.w	lr, #2
 8006a52:	bf0c      	ite	eq
 8006a54:	54ef      	strbeq	r7, [r5, r3]
 8006a56:	54ec      	strbne	r4, [r5, r3]
 8006a58:	f01e 0f01 	tst.w	lr, #1
 8006a5c:	bf14      	ite	ne
 8006a5e:	6a07      	ldrne	r7, [r0, #32]
 8006a60:	6a04      	ldreq	r4, [r0, #32]
 8006a62:	f101 0610 	add.w	r6, r1, #16
 8006a66:	bf14      	ite	ne
 8006a68:	55bc      	strbne	r4, [r7, r6]
 8006a6a:	55a7      	strbeq	r7, [r4, r6]
 8006a6c:	f101 0711 	add.w	r7, r1, #17
 8006a70:	7c03      	ldrb	r3, [r0, #16]
 8006a72:	7c44      	ldrb	r4, [r0, #17]
 8006a74:	6a05      	ldr	r5, [r0, #32]
 8006a76:	f01c 0f80 	tst.w	ip, #128	; 0x80
 8006a7a:	bf0c      	ite	eq
 8006a7c:	55eb      	strbeq	r3, [r5, r7]
 8006a7e:	55ec      	strbne	r4, [r5, r7]
 8006a80:	f101 0712 	add.w	r7, r1, #18
 8006a84:	6a06      	ldr	r6, [r0, #32]
 8006a86:	f01c 0f40 	tst.w	ip, #64	; 0x40
 8006a8a:	bf0c      	ite	eq
 8006a8c:	55f3      	strbeq	r3, [r6, r7]
 8006a8e:	55f4      	strbne	r4, [r6, r7]
 8006a90:	f101 0513 	add.w	r5, r1, #19
 8006a94:	6a07      	ldr	r7, [r0, #32]
 8006a96:	f01c 0f20 	tst.w	ip, #32
 8006a9a:	bf0c      	ite	eq
 8006a9c:	557b      	strbeq	r3, [r7, r5]
 8006a9e:	557c      	strbne	r4, [r7, r5]
 8006aa0:	f101 0514 	add.w	r5, r1, #20
 8006aa4:	6a06      	ldr	r6, [r0, #32]
 8006aa6:	f01c 0f10 	tst.w	ip, #16
 8006aaa:	bf0c      	ite	eq
 8006aac:	5573      	strbeq	r3, [r6, r5]
 8006aae:	5574      	strbne	r4, [r6, r5]
 8006ab0:	f101 0715 	add.w	r7, r1, #21
 8006ab4:	6a05      	ldr	r5, [r0, #32]
 8006ab6:	f01c 0f08 	tst.w	ip, #8
 8006aba:	bf0c      	ite	eq
 8006abc:	55eb      	strbeq	r3, [r5, r7]
 8006abe:	55ec      	strbne	r4, [r5, r7]
 8006ac0:	f101 0716 	add.w	r7, r1, #22
 8006ac4:	6a06      	ldr	r6, [r0, #32]
 8006ac6:	f01c 0f04 	tst.w	ip, #4
 8006aca:	bf0c      	ite	eq
 8006acc:	55f3      	strbeq	r3, [r6, r7]
 8006ace:	55f4      	strbne	r4, [r6, r7]
 8006ad0:	f101 0517 	add.w	r5, r1, #23
 8006ad4:	6a07      	ldr	r7, [r0, #32]
 8006ad6:	f01c 0f02 	tst.w	ip, #2
 8006ada:	bf0c      	ite	eq
 8006adc:	557b      	strbeq	r3, [r7, r5]
 8006ade:	557c      	strbne	r4, [r7, r5]
 8006ae0:	f01c 0f01 	tst.w	ip, #1
 8006ae4:	bf14      	ite	ne
 8006ae6:	6a03      	ldrne	r3, [r0, #32]
 8006ae8:	6a04      	ldreq	r4, [r0, #32]
 8006aea:	f101 0618 	add.w	r6, r1, #24
 8006aee:	f101 0c19 	add.w	ip, r1, #25
 8006af2:	bf14      	ite	ne
 8006af4:	559c      	strbne	r4, [r3, r6]
 8006af6:	55a3      	strbeq	r3, [r4, r6]
 8006af8:	6a05      	ldr	r5, [r0, #32]
 8006afa:	7c03      	ldrb	r3, [r0, #16]
 8006afc:	7c44      	ldrb	r4, [r0, #17]
 8006afe:	0617      	lsls	r7, r2, #24
 8006b00:	bf54      	ite	pl
 8006b02:	f805 300c 	strbpl.w	r3, [r5, ip]
 8006b06:	f805 400c 	strbmi.w	r4, [r5, ip]
 8006b0a:	f101 0c1a 	add.w	ip, r1, #26
 8006b0e:	6a06      	ldr	r6, [r0, #32]
 8006b10:	0657      	lsls	r7, r2, #25
 8006b12:	bf58      	it	pl
 8006b14:	f806 300c 	strbpl.w	r3, [r6, ip]
 8006b18:	f101 051b 	add.w	r5, r1, #27
 8006b1c:	bf48      	it	mi
 8006b1e:	f806 400c 	strbmi.w	r4, [r6, ip]
 8006b22:	6a06      	ldr	r6, [r0, #32]
 8006b24:	0697      	lsls	r7, r2, #26
 8006b26:	bf54      	ite	pl
 8006b28:	5573      	strbpl	r3, [r6, r5]
 8006b2a:	5574      	strbmi	r4, [r6, r5]
 8006b2c:	f101 0c1c 	add.w	ip, r1, #28
 8006b30:	6a05      	ldr	r5, [r0, #32]
 8006b32:	06d7      	lsls	r7, r2, #27
 8006b34:	bf54      	ite	pl
 8006b36:	f805 300c 	strbpl.w	r3, [r5, ip]
 8006b3a:	f805 400c 	strbmi.w	r4, [r5, ip]
 8006b3e:	f101 0c1d 	add.w	ip, r1, #29
 8006b42:	6a06      	ldr	r6, [r0, #32]
 8006b44:	0717      	lsls	r7, r2, #28
 8006b46:	bf54      	ite	pl
 8006b48:	f806 300c 	strbpl.w	r3, [r6, ip]
 8006b4c:	f806 400c 	strbmi.w	r4, [r6, ip]
 8006b50:	f101 051e 	add.w	r5, r1, #30
 8006b54:	6a06      	ldr	r6, [r0, #32]
 8006b56:	0757      	lsls	r7, r2, #29
 8006b58:	bf54      	ite	pl
 8006b5a:	5573      	strbpl	r3, [r6, r5]
 8006b5c:	5574      	strbmi	r4, [r6, r5]
 8006b5e:	f101 0c1f 	add.w	ip, r1, #31
 8006b62:	6a05      	ldr	r5, [r0, #32]
 8006b64:	0797      	lsls	r7, r2, #30
 8006b66:	bf54      	ite	pl
 8006b68:	f805 300c 	strbpl.w	r3, [r5, ip]
 8006b6c:	f805 400c 	strbmi.w	r4, [r5, ip]
 8006b70:	07d2      	lsls	r2, r2, #31
 8006b72:	f101 0120 	add.w	r1, r1, #32
 8006b76:	bf4b      	itete	mi
 8006b78:	6a03      	ldrmi	r3, [r0, #32]
 8006b7a:	6a02      	ldrpl	r2, [r0, #32]
 8006b7c:	545c      	strbmi	r4, [r3, r1]
 8006b7e:	5453      	strbpl	r3, [r2, r1]
 8006b80:	bdf0      	pop	{r4, r5, r6, r7, pc}
 8006b82:	bf00      	nop

08006b84 <WS28xx::~WS28xx()>:
 8006b84:	4b01      	ldr	r3, [pc, #4]	; (8006b8c <WS28xx::~WS28xx()+0x8>)
 8006b86:	2200      	movs	r2, #0
 8006b88:	601a      	str	r2, [r3, #0]
 8006b8a:	4770      	bx	lr
 8006b8c:	20001628 	andcs	r1, r0, r8, lsr #12

08006b90 <WS28xx::SetupBuffers()>:
 8006b90:	b513      	push	{r0, r1, r4, lr}
 8006b92:	4604      	mov	r4, r0
 8006b94:	a801      	add	r0, sp, #4
 8006b96:	f002 fcb5 	bl	8009504 <gd32_spi_dma_tx_prepare(unsigned long*)>
 8006b9a:	9b01      	ldr	r3, [sp, #4]
 8006b9c:	4a07      	ldr	r2, [pc, #28]	; (8006bbc <WS28xx::SetupBuffers()+0x2c>)
 8006b9e:	6220      	str	r0, [r4, #32]
 8006ba0:	085b      	lsrs	r3, r3, #1
 8006ba2:	f023 0303 	bic.w	r3, r3, #3
 8006ba6:	4418      	add	r0, r3
 8006ba8:	69e3      	ldr	r3, [r4, #28]
 8006baa:	6013      	str	r3, [r2, #0]
 8006bac:	3303      	adds	r3, #3
 8006bae:	f023 0303 	bic.w	r3, r3, #3
 8006bb2:	6260      	str	r0, [r4, #36]	; 0x24
 8006bb4:	61e3      	str	r3, [r4, #28]
 8006bb6:	b002      	add	sp, #8
 8006bb8:	bd10      	pop	{r4, pc}
 8006bba:	bf00      	nop
 8006bbc:	2000162c 	andcs	r1, r0, ip, lsr #12

08006bc0 <WS28xx::WS28xx(PixelConfiguration&)>:
 8006bc0:	b5f7      	push	{r0, r1, r2, r4, r5, r6, r7, lr}
 8006bc2:	23aa      	movs	r3, #170	; 0xaa
 8006bc4:	2203      	movs	r2, #3
 8006bc6:	e9c0 2300 	strd	r2, r3, [r0]
 8006bca:	460f      	mov	r7, r1
 8006bcc:	2300      	movs	r3, #0
 8006bce:	2106      	movs	r1, #6
 8006bd0:	f44f 027f 	mov.w	r2, #16711680	; 0xff0000
 8006bd4:	6102      	str	r2, [r0, #16]
 8006bd6:	e9c0 1302 	strd	r1, r3, [r0, #8]
 8006bda:	f44f 7280 	mov.w	r2, #256	; 0x100
 8006bde:	8282      	strh	r2, [r0, #20]
 8006be0:	e9c0 3308 	strd	r3, r3, [r0, #32]
 8006be4:	4a16      	ldr	r2, [pc, #88]	; (8006c40 <WS28xx::WS28xx(PixelConfiguration&)+0x80>)
 8006be6:	4b17      	ldr	r3, [pc, #92]	; (8006c44 <WS28xx::WS28xx(PixelConfiguration&)+0x84>)
 8006be8:	6182      	str	r2, [r0, #24]
 8006bea:	463e      	mov	r6, r7
 8006bec:	4604      	mov	r4, r0
 8006bee:	6018      	str	r0, [r3, #0]
 8006bf0:	4605      	mov	r5, r0
 8006bf2:	ce0f      	ldmia	r6!, {r0, r1, r2, r3}
 8006bf4:	c50f      	stmia	r5!, {r0, r1, r2, r3}
 8006bf6:	e896 0007 	ldmia.w	r6, {r0, r1, r2}
 8006bfa:	e885 0007 	stmia.w	r5, {r0, r1, r2}
 8006bfe:	a901      	add	r1, sp, #4
 8006c00:	4638      	mov	r0, r7
 8006c02:	f7ff f9b3 	bl	8005f6c <PixelConfiguration::Validate(unsigned long&)>
 8006c06:	6862      	ldr	r2, [r4, #4]
 8006c08:	9b01      	ldr	r3, [sp, #4]
 8006c0a:	7d61      	ldrb	r1, [r4, #21]
 8006c0c:	4353      	muls	r3, r2
 8006c0e:	61e3      	str	r3, [r4, #28]
 8006c10:	b111      	cbz	r1, 8006c18 <WS28xx::WS28xx(PixelConfiguration&)+0x58>
 8006c12:	00db      	lsls	r3, r3, #3
 8006c14:	3301      	adds	r3, #1
 8006c16:	61e3      	str	r3, [r4, #28]
 8006c18:	6823      	ldr	r3, [r4, #0]
 8006c1a:	3b0b      	subs	r3, #11
 8006c1c:	2b02      	cmp	r3, #2
 8006c1e:	bf9f      	itttt	ls
 8006c20:	69e3      	ldrls	r3, [r4, #28]
 8006c22:	18d2      	addls	r2, r2, r3
 8006c24:	3208      	addls	r2, #8
 8006c26:	61e2      	strls	r2, [r4, #28]
 8006c28:	4620      	mov	r0, r4
 8006c2a:	f7ff ffb1 	bl	8006b90 <WS28xx::SetupBuffers()>
 8006c2e:	f002 fbdf 	bl	80093f0 <gd32_spi_dma_begin()>
 8006c32:	68f8      	ldr	r0, [r7, #12]
 8006c34:	f002 fc52 	bl	80094dc <gd32_spi_dma_set_speed_hz(unsigned long)>
 8006c38:	4620      	mov	r0, r4
 8006c3a:	b003      	add	sp, #12
 8006c3c:	bdf0      	pop	{r4, r5, r6, r7, pc}
 8006c3e:	bf00      	nop
 8006c40:	0800b74e 	stmdaeq	r0, {r1, r2, r3, r6, r8, r9, sl, ip, sp, pc}
 8006c44:	20001628 	andcs	r1, r0, r8, lsr #12

08006c48 <WS28xx::Update()>:
 8006c48:	b430      	push	{r4, r5}
 8006c4a:	4b0c      	ldr	r3, [pc, #48]	; (8006c7c <WS28xx::Update()+0x34>)
 8006c4c:	681b      	ldr	r3, [r3, #0]
 8006c4e:	2200      	movs	r2, #0
 8006c50:	e9d0 1407 	ldrd	r1, r4, [r0, #28]
 8006c54:	4299      	cmp	r1, r3
 8006c56:	d807      	bhi.n	8006c68 <WS28xx::Update()+0x20>
 8006c58:	6a40      	ldr	r0, [r0, #36]	; 0x24
 8006c5a:	084d      	lsrs	r5, r1, #1
 8006c5c:	2300      	movs	r3, #0
 8006c5e:	429d      	cmp	r5, r3
 8006c60:	d105      	bne.n	8006c6e <WS28xx::Update()+0x26>
 8006c62:	bc30      	pop	{r4, r5}
 8006c64:	f002 bc56 	b.w	8009514 <gd32_spi_dma_tx_start(unsigned char const*, unsigned long)>
 8006c68:	54e2      	strb	r2, [r4, r3]
 8006c6a:	3301      	adds	r3, #1
 8006c6c:	e7f0      	b.n	8006c50 <WS28xx::Update()+0x8>
 8006c6e:	f834 2013 	ldrh.w	r2, [r4, r3, lsl #1]
 8006c72:	ba52      	rev16	r2, r2
 8006c74:	f820 2013 	strh.w	r2, [r0, r3, lsl #1]
 8006c78:	3301      	adds	r3, #1
 8006c7a:	e7f0      	b.n	8006c5e <WS28xx::Update()+0x16>
 8006c7c:	2000162c 	andcs	r1, r0, ip, lsr #12

08006c80 <WS28xx::Blackout()>:
 8006c80:	e92d 43f7 	stmdb	sp!, {r0, r1, r2, r4, r5, r6, r7, r8, r9, lr}
 8006c84:	4604      	mov	r4, r0
 8006c86:	f3bf 8f6f 	isb	sy
 8006c8a:	f002 fc5d 	bl	8009548 <gd32_spi_dma_tx_is_active()>
 8006c8e:	2800      	cmp	r0, #0
 8006c90:	d1f9      	bne.n	8006c86 <WS28xx::Blackout()+0x6>
 8006c92:	e9d4 2800 	ldrd	r2, r8, [r4]
 8006c96:	e9d4 6308 	ldrd	r6, r3, [r4, #32]
 8006c9a:	f1a2 070b 	sub.w	r7, r2, #11
 8006c9e:	2f02      	cmp	r7, #2
 8006ca0:	6223      	str	r3, [r4, #32]
 8006ca2:	7018      	strb	r0, [r3, #0]
 8006ca4:	d829      	bhi.n	8006cfa <WS28xx::Blackout()+0x7a>
 8006ca6:	7058      	strb	r0, [r3, #1]
 8006ca8:	7098      	strb	r0, [r3, #2]
 8006caa:	70d8      	strb	r0, [r3, #3]
 8006cac:	4605      	mov	r5, r0
 8006cae:	4681      	mov	r9, r0
 8006cb0:	4545      	cmp	r5, r8
 8006cb2:	d118      	bne.n	8006ce6 <WS28xx::Blackout()+0x66>
 8006cb4:	69e2      	ldr	r2, [r4, #28]
 8006cb6:	6a20      	ldr	r0, [r4, #32]
 8006cb8:	3a04      	subs	r2, #4
 8006cba:	1883      	adds	r3, r0, r2
 8006cbc:	2f02      	cmp	r7, #2
 8006cbe:	bf14      	ite	ne
 8006cc0:	21ff      	movne	r1, #255	; 0xff
 8006cc2:	2100      	moveq	r1, #0
 8006cc4:	5481      	strb	r1, [r0, r2]
 8006cc6:	7059      	strb	r1, [r3, #1]
 8006cc8:	7099      	strb	r1, [r3, #2]
 8006cca:	70d9      	strb	r1, [r3, #3]
 8006ccc:	4620      	mov	r0, r4
 8006cce:	f7ff ffbb 	bl	8006c48 <WS28xx::Update()>
 8006cd2:	f3bf 8f6f 	isb	sy
 8006cd6:	f002 fc37 	bl	8009548 <gd32_spi_dma_tx_is_active()>
 8006cda:	2800      	cmp	r0, #0
 8006cdc:	d1f9      	bne.n	8006cd2 <WS28xx::Blackout()+0x52>
 8006cde:	6226      	str	r6, [r4, #32]
 8006ce0:	b003      	add	sp, #12
 8006ce2:	e8bd 83f0 	ldmia.w	sp!, {r4, r5, r6, r7, r8, r9, pc}
 8006ce6:	2300      	movs	r3, #0
 8006ce8:	4629      	mov	r1, r5
 8006cea:	f8cd 9000 	str.w	r9, [sp]
 8006cee:	461a      	mov	r2, r3
 8006cf0:	4620      	mov	r0, r4
 8006cf2:	f7ff fd0d 	bl	8006710 <WS28xx::SetPixel(unsigned long, unsigned char, unsigned char, unsigned char)>
 8006cf6:	3501      	adds	r5, #1
 8006cf8:	e7da      	b.n	8006cb0 <WS28xx::Blackout()+0x30>
 8006cfa:	6a23      	ldr	r3, [r4, #32]
 8006cfc:	b102      	cbz	r2, 8006d00 <WS28xx::Blackout()+0x80>
 8006cfe:	7c22      	ldrb	r2, [r4, #16]
 8006d00:	69e1      	ldr	r1, [r4, #28]
 8006d02:	4419      	add	r1, r3
 8006d04:	4299      	cmp	r1, r3
 8006d06:	d0e1      	beq.n	8006ccc <WS28xx::Blackout()+0x4c>
 8006d08:	f803 2f01 	strb.w	r2, [r3, #1]!
 8006d0c:	e7fa      	b.n	8006d04 <WS28xx::Blackout()+0x84>

08006d0e <WS28xx::FullOn()>:
 8006d0e:	e92d 43f7 	stmdb	sp!, {r0, r1, r2, r4, r5, r6, r7, r8, r9, lr}
 8006d12:	4604      	mov	r4, r0
 8006d14:	f3bf 8f6f 	isb	sy
 8006d18:	f002 fc16 	bl	8009548 <gd32_spi_dma_tx_is_active()>
 8006d1c:	2800      	cmp	r0, #0
 8006d1e:	d1f9      	bne.n	8006d14 <WS28xx::FullOn()+0x6>
 8006d20:	e9d4 2800 	ldrd	r2, r8, [r4]
 8006d24:	e9d4 6308 	ldrd	r6, r3, [r4, #32]
 8006d28:	f1a2 070b 	sub.w	r7, r2, #11
 8006d2c:	2f02      	cmp	r7, #2
 8006d2e:	6223      	str	r3, [r4, #32]
 8006d30:	7018      	strb	r0, [r3, #0]
 8006d32:	d82a      	bhi.n	8006d8a <WS28xx::FullOn()+0x7c>
 8006d34:	7058      	strb	r0, [r3, #1]
 8006d36:	7098      	strb	r0, [r3, #2]
 8006d38:	70d8      	strb	r0, [r3, #3]
 8006d3a:	4605      	mov	r5, r0
 8006d3c:	f04f 09ff 	mov.w	r9, #255	; 0xff
 8006d40:	4545      	cmp	r5, r8
 8006d42:	d118      	bne.n	8006d76 <WS28xx::FullOn()+0x68>
 8006d44:	69e2      	ldr	r2, [r4, #28]
 8006d46:	6a20      	ldr	r0, [r4, #32]
 8006d48:	3a04      	subs	r2, #4
 8006d4a:	1883      	adds	r3, r0, r2
 8006d4c:	2f02      	cmp	r7, #2
 8006d4e:	bf14      	ite	ne
 8006d50:	21ff      	movne	r1, #255	; 0xff
 8006d52:	2100      	moveq	r1, #0
 8006d54:	5481      	strb	r1, [r0, r2]
 8006d56:	7059      	strb	r1, [r3, #1]
 8006d58:	7099      	strb	r1, [r3, #2]
 8006d5a:	70d9      	strb	r1, [r3, #3]
 8006d5c:	4620      	mov	r0, r4
 8006d5e:	f7ff ff73 	bl	8006c48 <WS28xx::Update()>
 8006d62:	f3bf 8f6f 	isb	sy
 8006d66:	f002 fbef 	bl	8009548 <gd32_spi_dma_tx_is_active()>
 8006d6a:	2800      	cmp	r0, #0
 8006d6c:	d1f9      	bne.n	8006d62 <WS28xx::FullOn()+0x54>
 8006d6e:	6226      	str	r6, [r4, #32]
 8006d70:	b003      	add	sp, #12
 8006d72:	e8bd 83f0 	ldmia.w	sp!, {r4, r5, r6, r7, r8, r9, pc}
 8006d76:	23ff      	movs	r3, #255	; 0xff
 8006d78:	4629      	mov	r1, r5
 8006d7a:	f8cd 9000 	str.w	r9, [sp]
 8006d7e:	461a      	mov	r2, r3
 8006d80:	4620      	mov	r0, r4
 8006d82:	f7ff fcc5 	bl	8006710 <WS28xx::SetPixel(unsigned long, unsigned char, unsigned char, unsigned char)>
 8006d86:	3501      	adds	r5, #1
 8006d88:	e7da      	b.n	8006d40 <WS28xx::FullOn()+0x32>
 8006d8a:	6a23      	ldr	r3, [r4, #32]
 8006d8c:	b13a      	cbz	r2, 8006d9e <WS28xx::FullOn()+0x90>
 8006d8e:	7c61      	ldrb	r1, [r4, #17]
 8006d90:	69e2      	ldr	r2, [r4, #28]
 8006d92:	441a      	add	r2, r3
 8006d94:	429a      	cmp	r2, r3
 8006d96:	d0e1      	beq.n	8006d5c <WS28xx::FullOn()+0x4e>
 8006d98:	f803 1f01 	strb.w	r1, [r3, #1]!
 8006d9c:	e7fa      	b.n	8006d94 <WS28xx::FullOn()+0x86>
 8006d9e:	21ff      	movs	r1, #255	; 0xff
 8006da0:	e7f6      	b.n	8006d90 <WS28xx::FullOn()+0x82>
	...

08006da4 <Network::Network()>:
 8006da4:	4b05      	ldr	r3, [pc, #20]	; (8006dbc <Network::Network()+0x18>)
 8006da6:	4906      	ldr	r1, [pc, #24]	; (8006dc0 <Network::Network()+0x1c>)
 8006da8:	6018      	str	r0, [r3, #0]
 8006daa:	4602      	mov	r2, r0
 8006dac:	f811 3b01 	ldrb.w	r3, [r1], #1
 8006db0:	f802 3b01 	strb.w	r3, [r2], #1
 8006db4:	2b00      	cmp	r3, #0
 8006db6:	d1f9      	bne.n	8006dac <Network::Network()+0x8>
 8006db8:	4770      	bx	lr
 8006dba:	bf00      	nop
 8006dbc:	20001630 	andcs	r1, r0, r0, lsr r6
 8006dc0:	0800b84e 	stmdaeq	r0, {r1, r2, r3, r6, fp, ip, sp, pc}

08006dc4 <Network::MacAddressCopyTo(unsigned char*)>:
 8006dc4:	4608      	mov	r0, r1
 8006dc6:	f002 bcbf 	b.w	8009748 <mac_address_get(unsigned char*)>

08006dca <Display::Write(unsigned long, char const*) [clone .isra.0]>:
 8006dca:	b430      	push	{r4, r5}
 8006dcc:	b160      	cbz	r0, 8006de8 <Display::Write(unsigned long, char const*) [clone .isra.0]+0x1e>
 8006dce:	6845      	ldr	r5, [r0, #4]
 8006dd0:	2300      	movs	r3, #0
 8006dd2:	5cd4      	ldrb	r4, [r2, r3]
 8006dd4:	b11c      	cbz	r4, 8006dde <Display::Write(unsigned long, char const*) [clone .isra.0]+0x14>
 8006dd6:	1c5c      	adds	r4, r3, #1
 8006dd8:	429d      	cmp	r5, r3
 8006dda:	4623      	mov	r3, r4
 8006ddc:	d8f9      	bhi.n	8006dd2 <Display::Write(unsigned long, char const*) [clone .isra.0]+0x8>
 8006dde:	6804      	ldr	r4, [r0, #0]
 8006de0:	69e4      	ldr	r4, [r4, #28]
 8006de2:	46a4      	mov	ip, r4
 8006de4:	bc30      	pop	{r4, r5}
 8006de6:	4760      	bx	ip
 8006de8:	bc30      	pop	{r4, r5}
 8006dea:	4770      	bx	lr

08006dec <DisplayUdf::DisplayUdf()>:
 8006dec:	b510      	push	{r4, lr}
 8006dee:	4604      	mov	r4, r0
 8006df0:	f000 fc2e 	bl	8007650 <Display::Display()>
 8006df4:	4b05      	ldr	r3, [pc, #20]	; (8006e0c <DisplayUdf::DisplayUdf()+0x20>)
 8006df6:	f104 023f 	add.w	r2, r4, #63	; 0x3f
 8006dfa:	601c      	str	r4, [r3, #0]
 8006dfc:	2301      	movs	r3, #1
 8006dfe:	f802 3f01 	strb.w	r3, [r2, #1]!
 8006e02:	3301      	adds	r3, #1
 8006e04:	2b15      	cmp	r3, #21
 8006e06:	d1fa      	bne.n	8006dfe <DisplayUdf::DisplayUdf()+0x12>
 8006e08:	4620      	mov	r0, r4
 8006e0a:	bd10      	pop	{r4, pc}
 8006e0c:	20001634 	andcs	r1, r0, r4, lsr r6

08006e10 <DisplayUdf::SetTitle(char const*, ...)>:
 8006e10:	b40e      	push	{r1, r2, r3}
 8006e12:	b517      	push	{r0, r1, r2, r4, lr}
 8006e14:	ab05      	add	r3, sp, #20
 8006e16:	4604      	mov	r4, r0
 8006e18:	f853 2b04 	ldr.w	r2, [r3], #4
 8006e1c:	9301      	str	r3, [sp, #4]
 8006e1e:	211f      	movs	r1, #31
 8006e20:	3020      	adds	r0, #32
 8006e22:	f7fa fec5 	bl	8001bb0 <vsnprintf>
 8006e26:	4404      	add	r4, r0
 8006e28:	2300      	movs	r3, #0
 8006e2a:	f884 3020 	strb.w	r3, [r4, #32]
 8006e2e:	b003      	add	sp, #12
 8006e30:	e8bd 4010 	ldmia.w	sp!, {r4, lr}
 8006e34:	b003      	add	sp, #12
 8006e36:	4770      	bx	lr

08006e38 <DisplayUdf::Set(unsigned long, displayudf::Labels)>:
 8006e38:	1e4b      	subs	r3, r1, #1
 8006e3a:	2b05      	cmp	r3, #5
 8006e3c:	b530      	push	{r4, r5, lr}
 8006e3e:	d810      	bhi.n	8006e62 <DisplayUdf::Set(unsigned long, displayudf::Labels)+0x2a>
 8006e40:	f100 043f 	add.w	r4, r0, #63	; 0x3f
 8006e44:	2300      	movs	r3, #0
 8006e46:	b2c9      	uxtb	r1, r1
 8006e48:	f814 5f01 	ldrb.w	r5, [r4, #1]!
 8006e4c:	428d      	cmp	r5, r1
 8006e4e:	d109      	bne.n	8006e64 <DisplayUdf::Set(unsigned long, displayudf::Labels)+0x2c>
 8006e50:	1884      	adds	r4, r0, r2
 8006e52:	4403      	add	r3, r0
 8006e54:	f894 4040 	ldrb.w	r4, [r4, #64]	; 0x40
 8006e58:	f883 4040 	strb.w	r4, [r3, #64]	; 0x40
 8006e5c:	4410      	add	r0, r2
 8006e5e:	f880 1040 	strb.w	r1, [r0, #64]	; 0x40
 8006e62:	bd30      	pop	{r4, r5, pc}
 8006e64:	3301      	adds	r3, #1
 8006e66:	2b14      	cmp	r3, #20
 8006e68:	d1ee      	bne.n	8006e48 <DisplayUdf::Set(unsigned long, displayudf::Labels)+0x10>
 8006e6a:	e7f7      	b.n	8006e5c <DisplayUdf::Set(unsigned long, displayudf::Labels)+0x24>

08006e6c <DisplayUdf::Show()>:
 8006e6c:	b513      	push	{r0, r1, r4, lr}
 8006e6e:	f100 033f 	add.w	r3, r0, #63	; 0x3f
 8006e72:	4604      	mov	r4, r0
 8006e74:	f100 0253 	add.w	r2, r0, #83	; 0x53
 8006e78:	21ff      	movs	r1, #255	; 0xff
 8006e7a:	f813 0f01 	ldrb.w	r0, [r3, #1]!
 8006e7e:	2806      	cmp	r0, #6
 8006e80:	bf88      	it	hi
 8006e82:	7019      	strbhi	r1, [r3, #0]
 8006e84:	4293      	cmp	r3, r2
 8006e86:	d1f8      	bne.n	8006e7a <DisplayUdf::Show()+0xe>
 8006e88:	69e0      	ldr	r0, [r4, #28]
 8006e8a:	b108      	cbz	r0, 8006e90 <DisplayUdf::Show()+0x24>
 8006e8c:	2301      	movs	r3, #1
 8006e8e:	7303      	strb	r3, [r0, #12]
 8006e90:	f894 1040 	ldrb.w	r1, [r4, #64]	; 0x40
 8006e94:	f104 0220 	add.w	r2, r4, #32
 8006e98:	f7ff ff97 	bl	8006dca <Display::Write(unsigned long, char const*) [clone .isra.0]>
 8006e9c:	69e0      	ldr	r0, [r4, #28]
 8006e9e:	b108      	cbz	r0, 8006ea4 <DisplayUdf::Show()+0x38>
 8006ea0:	2301      	movs	r3, #1
 8006ea2:	7303      	strb	r3, [r0, #12]
 8006ea4:	4a12      	ldr	r2, [pc, #72]	; (8006ef0 <DisplayUdf::Show()+0x84>)
 8006ea6:	f894 1041 	ldrb.w	r1, [r4, #65]	; 0x41
 8006eaa:	f7ff ff8e 	bl	8006dca <Display::Write(unsigned long, char const*) [clone .isra.0]>
 8006eae:	69e3      	ldr	r3, [r4, #28]
 8006eb0:	b10b      	cbz	r3, 8006eb6 <DisplayUdf::Show()+0x4a>
 8006eb2:	2201      	movs	r2, #1
 8006eb4:	731a      	strb	r2, [r3, #12]
 8006eb6:	4b0f      	ldr	r3, [pc, #60]	; (8006ef4 <DisplayUdf::Show()+0x88>)
 8006eb8:	9300      	str	r3, [sp, #0]
 8006eba:	f894 1043 	ldrb.w	r1, [r4, #67]	; 0x43
 8006ebe:	4a0e      	ldr	r2, [pc, #56]	; (8006ef8 <DisplayUdf::Show()+0x8c>)
 8006ec0:	2303      	movs	r3, #3
 8006ec2:	4620      	mov	r0, r4
 8006ec4:	f7f9 fdd5 	bl	8000a72 <Display::Printf(unsigned long, char const*, ...)>
 8006ec8:	4b0c      	ldr	r3, [pc, #48]	; (8006efc <DisplayUdf::Show()+0x90>)
 8006eca:	681a      	ldr	r2, [r3, #0]
 8006ecc:	f8b2 307f 	ldrh.w	r3, [r2, #127]	; 0x7f
 8006ed0:	f8b2 207b 	ldrh.w	r2, [r2, #123]	; 0x7b
 8006ed4:	ba52      	rev16	r2, r2
 8006ed6:	b292      	uxth	r2, r2
 8006ed8:	9200      	str	r2, [sp, #0]
 8006eda:	ba5b      	rev16	r3, r3
 8006edc:	4a08      	ldr	r2, [pc, #32]	; (8006f00 <DisplayUdf::Show()+0x94>)
 8006ede:	f894 104d 	ldrb.w	r1, [r4, #77]	; 0x4d
 8006ee2:	b29b      	uxth	r3, r3
 8006ee4:	4620      	mov	r0, r4
 8006ee6:	f7f9 fdc4 	bl	8000a72 <Display::Printf(unsigned long, char const*, ...)>
 8006eea:	b002      	add	sp, #8
 8006eec:	bd10      	pop	{r4, pc}
 8006eee:	bf00      	nop
 8006ef0:	0800a16f 	stmdaeq	r0, {r0, r1, r2, r3, r5, r6, r8, sp, pc}
 8006ef4:	20002740 	andcs	r2, r0, r0, asr #14
 8006ef8:	0800b851 	stmdaeq	r0, {r0, r4, r6, fp, ip, sp, pc}
 8006efc:	200011a0 	andcs	r1, r0, r0, lsr #3
 8006f00:	0800b860 	stmdaeq	r0, {r5, r6, fp, ip, sp, pc}

08006f04 <DisplayUdfParamsStore::Copy(displayudfparams::Params*)>:
 8006f04:	b507      	push	{r0, r1, r2, lr}
 8006f06:	2300      	movs	r3, #0
 8006f08:	2101      	movs	r1, #1
 8006f0a:	e9cd 3100 	strd	r3, r1, [sp]
 8006f0e:	4602      	mov	r2, r0
 8006f10:	4804      	ldr	r0, [pc, #16]	; (8006f24 <DisplayUdfParamsStore::Copy(displayudfparams::Params*)+0x20>)
 8006f12:	2322      	movs	r3, #34	; 0x22
 8006f14:	6800      	ldr	r0, [r0, #0]
 8006f16:	210d      	movs	r1, #13
 8006f18:	f000 f8fc 	bl	8007114 <ConfigStore::Copy(configstore::Store, void*, unsigned long, unsigned long, bool)>
 8006f1c:	b003      	add	sp, #12
 8006f1e:	f85d fb04 	ldr.w	pc, [sp], #4
 8006f22:	bf00      	nop
 8006f24:	20001638 	andcs	r1, r0, r8, lsr r6

08006f28 <DisplayUdfParams::DisplayUdfParams()>:
 8006f28:	b510      	push	{r4, lr}
 8006f2a:	2220      	movs	r2, #32
 8006f2c:	4604      	mov	r4, r0
 8006f2e:	2100      	movs	r1, #0
 8006f30:	f001 f955 	bl	80081de <memset>
 8006f34:	2305      	movs	r3, #5
 8006f36:	f884 3020 	strb.w	r3, [r4, #32]
 8006f3a:	237f      	movs	r3, #127	; 0x7f
 8006f3c:	f884 3021 	strb.w	r3, [r4, #33]	; 0x21
 8006f40:	4620      	mov	r0, r4
 8006f42:	bd10      	pop	{r4, pc}

08006f44 <DisplayUdfParams::Load()>:
 8006f44:	b508      	push	{r3, lr}
 8006f46:	2200      	movs	r2, #0
 8006f48:	7002      	strb	r2, [r0, #0]
 8006f4a:	7042      	strb	r2, [r0, #1]
 8006f4c:	7082      	strb	r2, [r0, #2]
 8006f4e:	70c2      	strb	r2, [r0, #3]
 8006f50:	f7ff ffd8 	bl	8006f04 <DisplayUdfParamsStore::Copy(displayudfparams::Params*)>
 8006f54:	bd08      	pop	{r3, pc}

08006f56 <DisplayUdfParams::Set(DisplayUdf*)>:
 8006f56:	e92d 41f0 	stmdb	sp!, {r4, r5, r6, r7, r8, lr}
 8006f5a:	4604      	mov	r4, r0
 8006f5c:	460d      	mov	r5, r1
 8006f5e:	6823      	ldr	r3, [r4, #0]
 8006f60:	69c8      	ldr	r0, [r1, #28]
 8006f62:	009a      	lsls	r2, r3, #2
 8006f64:	d506      	bpl.n	8006f74 <DisplayUdfParams::Set(DisplayUdf*)+0x1e>
 8006f66:	f894 1021 	ldrb.w	r1, [r4, #33]	; 0x21
 8006f6a:	7629      	strb	r1, [r5, #24]
 8006f6c:	b110      	cbz	r0, 8006f74 <DisplayUdfParams::Set(DisplayUdf*)+0x1e>
 8006f6e:	6803      	ldr	r3, [r0, #0]
 8006f70:	6adb      	ldr	r3, [r3, #44]	; 0x2c
 8006f72:	4798      	blx	r3
 8006f74:	6823      	ldr	r3, [r4, #0]
 8006f76:	69e8      	ldr	r0, [r5, #28]
 8006f78:	00db      	lsls	r3, r3, #3
 8006f7a:	bf41      	itttt	mi
 8006f7c:	f894 3020 	ldrbmi.w	r3, [r4, #32]
 8006f80:	f64e 2260 	movwmi	r2, #60000	; 0xea60
 8006f84:	4353      	mulmi	r3, r2
 8006f86:	616b      	strmi	r3, [r5, #20]
 8006f88:	6821      	ldr	r1, [r4, #0]
 8006f8a:	f3c1 7180 	ubfx	r1, r1, #30, #1
 8006f8e:	7669      	strb	r1, [r5, #25]
 8006f90:	b110      	cbz	r0, 8006f98 <DisplayUdfParams::Set(DisplayUdf*)+0x42>
 8006f92:	6803      	ldr	r3, [r0, #0]
 8006f94:	6b1b      	ldr	r3, [r3, #48]	; 0x30
 8006f96:	4798      	blx	r3
 8006f98:	2600      	movs	r6, #0
 8006f9a:	2701      	movs	r7, #1
 8006f9c:	f104 0804 	add.w	r8, r4, #4
 8006fa0:	6822      	ldr	r2, [r4, #0]
 8006fa2:	fa07 f306 	lsl.w	r3, r7, r6
 8006fa6:	4393      	bics	r3, r2
 8006fa8:	d105      	bne.n	8006fb6 <DisplayUdfParams::Set(DisplayUdf*)+0x60>
 8006faa:	f818 1006 	ldrb.w	r1, [r8, r6]
 8006fae:	4632      	mov	r2, r6
 8006fb0:	4628      	mov	r0, r5
 8006fb2:	f7ff ff41 	bl	8006e38 <DisplayUdf::Set(unsigned long, displayudf::Labels)>
 8006fb6:	3601      	adds	r6, #1
 8006fb8:	2e14      	cmp	r6, #20
 8006fba:	d1f1      	bne.n	8006fa0 <DisplayUdfParams::Set(DisplayUdf*)+0x4a>
 8006fbc:	e8bd 81f0 	ldmia.w	sp!, {r4, r5, r6, r7, r8, pc}

08006fc0 <configstore::delay()>:
 8006fc0:	4b01      	ldr	r3, [pc, #4]	; (8006fc8 <configstore::delay()+0x8>)
 8006fc2:	6818      	ldr	r0, [r3, #0]
 8006fc4:	f000 b8d6 	b.w	8007174 <ConfigStore::Delay()>
 8006fc8:	20001638 	andcs	r1, r0, r8, lsr r6

08006fcc <ConfigStore::ConfigStore()>:
 8006fcc:	e92d 41ff 	stmdb	sp!, {r0, r1, r2, r3, r4, r5, r6, r7, r8, lr}
 8006fd0:	4604      	mov	r4, r0
 8006fd2:	f000 f92d 	bl	8007230 <StoreDevice::StoreDevice()>
 8006fd6:	4b23      	ldr	r3, [pc, #140]	; (8007064 <ConfigStore::ConfigStore()+0x98>)
 8006fd8:	4f23      	ldr	r7, [pc, #140]	; (8007068 <ConfigStore::ConfigStore()+0x9c>)
 8006fda:	601c      	str	r4, [r3, #0]
 8006fdc:	4620      	mov	r0, r4
 8006fde:	7863      	ldrb	r3, [r4, #1]
 8006fe0:	703b      	strb	r3, [r7, #0]
 8006fe2:	f000 f92f 	bl	8007244 <StoreDevice::GetSectorSize() const>
 8006fe6:	f44f 5680 	mov.w	r6, #4096	; 0x1000
 8006fea:	4605      	mov	r5, r0
 8006fec:	fbb6 f8f0 	udiv	r8, r6, r0
 8006ff0:	4620      	mov	r0, r4
 8006ff2:	f000 f925 	bl	8007240 <StoreDevice::GetSize() const>
 8006ff6:	4b1d      	ldr	r3, [pc, #116]	; (800706c <ConfigStore::ConfigStore()+0xa0>)
 8006ff8:	fb08 0115 	mls	r1, r8, r5, r0
 8006ffc:	6019      	str	r1, [r3, #0]
 8006ffe:	783b      	ldrb	r3, [r7, #0]
 8007000:	b133      	cbz	r3, 8007010 <ConfigStore::ConfigStore()+0x44>
 8007002:	ab03      	add	r3, sp, #12
 8007004:	9300      	str	r3, [sp, #0]
 8007006:	4632      	mov	r2, r6
 8007008:	4b19      	ldr	r3, [pc, #100]	; (8007070 <ConfigStore::ConfigStore()+0xa4>)
 800700a:	4620      	mov	r0, r4
 800700c:	f000 f91c 	bl	8007248 <StoreDevice::Read(unsigned long, unsigned long, unsigned char*, storedevice::result&)>
 8007010:	4818      	ldr	r0, [pc, #96]	; (8007074 <ConfigStore::ConfigStore()+0xa8>)
 8007012:	4917      	ldr	r1, [pc, #92]	; (8007070 <ConfigStore::ConfigStore()+0xa4>)
 8007014:	2200      	movs	r2, #0
 8007016:	2301      	movs	r3, #1
 8007018:	f810 5b01 	ldrb.w	r5, [r0], #1
 800701c:	f811 6b01 	ldrb.w	r6, [r1], #1
 8007020:	3201      	adds	r2, #1
 8007022:	42b5      	cmp	r5, r6
 8007024:	bf1c      	itt	ne
 8007026:	f801 5c01 	strbne.w	r5, [r1, #-1]
 800702a:	2300      	movne	r3, #0
 800702c:	2a04      	cmp	r2, #4
 800702e:	d1f3      	bne.n	8007018 <ConfigStore::ConfigStore()+0x4c>
 8007030:	b94b      	cbnz	r3, 8007046 <ConfigStore::ConfigStore()+0x7a>
 8007032:	4911      	ldr	r1, [pc, #68]	; (8007078 <ConfigStore::ConfigStore()+0xac>)
 8007034:	f44f 627e 	mov.w	r2, #4064	; 0xfe0
 8007038:	3a01      	subs	r2, #1
 800703a:	f801 3b01 	strb.w	r3, [r1], #1
 800703e:	d1fb      	bne.n	8007038 <ConfigStore::ConfigStore()+0x6c>
 8007040:	4b0e      	ldr	r3, [pc, #56]	; (800707c <ConfigStore::ConfigStore()+0xb0>)
 8007042:	2201      	movs	r2, #1
 8007044:	601a      	str	r2, [r3, #0]
 8007046:	490e      	ldr	r1, [pc, #56]	; (8007080 <ConfigStore::ConfigStore()+0xb4>)
 8007048:	2320      	movs	r3, #32
 800704a:	2200      	movs	r2, #0
 800704c:	f851 0b04 	ldr.w	r0, [r1], #4
 8007050:	3201      	adds	r2, #1
 8007052:	2a1b      	cmp	r2, #27
 8007054:	4403      	add	r3, r0
 8007056:	d1f9      	bne.n	800704c <ConfigStore::ConfigStore()+0x80>
 8007058:	4a0a      	ldr	r2, [pc, #40]	; (8007084 <ConfigStore::ConfigStore()+0xb8>)
 800705a:	4620      	mov	r0, r4
 800705c:	6013      	str	r3, [r2, #0]
 800705e:	b004      	add	sp, #16
 8007060:	e8bd 81f0 	ldmia.w	sp!, {r4, r5, r6, r7, r8, pc}
 8007064:	20001638 	andcs	r1, r0, r8, lsr r6
 8007068:	2000264c 	andcs	r2, r0, ip, asr #12
 800706c:	20002644 	andcs	r2, r0, r4, asr #12
 8007070:	2000163c 	andcs	r1, r0, ip, lsr r6
 8007074:	0800b8dc 	stmdaeq	r0, {r2, r3, r4, r6, r7, fp, ip, sp, pc}
 8007078:	2000165c 	andcs	r1, r0, ip, asr r6
 800707c:	20002648 	andcs	r2, r0, r8, asr #12
 8007080:	0800b870 	stmdaeq	r0, {r4, r5, r6, fp, ip, sp, pc}
 8007084:	20002640 	andcs	r2, r0, r0, asr #12

08007088 <ConfigStore::GetStoreOffset(configstore::Store)>:
 8007088:	b510      	push	{r4, lr}
 800708a:	4a05      	ldr	r2, [pc, #20]	; (80070a0 <ConfigStore::GetStoreOffset(configstore::Store)+0x18>)
 800708c:	2300      	movs	r3, #0
 800708e:	2020      	movs	r0, #32
 8007090:	428b      	cmp	r3, r1
 8007092:	d100      	bne.n	8007096 <ConfigStore::GetStoreOffset(configstore::Store)+0xe>
 8007094:	bd10      	pop	{r4, pc}
 8007096:	f852 4b04 	ldr.w	r4, [r2], #4
 800709a:	3301      	adds	r3, #1
 800709c:	4420      	add	r0, r4
 800709e:	e7f7      	b.n	8007090 <ConfigStore::GetStoreOffset(configstore::Store)+0x8>
 80070a0:	0800b870 	stmdaeq	r0, {r4, r5, r6, fp, ip, sp, pc}

080070a4 <ConfigStore::ResetSetList(configstore::Store)>:
 80070a4:	b508      	push	{r3, lr}
 80070a6:	f7ff ffef 	bl	8007088 <ConfigStore::GetStoreOffset(configstore::Store)>
 80070aa:	4905      	ldr	r1, [pc, #20]	; (80070c0 <ConfigStore::ResetSetList(configstore::Store)+0x1c>)
 80070ac:	1842      	adds	r2, r0, r1
 80070ae:	2300      	movs	r3, #0
 80070b0:	540b      	strb	r3, [r1, r0]
 80070b2:	7053      	strb	r3, [r2, #1]
 80070b4:	7093      	strb	r3, [r2, #2]
 80070b6:	70d3      	strb	r3, [r2, #3]
 80070b8:	4b02      	ldr	r3, [pc, #8]	; (80070c4 <ConfigStore::ResetSetList(configstore::Store)+0x20>)
 80070ba:	2201      	movs	r2, #1
 80070bc:	601a      	str	r2, [r3, #0]
 80070be:	bd08      	pop	{r3, pc}
 80070c0:	2000163c 	andcs	r1, r0, ip, lsr r6
 80070c4:	20002648 	andcs	r2, r0, r8, asr #12

080070c8 <ConfigStore::Update(configstore::Store, unsigned long, void const*, unsigned long, unsigned long, unsigned long)>:
 80070c8:	b5f8      	push	{r3, r4, r5, r6, r7, lr}
 80070ca:	4614      	mov	r4, r2
 80070cc:	461d      	mov	r5, r3
 80070ce:	f7ff ffdb 	bl	8007088 <ConfigStore::GetStoreOffset(configstore::Store)>
 80070d2:	490e      	ldr	r1, [pc, #56]	; (800710c <ConfigStore::Update(configstore::Store, unsigned long, void const*, unsigned long, unsigned long, unsigned long)+0x44>)
 80070d4:	1902      	adds	r2, r0, r4
 80070d6:	9c06      	ldr	r4, [sp, #24]
 80070d8:	440a      	add	r2, r1
 80070da:	1e6b      	subs	r3, r5, #1
 80070dc:	4414      	add	r4, r2
 80070de:	2500      	movs	r5, #0
 80070e0:	42a2      	cmp	r2, r4
 80070e2:	d10a      	bne.n	80070fa <ConfigStore::Update(configstore::Store, unsigned long, void const*, unsigned long, unsigned long, unsigned long)+0x32>
 80070e4:	b145      	cbz	r5, 80070f8 <ConfigStore::Update(configstore::Store, unsigned long, void const*, unsigned long, unsigned long, unsigned long)+0x30>
 80070e6:	9b08      	ldr	r3, [sp, #32]
 80070e8:	9a07      	ldr	r2, [sp, #28]
 80070ea:	4418      	add	r0, r3
 80070ec:	580b      	ldr	r3, [r1, r0]
 80070ee:	4313      	orrs	r3, r2
 80070f0:	500b      	str	r3, [r1, r0]
 80070f2:	4b07      	ldr	r3, [pc, #28]	; (8007110 <ConfigStore::Update(configstore::Store, unsigned long, void const*, unsigned long, unsigned long, unsigned long)+0x48>)
 80070f4:	2201      	movs	r2, #1
 80070f6:	601a      	str	r2, [r3, #0]
 80070f8:	bdf8      	pop	{r3, r4, r5, r6, r7, pc}
 80070fa:	7817      	ldrb	r7, [r2, #0]
 80070fc:	f813 6f01 	ldrb.w	r6, [r3, #1]!
 8007100:	42b7      	cmp	r7, r6
 8007102:	bf1c      	itt	ne
 8007104:	7016      	strbne	r6, [r2, #0]
 8007106:	2501      	movne	r5, #1
 8007108:	3201      	adds	r2, #1
 800710a:	e7e9      	b.n	80070e0 <ConfigStore::Update(configstore::Store, unsigned long, void const*, unsigned long, unsigned long, unsigned long)+0x18>
 800710c:	2000163c 	andcs	r1, r0, ip, lsr r6
 8007110:	20002648 	andcs	r2, r0, r8, asr #12

08007114 <ConfigStore::Copy(configstore::Store, void*, unsigned long, unsigned long, bool)>:
 8007114:	e92d 43f0 	stmdb	sp!, {r4, r5, r6, r7, r8, r9, lr}
 8007118:	b085      	sub	sp, #20
 800711a:	461e      	mov	r6, r3
 800711c:	4615      	mov	r5, r2
 800711e:	4607      	mov	r7, r0
 8007120:	f7ff ffb2 	bl	8007088 <ConfigStore::GetStoreOffset(configstore::Store)>
 8007124:	9b0c      	ldr	r3, [sp, #48]	; 0x30
 8007126:	f89d 9034 	ldrb.w	r9, [sp, #52]	; 0x34
 800712a:	18c4      	adds	r4, r0, r3
 800712c:	4b10      	ldr	r3, [pc, #64]	; (8007170 <ConfigStore::Copy(configstore::Store, void*, unsigned long, unsigned long, bool)+0x5c>)
 800712e:	441c      	add	r4, r3
 8007130:	4688      	mov	r8, r1
 8007132:	4623      	mov	r3, r4
 8007134:	1932      	adds	r2, r6, r4
 8007136:	4293      	cmp	r3, r2
 8007138:	d10c      	bne.n	8007154 <ConfigStore::Copy(configstore::Store, void*, unsigned long, unsigned long, bool)+0x40>
 800713a:	f1b9 0f00 	cmp.w	r9, #0
 800713e:	d00f      	beq.n	8007160 <ConfigStore::Copy(configstore::Store, void*, unsigned long, unsigned long, bool)+0x4c>
 8007140:	2200      	movs	r2, #0
 8007142:	e9cd 2201 	strd	r2, r2, [sp, #4]
 8007146:	9600      	str	r6, [sp, #0]
 8007148:	462b      	mov	r3, r5
 800714a:	4641      	mov	r1, r8
 800714c:	4638      	mov	r0, r7
 800714e:	f7ff ffbb 	bl	80070c8 <ConfigStore::Update(configstore::Store, unsigned long, void const*, unsigned long, unsigned long, unsigned long)>
 8007152:	e005      	b.n	8007160 <ConfigStore::Copy(configstore::Store, void*, unsigned long, unsigned long, bool)+0x4c>
 8007154:	f813 1b01 	ldrb.w	r1, [r3], #1
 8007158:	2900      	cmp	r1, #0
 800715a:	d0ec      	beq.n	8007136 <ConfigStore::Copy(configstore::Store, void*, unsigned long, unsigned long, bool)+0x22>
 800715c:	4294      	cmp	r4, r2
 800715e:	d102      	bne.n	8007166 <ConfigStore::Copy(configstore::Store, void*, unsigned long, unsigned long, bool)+0x52>
 8007160:	b005      	add	sp, #20
 8007162:	e8bd 83f0 	ldmia.w	sp!, {r4, r5, r6, r7, r8, r9, pc}
 8007166:	f814 3b01 	ldrb.w	r3, [r4], #1
 800716a:	f805 3b01 	strb.w	r3, [r5], #1
 800716e:	e7f5      	b.n	800715c <ConfigStore::Copy(configstore::Store, void*, unsigned long, unsigned long, bool)+0x48>
 8007170:	2000163c 	andcs	r1, r0, ip, lsr r6

08007174 <ConfigStore::Delay()>:
 8007174:	4b02      	ldr	r3, [pc, #8]	; (8007180 <ConfigStore::Delay()+0xc>)
 8007176:	681a      	ldr	r2, [r3, #0]
 8007178:	b10a      	cbz	r2, 800717e <ConfigStore::Delay()+0xa>
 800717a:	2201      	movs	r2, #1
 800717c:	601a      	str	r2, [r3, #0]
 800717e:	4770      	bx	lr
 8007180:	20002648 	andcs	r2, r0, r8, asr #12

08007184 <ConfigStore::Flash()>:
 8007184:	b51f      	push	{r0, r1, r2, r3, r4, lr}
 8007186:	4c24      	ldr	r4, [pc, #144]	; (8007218 <ConfigStore::Flash()+0x94>)
 8007188:	6823      	ldr	r3, [r4, #0]
 800718a:	2b00      	cmp	r3, #0
 800718c:	d041      	beq.n	8007212 <ConfigStore::Flash()+0x8e>
 800718e:	3b01      	subs	r3, #1
 8007190:	2b05      	cmp	r3, #5
 8007192:	d82f      	bhi.n	80071f4 <ConfigStore::Flash()+0x70>
 8007194:	e8df f003 	tbb	[pc, r3]
 8007198:	2c140b03 			; <UNDEFINED> instruction: 0x2c140b03
 800719c:	4b1f2e23 	blmi	87d2a30 <_sidata+0x7c6d0c>
 80071a0:	681a      	ldr	r2, [r3, #0]
 80071a2:	4b1f      	ldr	r3, [pc, #124]	; (8007220 <ConfigStore::Flash()+0x9c>)
 80071a4:	601a      	str	r2, [r3, #0]
 80071a6:	2302      	movs	r3, #2
 80071a8:	6023      	str	r3, [r4, #0]
 80071aa:	2001      	movs	r0, #1
 80071ac:	e02f      	b.n	800720e <ConfigStore::Flash()+0x8a>
 80071ae:	4b1b      	ldr	r3, [pc, #108]	; (800721c <ConfigStore::Flash()+0x98>)
 80071b0:	4a1b      	ldr	r2, [pc, #108]	; (8007220 <ConfigStore::Flash()+0x9c>)
 80071b2:	681b      	ldr	r3, [r3, #0]
 80071b4:	6812      	ldr	r2, [r2, #0]
 80071b6:	1a9b      	subs	r3, r3, r2
 80071b8:	2b63      	cmp	r3, #99	; 0x63
 80071ba:	d9f6      	bls.n	80071aa <ConfigStore::Flash()+0x26>
 80071bc:	2303      	movs	r3, #3
 80071be:	e7f3      	b.n	80071a8 <ConfigStore::Flash()+0x24>
 80071c0:	4918      	ldr	r1, [pc, #96]	; (8007224 <ConfigStore::Flash()+0xa0>)
 80071c2:	ab03      	add	r3, sp, #12
 80071c4:	6809      	ldr	r1, [r1, #0]
 80071c6:	f44f 5280 	mov.w	r2, #4096	; 0x1000
 80071ca:	f000 f847 	bl	800725c <StoreDevice::Erase(unsigned long, unsigned long, storedevice::result&)>
 80071ce:	2800      	cmp	r0, #0
 80071d0:	d0eb      	beq.n	80071aa <ConfigStore::Flash()+0x26>
 80071d2:	4b12      	ldr	r3, [pc, #72]	; (800721c <ConfigStore::Flash()+0x98>)
 80071d4:	681a      	ldr	r2, [r3, #0]
 80071d6:	4b12      	ldr	r3, [pc, #72]	; (8007220 <ConfigStore::Flash()+0x9c>)
 80071d8:	601a      	str	r2, [r3, #0]
 80071da:	2305      	movs	r3, #5
 80071dc:	e7e4      	b.n	80071a8 <ConfigStore::Flash()+0x24>
 80071de:	4b0f      	ldr	r3, [pc, #60]	; (800721c <ConfigStore::Flash()+0x98>)
 80071e0:	4a0f      	ldr	r2, [pc, #60]	; (8007220 <ConfigStore::Flash()+0x9c>)
 80071e2:	681b      	ldr	r3, [r3, #0]
 80071e4:	6812      	ldr	r2, [r2, #0]
 80071e6:	1a9b      	subs	r3, r3, r2
 80071e8:	2b63      	cmp	r3, #99	; 0x63
 80071ea:	d9de      	bls.n	80071aa <ConfigStore::Flash()+0x26>
 80071ec:	2304      	movs	r3, #4
 80071ee:	e7db      	b.n	80071a8 <ConfigStore::Flash()+0x24>
 80071f0:	2306      	movs	r3, #6
 80071f2:	e7d9      	b.n	80071a8 <ConfigStore::Flash()+0x24>
 80071f4:	ab03      	add	r3, sp, #12
 80071f6:	4a0c      	ldr	r2, [pc, #48]	; (8007228 <ConfigStore::Flash()+0xa4>)
 80071f8:	490a      	ldr	r1, [pc, #40]	; (8007224 <ConfigStore::Flash()+0xa0>)
 80071fa:	9300      	str	r3, [sp, #0]
 80071fc:	6812      	ldr	r2, [r2, #0]
 80071fe:	4b0b      	ldr	r3, [pc, #44]	; (800722c <ConfigStore::Flash()+0xa8>)
 8007200:	6809      	ldr	r1, [r1, #0]
 8007202:	f000 f834 	bl	800726e <StoreDevice::Write(unsigned long, unsigned long, unsigned char const*, storedevice::result&)>
 8007206:	2800      	cmp	r0, #0
 8007208:	d0cf      	beq.n	80071aa <ConfigStore::Flash()+0x26>
 800720a:	2000      	movs	r0, #0
 800720c:	6020      	str	r0, [r4, #0]
 800720e:	b004      	add	sp, #16
 8007210:	bd10      	pop	{r4, pc}
 8007212:	4618      	mov	r0, r3
 8007214:	e7fb      	b.n	800720e <ConfigStore::Flash()+0x8a>
 8007216:	bf00      	nop
 8007218:	20002648 	andcs	r2, r0, r8, asr #12
 800721c:	20008794 	mulcs	r0, r4, r7
 8007220:	2000263c 	andcs	r2, r0, ip, lsr r6
 8007224:	20002644 	andcs	r2, r0, r4, asr #12
 8007228:	20002640 	andcs	r2, r0, r0, asr #12
 800722c:	2000163c 	andcs	r1, r0, ip, lsr r6

08007230 <StoreDevice::StoreDevice()>:
 8007230:	b510      	push	{r4, lr}
 8007232:	4604      	mov	r4, r0
 8007234:	f000 f826 	bl	8007284 <FlashCode::FlashCode()>
 8007238:	7823      	ldrb	r3, [r4, #0]
 800723a:	7063      	strb	r3, [r4, #1]
 800723c:	4620      	mov	r0, r4
 800723e:	bd10      	pop	{r4, pc}

08007240 <StoreDevice::GetSize() const>:
 8007240:	f000 b83a 	b.w	80072b8 <FlashCode::GetSize() const>

08007244 <StoreDevice::GetSectorSize() const>:
 8007244:	f000 b840 	b.w	80072c8 <FlashCode::GetSectorSize() const>

08007248 <StoreDevice::Read(unsigned long, unsigned long, unsigned char*, storedevice::result&)>:
 8007248:	b51f      	push	{r0, r1, r2, r3, r4, lr}
 800724a:	ac03      	add	r4, sp, #12
 800724c:	9400      	str	r4, [sp, #0]
 800724e:	f000 f83e 	bl	80072ce <FlashCode::Read(unsigned long, unsigned long, unsigned char*, flashcode::result&)>
 8007252:	9b06      	ldr	r3, [sp, #24]
 8007254:	9a03      	ldr	r2, [sp, #12]
 8007256:	601a      	str	r2, [r3, #0]
 8007258:	b004      	add	sp, #16
 800725a:	bd10      	pop	{r4, pc}

0800725c <StoreDevice::Erase(unsigned long, unsigned long, storedevice::result&)>:
 800725c:	b513      	push	{r0, r1, r4, lr}
 800725e:	461c      	mov	r4, r3
 8007260:	ab01      	add	r3, sp, #4
 8007262:	f000 f843 	bl	80072ec <FlashCode::Erase(unsigned long, unsigned long, flashcode::result&)>
 8007266:	9b01      	ldr	r3, [sp, #4]
 8007268:	6023      	str	r3, [r4, #0]
 800726a:	b002      	add	sp, #8
 800726c:	bd10      	pop	{r4, pc}

0800726e <StoreDevice::Write(unsigned long, unsigned long, unsigned char const*, storedevice::result&)>:
 800726e:	b51f      	push	{r0, r1, r2, r3, r4, lr}
 8007270:	ac03      	add	r4, sp, #12
 8007272:	9400      	str	r4, [sp, #0]
 8007274:	f000 f8da 	bl	800742c <FlashCode::Write(unsigned long, unsigned long, unsigned char const*, flashcode::result&)>
 8007278:	9b06      	ldr	r3, [sp, #24]
 800727a:	9a03      	ldr	r2, [sp, #12]
 800727c:	601a      	str	r2, [r3, #0]
 800727e:	b004      	add	sp, #16
 8007280:	bd10      	pop	{r4, pc}
	...

08007284 <FlashCode::FlashCode()>:
 8007284:	b538      	push	{r3, r4, r5, lr}
 8007286:	4b09      	ldr	r3, [pc, #36]	; (80072ac <FlashCode::FlashCode()+0x28>)
 8007288:	6018      	str	r0, [r3, #0]
 800728a:	2301      	movs	r3, #1
 800728c:	7003      	strb	r3, [r0, #0]
 800728e:	4604      	mov	r4, r0
 8007290:	f000 f812 	bl	80072b8 <FlashCode::GetSize() const>
 8007294:	4605      	mov	r5, r0
 8007296:	4620      	mov	r0, r4
 8007298:	f000 f80e 	bl	80072b8 <FlashCode::GetSize() const>
 800729c:	4904      	ldr	r1, [pc, #16]	; (80072b0 <FlashCode::FlashCode()+0x2c>)
 800729e:	0a83      	lsrs	r3, r0, #10
 80072a0:	462a      	mov	r2, r5
 80072a2:	4804      	ldr	r0, [pc, #16]	; (80072b4 <FlashCode::FlashCode()+0x30>)
 80072a4:	f7fa fc5c 	bl	8001b60 <printf>
 80072a8:	4620      	mov	r0, r4
 80072aa:	bd38      	pop	{r3, r4, r5, pc}
 80072ac:	20002650 	andcs	r2, r0, r0, asr r6
 80072b0:	0800a16f 	stmdaeq	r0, {r0, r1, r2, r3, r5, r6, r8, sp, pc}
 80072b4:	0800b8e0 	stmdaeq	r0, {r5, r6, r7, fp, ip, sp, pc}

080072b8 <FlashCode::GetSize() const>:
 80072b8:	4b02      	ldr	r3, [pc, #8]	; (80072c4 <FlashCode::GetSize() const+0xc>)
 80072ba:	f8b3 00e0 	ldrh.w	r0, [r3, #224]	; 0xe0
 80072be:	0280      	lsls	r0, r0, #10
 80072c0:	4770      	bx	lr
 80072c2:	bf00      	nop
 80072c4:	1ffff700 	svcne	0x00fff700

080072c8 <FlashCode::GetSectorSize() const>:
 80072c8:	f44f 5080 	mov.w	r0, #4096	; 0x1000
 80072cc:	4770      	bx	lr

080072ce <FlashCode::Read(unsigned long, unsigned long, unsigned char*, flashcode::result&)>:
 80072ce:	f101 6100 	add.w	r1, r1, #134217728	; 0x8000000
 80072d2:	441a      	add	r2, r3
 80072d4:	4293      	cmp	r3, r2
 80072d6:	d104      	bne.n	80072e2 <FlashCode::Read(unsigned long, unsigned long, unsigned char*, flashcode::result&)+0x14>
 80072d8:	9b00      	ldr	r3, [sp, #0]
 80072da:	2200      	movs	r2, #0
 80072dc:	601a      	str	r2, [r3, #0]
 80072de:	2001      	movs	r0, #1
 80072e0:	4770      	bx	lr
 80072e2:	f851 0b04 	ldr.w	r0, [r1], #4
 80072e6:	f843 0b04 	str.w	r0, [r3], #4
 80072ea:	e7f3      	b.n	80072d4 <FlashCode::Read(unsigned long, unsigned long, unsigned char*, flashcode::result&)+0x6>

080072ec <FlashCode::Erase(unsigned long, unsigned long, flashcode::result&)>:
 80072ec:	b538      	push	{r3, r4, r5, lr}
 80072ee:	4c48      	ldr	r4, [pc, #288]	; (8007410 <FlashCode::Erase(unsigned long, unsigned long, flashcode::result&)+0x124>)
 80072f0:	2000      	movs	r0, #0
 80072f2:	6018      	str	r0, [r3, #0]
 80072f4:	6823      	ldr	r3, [r4, #0]
 80072f6:	2b04      	cmp	r3, #4
 80072f8:	f200 8082 	bhi.w	8007400 <FlashCode::Erase(unsigned long, unsigned long, flashcode::result&)+0x114>
 80072fc:	e8df f003 	tbb	[pc, r3]
 8007300:	78452003 	stmdavc	r5, {r0, r1, sp}^
 8007304:	4b430080 	blmi	90c750c <_sidata+0x10bb7e8>
 8007308:	f101 6100 	add.w	r1, r1, #134217728	; 0x8000000
 800730c:	6019      	str	r1, [r3, #0]
 800730e:	4b42      	ldr	r3, [pc, #264]	; (8007418 <FlashCode::Erase(unsigned long, unsigned long, flashcode::result&)+0x12c>)
 8007310:	601a      	str	r2, [r3, #0]
 8007312:	4b42      	ldr	r3, [pc, #264]	; (800741c <FlashCode::Erase(unsigned long, unsigned long, flashcode::result&)+0x130>)
 8007314:	f8b3 30e0 	ldrh.w	r3, [r3, #224]	; 0xe0
 8007318:	f5b3 7f00 	cmp.w	r3, #512	; 0x200
 800731c:	4b40      	ldr	r3, [pc, #256]	; (8007420 <FlashCode::Erase(unsigned long, unsigned long, flashcode::result&)+0x134>)
 800731e:	d807      	bhi.n	8007330 <FlashCode::Erase(unsigned long, unsigned long, flashcode::result&)+0x44>
 8007320:	2201      	movs	r2, #1
 8007322:	701a      	strb	r2, [r3, #0]
 8007324:	f001 fa12 	bl	800874c <fmc_bank0_unlock>
 8007328:	2301      	movs	r3, #1
 800732a:	6023      	str	r3, [r4, #0]
 800732c:	2000      	movs	r0, #0
 800732e:	e029      	b.n	8007384 <FlashCode::Erase(unsigned long, unsigned long, flashcode::result&)+0x98>
 8007330:	4a3c      	ldr	r2, [pc, #240]	; (8007424 <FlashCode::Erase(unsigned long, unsigned long, flashcode::result&)+0x138>)
 8007332:	4291      	cmp	r1, r2
 8007334:	d3f4      	bcc.n	8007320 <FlashCode::Erase(unsigned long, unsigned long, flashcode::result&)+0x34>
 8007336:	2200      	movs	r2, #0
 8007338:	701a      	strb	r2, [r3, #0]
 800733a:	f001 fa15 	bl	8008768 <fmc_bank1_unlock>
 800733e:	e7f3      	b.n	8007328 <FlashCode::Erase(unsigned long, unsigned long, flashcode::result&)+0x3c>
 8007340:	4d37      	ldr	r5, [pc, #220]	; (8007420 <FlashCode::Erase(unsigned long, unsigned long, flashcode::result&)+0x134>)
 8007342:	782b      	ldrb	r3, [r5, #0]
 8007344:	b183      	cbz	r3, 8007368 <FlashCode::Erase(unsigned long, unsigned long, flashcode::result&)+0x7c>
 8007346:	f001 fa2d 	bl	80087a4 <fmc_bank0_state_get>
 800734a:	2801      	cmp	r0, #1
 800734c:	d0ee      	beq.n	800732c <FlashCode::Erase(unsigned long, unsigned long, flashcode::result&)+0x40>
 800734e:	782a      	ldrb	r2, [r5, #0]
 8007350:	4931      	ldr	r1, [pc, #196]	; (8007418 <FlashCode::Erase(unsigned long, unsigned long, flashcode::result&)+0x12c>)
 8007352:	4b35      	ldr	r3, [pc, #212]	; (8007428 <FlashCode::Erase(unsigned long, unsigned long, flashcode::result&)+0x13c>)
 8007354:	b95a      	cbnz	r2, 800736e <FlashCode::Erase(unsigned long, unsigned long, flashcode::result&)+0x82>
 8007356:	6d1a      	ldr	r2, [r3, #80]	; 0x50
 8007358:	f022 0202 	bic.w	r2, r2, #2
 800735c:	651a      	str	r2, [r3, #80]	; 0x50
 800735e:	680b      	ldr	r3, [r1, #0]
 8007360:	b98b      	cbnz	r3, 8007386 <FlashCode::Erase(unsigned long, unsigned long, flashcode::result&)+0x9a>
 8007362:	f001 fa17 	bl	8008794 <fmc_bank1_lock>
 8007366:	e00a      	b.n	800737e <FlashCode::Erase(unsigned long, unsigned long, flashcode::result&)+0x92>
 8007368:	f001 fa2e 	bl	80087c8 <fmc_bank1_state_get>
 800736c:	e7ed      	b.n	800734a <FlashCode::Erase(unsigned long, unsigned long, flashcode::result&)+0x5e>
 800736e:	691a      	ldr	r2, [r3, #16]
 8007370:	f022 0202 	bic.w	r2, r2, #2
 8007374:	611a      	str	r2, [r3, #16]
 8007376:	680b      	ldr	r3, [r1, #0]
 8007378:	b92b      	cbnz	r3, 8007386 <FlashCode::Erase(unsigned long, unsigned long, flashcode::result&)+0x9a>
 800737a:	f001 fa03 	bl	8008784 <fmc_bank0_lock>
 800737e:	2300      	movs	r3, #0
 8007380:	6023      	str	r3, [r4, #0]
 8007382:	2001      	movs	r0, #1
 8007384:	bd38      	pop	{r3, r4, r5, pc}
 8007386:	2302      	movs	r3, #2
 8007388:	e7cf      	b.n	800732a <FlashCode::Erase(unsigned long, unsigned long, flashcode::result&)+0x3e>
 800738a:	4923      	ldr	r1, [pc, #140]	; (8007418 <FlashCode::Erase(unsigned long, unsigned long, flashcode::result&)+0x12c>)
 800738c:	680b      	ldr	r3, [r1, #0]
 800738e:	2b00      	cmp	r3, #0
 8007390:	d0ca      	beq.n	8007328 <FlashCode::Erase(unsigned long, unsigned long, flashcode::result&)+0x3c>
 8007392:	4b23      	ldr	r3, [pc, #140]	; (8007420 <FlashCode::Erase(unsigned long, unsigned long, flashcode::result&)+0x134>)
 8007394:	4a1f      	ldr	r2, [pc, #124]	; (8007414 <FlashCode::Erase(unsigned long, unsigned long, flashcode::result&)+0x128>)
 8007396:	7818      	ldrb	r0, [r3, #0]
 8007398:	4b23      	ldr	r3, [pc, #140]	; (8007428 <FlashCode::Erase(unsigned long, unsigned long, flashcode::result&)+0x13c>)
 800739a:	b190      	cbz	r0, 80073c2 <FlashCode::Erase(unsigned long, unsigned long, flashcode::result&)+0xd6>
 800739c:	6918      	ldr	r0, [r3, #16]
 800739e:	f040 0002 	orr.w	r0, r0, #2
 80073a2:	6118      	str	r0, [r3, #16]
 80073a4:	6810      	ldr	r0, [r2, #0]
 80073a6:	6158      	str	r0, [r3, #20]
 80073a8:	6918      	ldr	r0, [r3, #16]
 80073aa:	f040 0040 	orr.w	r0, r0, #64	; 0x40
 80073ae:	6118      	str	r0, [r3, #16]
 80073b0:	680b      	ldr	r3, [r1, #0]
 80073b2:	f5a3 6300 	sub.w	r3, r3, #2048	; 0x800
 80073b6:	600b      	str	r3, [r1, #0]
 80073b8:	6813      	ldr	r3, [r2, #0]
 80073ba:	f503 6300 	add.w	r3, r3, #2048	; 0x800
 80073be:	6013      	str	r3, [r2, #0]
 80073c0:	e7b2      	b.n	8007328 <FlashCode::Erase(unsigned long, unsigned long, flashcode::result&)+0x3c>
 80073c2:	6d18      	ldr	r0, [r3, #80]	; 0x50
 80073c4:	f040 0002 	orr.w	r0, r0, #2
 80073c8:	6518      	str	r0, [r3, #80]	; 0x50
 80073ca:	6810      	ldr	r0, [r2, #0]
 80073cc:	6558      	str	r0, [r3, #84]	; 0x54
 80073ce:	69dd      	ldr	r5, [r3, #28]
 80073d0:	07ad      	lsls	r5, r5, #30
 80073d2:	bf48      	it	mi
 80073d4:	6158      	strmi	r0, [r3, #20]
 80073d6:	4814      	ldr	r0, [pc, #80]	; (8007428 <FlashCode::Erase(unsigned long, unsigned long, flashcode::result&)+0x13c>)
 80073d8:	6d03      	ldr	r3, [r0, #80]	; 0x50
 80073da:	f043 0340 	orr.w	r3, r3, #64	; 0x40
 80073de:	6503      	str	r3, [r0, #80]	; 0x50
 80073e0:	680b      	ldr	r3, [r1, #0]
 80073e2:	f5a3 5380 	sub.w	r3, r3, #4096	; 0x1000
 80073e6:	600b      	str	r3, [r1, #0]
 80073e8:	6813      	ldr	r3, [r2, #0]
 80073ea:	f503 5380 	add.w	r3, r3, #4096	; 0x1000
 80073ee:	e7e6      	b.n	80073be <FlashCode::Erase(unsigned long, unsigned long, flashcode::result&)+0xd2>
 80073f0:	4b0b      	ldr	r3, [pc, #44]	; (8007420 <FlashCode::Erase(unsigned long, unsigned long, flashcode::result&)+0x134>)
 80073f2:	781a      	ldrb	r2, [r3, #0]
 80073f4:	4b0c      	ldr	r3, [pc, #48]	; (8007428 <FlashCode::Erase(unsigned long, unsigned long, flashcode::result&)+0x13c>)
 80073f6:	b12a      	cbz	r2, 8007404 <FlashCode::Erase(unsigned long, unsigned long, flashcode::result&)+0x118>
 80073f8:	691a      	ldr	r2, [r3, #16]
 80073fa:	f022 0201 	bic.w	r2, r2, #1
 80073fe:	611a      	str	r2, [r3, #16]
 8007400:	2300      	movs	r3, #0
 8007402:	e792      	b.n	800732a <FlashCode::Erase(unsigned long, unsigned long, flashcode::result&)+0x3e>
 8007404:	6d1a      	ldr	r2, [r3, #80]	; 0x50
 8007406:	f022 0201 	bic.w	r2, r2, #1
 800740a:	651a      	str	r2, [r3, #80]	; 0x50
 800740c:	e7f8      	b.n	8007400 <FlashCode::Erase(unsigned long, unsigned long, flashcode::result&)+0x114>
 800740e:	bf00      	nop
 8007410:	20002668 	andcs	r2, r0, r8, ror #12
 8007414:	20002664 	andcs	r2, r0, r4, ror #12
 8007418:	20002660 	andcs	r2, r0, r0, ror #12
 800741c:	1ffff700 	svcne	0x00fff700
 8007420:	20002654 	andcs	r2, r0, r4, asr r6
 8007424:	0807ffff 	stmdaeq	r7, {r0, r1, r2, r3, r4, r5, r6, r7, r8, r9, sl, fp, ip, sp, lr, pc}
 8007428:	40022000 	andmi	r2, r2, r0

0800742c <FlashCode::Write(unsigned long, unsigned long, unsigned char const*, flashcode::result&)>:
 800742c:	b570      	push	{r4, r5, r6, lr}
 800742e:	9804      	ldr	r0, [sp, #16]
 8007430:	2400      	movs	r4, #0
 8007432:	6004      	str	r4, [r0, #0]
 8007434:	4c48      	ldr	r4, [pc, #288]	; (8007558 <FlashCode::Write(unsigned long, unsigned long, unsigned char const*, flashcode::result&)+0x12c>)
 8007436:	6820      	ldr	r0, [r4, #0]
 8007438:	2804      	cmp	r0, #4
 800743a:	d848      	bhi.n	80074ce <FlashCode::Write(unsigned long, unsigned long, unsigned char const*, flashcode::result&)+0xa2>
 800743c:	e8df f000 	tbb	[pc, r0]
 8007440:	22847c03 	addcs	r7, r4, #768	; 0x300
 8007444:	48450047 	stmdami	r5, {r0, r1, r2, r6}^
 8007448:	f101 6100 	add.w	r1, r1, #134217728	; 0x8000000
 800744c:	6001      	str	r1, [r0, #0]
 800744e:	4844      	ldr	r0, [pc, #272]	; (8007560 <FlashCode::Write(unsigned long, unsigned long, unsigned char const*, flashcode::result&)+0x134>)
 8007450:	6003      	str	r3, [r0, #0]
 8007452:	4b44      	ldr	r3, [pc, #272]	; (8007564 <FlashCode::Write(unsigned long, unsigned long, unsigned char const*, flashcode::result&)+0x138>)
 8007454:	601a      	str	r2, [r3, #0]
 8007456:	4b44      	ldr	r3, [pc, #272]	; (8007568 <FlashCode::Write(unsigned long, unsigned long, unsigned char const*, flashcode::result&)+0x13c>)
 8007458:	f8b3 30e0 	ldrh.w	r3, [r3, #224]	; 0xe0
 800745c:	f5b3 7f00 	cmp.w	r3, #512	; 0x200
 8007460:	4b42      	ldr	r3, [pc, #264]	; (800756c <FlashCode::Write(unsigned long, unsigned long, unsigned char const*, flashcode::result&)+0x140>)
 8007462:	d807      	bhi.n	8007474 <FlashCode::Write(unsigned long, unsigned long, unsigned char const*, flashcode::result&)+0x48>
 8007464:	2201      	movs	r2, #1
 8007466:	701a      	strb	r2, [r3, #0]
 8007468:	f001 f970 	bl	800874c <fmc_bank0_unlock>
 800746c:	2303      	movs	r3, #3
 800746e:	6023      	str	r3, [r4, #0]
 8007470:	2000      	movs	r0, #0
 8007472:	e029      	b.n	80074c8 <FlashCode::Write(unsigned long, unsigned long, unsigned char const*, flashcode::result&)+0x9c>
 8007474:	4a3e      	ldr	r2, [pc, #248]	; (8007570 <FlashCode::Write(unsigned long, unsigned long, unsigned char const*, flashcode::result&)+0x144>)
 8007476:	4291      	cmp	r1, r2
 8007478:	d3f4      	bcc.n	8007464 <FlashCode::Write(unsigned long, unsigned long, unsigned char const*, flashcode::result&)+0x38>
 800747a:	2200      	movs	r2, #0
 800747c:	701a      	strb	r2, [r3, #0]
 800747e:	f001 f973 	bl	8008768 <fmc_bank1_unlock>
 8007482:	e7f3      	b.n	800746c <FlashCode::Write(unsigned long, unsigned long, unsigned char const*, flashcode::result&)+0x40>
 8007484:	4d39      	ldr	r5, [pc, #228]	; (800756c <FlashCode::Write(unsigned long, unsigned long, unsigned char const*, flashcode::result&)+0x140>)
 8007486:	782b      	ldrb	r3, [r5, #0]
 8007488:	b183      	cbz	r3, 80074ac <FlashCode::Write(unsigned long, unsigned long, unsigned char const*, flashcode::result&)+0x80>
 800748a:	f001 f98b 	bl	80087a4 <fmc_bank0_state_get>
 800748e:	2801      	cmp	r0, #1
 8007490:	d0ee      	beq.n	8007470 <FlashCode::Write(unsigned long, unsigned long, unsigned char const*, flashcode::result&)+0x44>
 8007492:	782a      	ldrb	r2, [r5, #0]
 8007494:	4933      	ldr	r1, [pc, #204]	; (8007564 <FlashCode::Write(unsigned long, unsigned long, unsigned char const*, flashcode::result&)+0x138>)
 8007496:	4b37      	ldr	r3, [pc, #220]	; (8007574 <FlashCode::Write(unsigned long, unsigned long, unsigned char const*, flashcode::result&)+0x148>)
 8007498:	b95a      	cbnz	r2, 80074b2 <FlashCode::Write(unsigned long, unsigned long, unsigned char const*, flashcode::result&)+0x86>
 800749a:	6d1a      	ldr	r2, [r3, #80]	; 0x50
 800749c:	f022 0201 	bic.w	r2, r2, #1
 80074a0:	651a      	str	r2, [r3, #80]	; 0x50
 80074a2:	680b      	ldr	r3, [r1, #0]
 80074a4:	b98b      	cbnz	r3, 80074ca <FlashCode::Write(unsigned long, unsigned long, unsigned char const*, flashcode::result&)+0x9e>
 80074a6:	f001 f975 	bl	8008794 <fmc_bank1_lock>
 80074aa:	e00a      	b.n	80074c2 <FlashCode::Write(unsigned long, unsigned long, unsigned char const*, flashcode::result&)+0x96>
 80074ac:	f001 f98c 	bl	80087c8 <fmc_bank1_state_get>
 80074b0:	e7ed      	b.n	800748e <FlashCode::Write(unsigned long, unsigned long, unsigned char const*, flashcode::result&)+0x62>
 80074b2:	691a      	ldr	r2, [r3, #16]
 80074b4:	f022 0201 	bic.w	r2, r2, #1
 80074b8:	611a      	str	r2, [r3, #16]
 80074ba:	680b      	ldr	r3, [r1, #0]
 80074bc:	b92b      	cbnz	r3, 80074ca <FlashCode::Write(unsigned long, unsigned long, unsigned char const*, flashcode::result&)+0x9e>
 80074be:	f001 f961 	bl	8008784 <fmc_bank0_lock>
 80074c2:	2300      	movs	r3, #0
 80074c4:	6023      	str	r3, [r4, #0]
 80074c6:	2001      	movs	r0, #1
 80074c8:	bd70      	pop	{r4, r5, r6, pc}
 80074ca:	2304      	movs	r3, #4
 80074cc:	e7cf      	b.n	800746e <FlashCode::Write(unsigned long, unsigned long, unsigned char const*, flashcode::result&)+0x42>
 80074ce:	4a25      	ldr	r2, [pc, #148]	; (8007564 <FlashCode::Write(unsigned long, unsigned long, unsigned char const*, flashcode::result&)+0x138>)
 80074d0:	6813      	ldr	r3, [r2, #0]
 80074d2:	2b03      	cmp	r3, #3
 80074d4:	d91a      	bls.n	800750c <FlashCode::Write(unsigned long, unsigned long, unsigned char const*, flashcode::result&)+0xe0>
 80074d6:	4b25      	ldr	r3, [pc, #148]	; (800756c <FlashCode::Write(unsigned long, unsigned long, unsigned char const*, flashcode::result&)+0x140>)
 80074d8:	7819      	ldrb	r1, [r3, #0]
 80074da:	4b26      	ldr	r3, [pc, #152]	; (8007574 <FlashCode::Write(unsigned long, unsigned long, unsigned char const*, flashcode::result&)+0x148>)
 80074dc:	b189      	cbz	r1, 8007502 <FlashCode::Write(unsigned long, unsigned long, unsigned char const*, flashcode::result&)+0xd6>
 80074de:	6919      	ldr	r1, [r3, #16]
 80074e0:	f041 0101 	orr.w	r1, r1, #1
 80074e4:	6119      	str	r1, [r3, #16]
 80074e6:	4d1e      	ldr	r5, [pc, #120]	; (8007560 <FlashCode::Write(unsigned long, unsigned long, unsigned char const*, flashcode::result&)+0x134>)
 80074e8:	481c      	ldr	r0, [pc, #112]	; (800755c <FlashCode::Write(unsigned long, unsigned long, unsigned char const*, flashcode::result&)+0x130>)
 80074ea:	6829      	ldr	r1, [r5, #0]
 80074ec:	6803      	ldr	r3, [r0, #0]
 80074ee:	f851 6b04 	ldr.w	r6, [r1], #4
 80074f2:	f843 6b04 	str.w	r6, [r3], #4
 80074f6:	6003      	str	r3, [r0, #0]
 80074f8:	6813      	ldr	r3, [r2, #0]
 80074fa:	6029      	str	r1, [r5, #0]
 80074fc:	3b04      	subs	r3, #4
 80074fe:	6013      	str	r3, [r2, #0]
 8007500:	e7b4      	b.n	800746c <FlashCode::Write(unsigned long, unsigned long, unsigned char const*, flashcode::result&)+0x40>
 8007502:	6d19      	ldr	r1, [r3, #80]	; 0x50
 8007504:	f041 0101 	orr.w	r1, r1, #1
 8007508:	6519      	str	r1, [r3, #80]	; 0x50
 800750a:	e7ec      	b.n	80074e6 <FlashCode::Write(unsigned long, unsigned long, unsigned char const*, flashcode::result&)+0xba>
 800750c:	2b00      	cmp	r3, #0
 800750e:	d0ad      	beq.n	800746c <FlashCode::Write(unsigned long, unsigned long, unsigned char const*, flashcode::result&)+0x40>
 8007510:	4b16      	ldr	r3, [pc, #88]	; (800756c <FlashCode::Write(unsigned long, unsigned long, unsigned char const*, flashcode::result&)+0x140>)
 8007512:	781a      	ldrb	r2, [r3, #0]
 8007514:	4b17      	ldr	r3, [pc, #92]	; (8007574 <FlashCode::Write(unsigned long, unsigned long, unsigned char const*, flashcode::result&)+0x148>)
 8007516:	b152      	cbz	r2, 800752e <FlashCode::Write(unsigned long, unsigned long, unsigned char const*, flashcode::result&)+0x102>
 8007518:	691a      	ldr	r2, [r3, #16]
 800751a:	f042 0201 	orr.w	r2, r2, #1
 800751e:	611a      	str	r2, [r3, #16]
 8007520:	4a0f      	ldr	r2, [pc, #60]	; (8007560 <FlashCode::Write(unsigned long, unsigned long, unsigned char const*, flashcode::result&)+0x134>)
 8007522:	4b0e      	ldr	r3, [pc, #56]	; (800755c <FlashCode::Write(unsigned long, unsigned long, unsigned char const*, flashcode::result&)+0x130>)
 8007524:	6812      	ldr	r2, [r2, #0]
 8007526:	681b      	ldr	r3, [r3, #0]
 8007528:	6812      	ldr	r2, [r2, #0]
 800752a:	601a      	str	r2, [r3, #0]
 800752c:	e79e      	b.n	800746c <FlashCode::Write(unsigned long, unsigned long, unsigned char const*, flashcode::result&)+0x40>
 800752e:	6d1a      	ldr	r2, [r3, #80]	; 0x50
 8007530:	f042 0201 	orr.w	r2, r2, #1
 8007534:	651a      	str	r2, [r3, #80]	; 0x50
 8007536:	e7f3      	b.n	8007520 <FlashCode::Write(unsigned long, unsigned long, unsigned char const*, flashcode::result&)+0xf4>
 8007538:	4b0c      	ldr	r3, [pc, #48]	; (800756c <FlashCode::Write(unsigned long, unsigned long, unsigned char const*, flashcode::result&)+0x140>)
 800753a:	781a      	ldrb	r2, [r3, #0]
 800753c:	4b0d      	ldr	r3, [pc, #52]	; (8007574 <FlashCode::Write(unsigned long, unsigned long, unsigned char const*, flashcode::result&)+0x148>)
 800753e:	b12a      	cbz	r2, 800754c <FlashCode::Write(unsigned long, unsigned long, unsigned char const*, flashcode::result&)+0x120>
 8007540:	691a      	ldr	r2, [r3, #16]
 8007542:	f022 0202 	bic.w	r2, r2, #2
 8007546:	611a      	str	r2, [r3, #16]
 8007548:	2300      	movs	r3, #0
 800754a:	e790      	b.n	800746e <FlashCode::Write(unsigned long, unsigned long, unsigned char const*, flashcode::result&)+0x42>
 800754c:	6d1a      	ldr	r2, [r3, #80]	; 0x50
 800754e:	f022 0202 	bic.w	r2, r2, #2
 8007552:	651a      	str	r2, [r3, #80]	; 0x50
 8007554:	e7f8      	b.n	8007548 <FlashCode::Write(unsigned long, unsigned long, unsigned char const*, flashcode::result&)+0x11c>
 8007556:	bf00      	nop
 8007558:	20002668 	andcs	r2, r0, r8, ror #12
 800755c:	2000265c 	andcs	r2, r0, ip, asr r6
 8007560:	20002658 	andcs	r2, r0, r8, asr r6
 8007564:	20002660 	andcs	r2, r0, r0, ror #12
 8007568:	1ffff700 	svcne	0x00fff700
 800756c:	20002654 	andcs	r2, r0, r4, asr r6
 8007570:	0807ffff 	stmdaeq	r7, {r0, r1, r2, r3, r4, r5, r6, r7, r8, r9, sl, fp, ip, sp, lr, pc}
 8007574:	40022000 	andmi	r2, r2, r0

08007578 <Display::PrintInfo() [clone .isra.0]>:
 8007578:	b910      	cbnz	r0, 8007580 <Display::PrintInfo() [clone .isra.0]+0x8>
 800757a:	4803      	ldr	r0, [pc, #12]	; (8007588 <Display::PrintInfo() [clone .isra.0]+0x10>)
 800757c:	f7fa bb28 	b.w	8001bd0 <puts>
 8007580:	6803      	ldr	r3, [r0, #0]
 8007582:	6b5b      	ldr	r3, [r3, #52]	; 0x34
 8007584:	4718      	bx	r3
 8007586:	bf00      	nop
 8007588:	0800b90e 	stmdaeq	r0, {r1, r2, r3, r8, fp, ip, sp, pc}

0800758c <HAL_I2C::IsConnected_(unsigned char, unsigned long)>:
 800758c:	b537      	push	{r0, r1, r2, r4, r5, lr}
 800758e:	460d      	mov	r5, r1
 8007590:	4604      	mov	r4, r0
 8007592:	f001 fe1b 	bl	80091cc <gd32_i2c_set_address>
 8007596:	4628      	mov	r0, r5
 8007598:	f001 fe10 	bl	80091bc <gd32_i2c_set_baudrate>
 800759c:	f1a4 0330 	sub.w	r3, r4, #48	; 0x30
 80075a0:	2b07      	cmp	r3, #7
 80075a2:	d902      	bls.n	80075aa <HAL_I2C::IsConnected_(unsigned char, unsigned long)+0x1e>
 80075a4:	3c50      	subs	r4, #80	; 0x50
 80075a6:	2c0f      	cmp	r4, #15
 80075a8:	d809      	bhi.n	80075be <HAL_I2C::IsConnected_(unsigned char, unsigned long)+0x32>
 80075aa:	2101      	movs	r1, #1
 80075ac:	f10d 0007 	add.w	r0, sp, #7
 80075b0:	f001 fe78 	bl	80092a4 <gd32_i2c_read>
 80075b4:	fab0 f080 	clz	r0, r0
 80075b8:	0940      	lsrs	r0, r0, #5
 80075ba:	b003      	add	sp, #12
 80075bc:	bd30      	pop	{r4, r5, pc}
 80075be:	2100      	movs	r1, #0
 80075c0:	4608      	mov	r0, r1
 80075c2:	f001 fe09 	bl	80091d8 <gd32_i2c_write>
 80075c6:	e7f5      	b.n	80075b4 <HAL_I2C::IsConnected_(unsigned char, unsigned long)+0x28>

080075c8 <Display::Detect7Segment()>:
 80075c8:	b538      	push	{r3, r4, r5, lr}
 80075ca:	68c1      	ldr	r1, [r0, #12]
 80075cc:	4604      	mov	r4, r0
 80075ce:	7a00      	ldrb	r0, [r0, #8]
 80075d0:	f7ff ffdc 	bl	800758c <HAL_I2C::IsConnected_(unsigned char, unsigned long)>
 80075d4:	7460      	strb	r0, [r4, #17]
 80075d6:	b170      	cbz	r0, 80075f6 <Display::Detect7Segment()+0x2e>
 80075d8:	2200      	movs	r2, #0
 80075da:	f104 0508 	add.w	r5, r4, #8
 80075de:	4611      	mov	r1, r2
 80075e0:	4628      	mov	r0, r5
 80075e2:	f7fa ff8b 	bl	80024fc <HAL_I2C::WriteRegister(unsigned char, unsigned short)>
 80075e6:	7c63      	ldrb	r3, [r4, #17]
 80075e8:	b12b      	cbz	r3, 80075f6 <Display::Detect7Segment()+0x2e>
 80075ea:	f24c 02ff 	movw	r2, #49407	; 0xc0ff
 80075ee:	2112      	movs	r1, #18
 80075f0:	4628      	mov	r0, r5
 80075f2:	f7fa ff83 	bl	80024fc <HAL_I2C::WriteRegister(unsigned char, unsigned short)>
 80075f6:	bd38      	pop	{r3, r4, r5, pc}

080075f8 <Display::Detect(display::Type)>:
 80075f8:	2902      	cmp	r1, #2
 80075fa:	b538      	push	{r3, r4, r5, lr}
 80075fc:	4604      	mov	r4, r0
 80075fe:	d014      	beq.n	800762a <Display::Detect(display::Type)+0x32>
 8007600:	2904      	cmp	r1, #4
 8007602:	d01b      	beq.n	800763c <Display::Detect(display::Type)+0x44>
 8007604:	69e0      	ldr	r0, [r4, #28]
 8007606:	b168      	cbz	r0, 8007624 <Display::Detect(display::Type)+0x2c>
 8007608:	6803      	ldr	r3, [r0, #0]
 800760a:	689b      	ldr	r3, [r3, #8]
 800760c:	4798      	blx	r3
 800760e:	4603      	mov	r3, r0
 8007610:	69e0      	ldr	r0, [r4, #28]
 8007612:	b9ab      	cbnz	r3, 8007640 <Display::Detect(display::Type)+0x48>
 8007614:	b110      	cbz	r0, 800761c <Display::Detect(display::Type)+0x24>
 8007616:	6803      	ldr	r3, [r0, #0]
 8007618:	685b      	ldr	r3, [r3, #4]
 800761a:	4798      	blx	r3
 800761c:	2300      	movs	r3, #0
 800761e:	61e3      	str	r3, [r4, #28]
 8007620:	2304      	movs	r3, #4
 8007622:	6023      	str	r3, [r4, #0]
 8007624:	2300      	movs	r3, #0
 8007626:	6163      	str	r3, [r4, #20]
 8007628:	e010      	b.n	800764c <Display::Detect(display::Type)+0x54>
 800762a:	2028      	movs	r0, #40	; 0x28
 800762c:	f000 fd07 	bl	800803e <operator new(unsigned int)>
 8007630:	2100      	movs	r1, #0
 8007632:	4605      	mov	r5, r0
 8007634:	f000 f8d8 	bl	80077e8 <Ssd1306::Ssd1306(TOledPanel)>
 8007638:	61e5      	str	r5, [r4, #28]
 800763a:	e7e3      	b.n	8007604 <Display::Detect(display::Type)+0xc>
 800763c:	6001      	str	r1, [r0, #0]
 800763e:	e7e1      	b.n	8007604 <Display::Detect(display::Type)+0xc>
 8007640:	6803      	ldr	r3, [r0, #0]
 8007642:	68db      	ldr	r3, [r3, #12]
 8007644:	4798      	blx	r3
 8007646:	69e3      	ldr	r3, [r4, #28]
 8007648:	2b00      	cmp	r3, #0
 800764a:	d0eb      	beq.n	8007624 <Display::Detect(display::Type)+0x2c>
 800764c:	bd38      	pop	{r3, r4, r5, pc}
	...

08007650 <Display::Display()>:
 8007650:	2304      	movs	r3, #4
 8007652:	b510      	push	{r4, lr}
 8007654:	6003      	str	r3, [r0, #0]
 8007656:	4b10      	ldr	r3, [pc, #64]	; (8007698 <Display::Display()+0x48>)
 8007658:	4a10      	ldr	r2, [pc, #64]	; (800769c <Display::Display()+0x4c>)
 800765a:	681b      	ldr	r3, [r3, #0]
 800765c:	6043      	str	r3, [r0, #4]
 800765e:	2321      	movs	r3, #33	; 0x21
 8007660:	7203      	strb	r3, [r0, #8]
 8007662:	4b0f      	ldr	r3, [pc, #60]	; (80076a0 <Display::Display()+0x50>)
 8007664:	60c3      	str	r3, [r0, #12]
 8007666:	2300      	movs	r3, #0
 8007668:	8203      	strh	r3, [r0, #16]
 800766a:	6142      	str	r2, [r0, #20]
 800766c:	61c3      	str	r3, [r0, #28]
 800766e:	227f      	movs	r2, #127	; 0x7f
 8007670:	4b0c      	ldr	r3, [pc, #48]	; (80076a4 <Display::Display()+0x54>)
 8007672:	8302      	strh	r2, [r0, #24]
 8007674:	4604      	mov	r4, r0
 8007676:	2102      	movs	r1, #2
 8007678:	6018      	str	r0, [r3, #0]
 800767a:	f7ff ffbd 	bl	80075f8 <Display::Detect(display::Type)>
 800767e:	4620      	mov	r0, r4
 8007680:	f7ff ffa2 	bl	80075c8 <Display::Detect7Segment()>
 8007684:	69e3      	ldr	r3, [r4, #28]
 8007686:	b10b      	cbz	r3, 800768c <Display::Display()+0x3c>
 8007688:	f7f9 faaa 	bl	8000be0 <display::timeout::gpio_init()>
 800768c:	69e0      	ldr	r0, [r4, #28]
 800768e:	f7ff ff73 	bl	8007578 <Display::PrintInfo() [clone .isra.0]>
 8007692:	4620      	mov	r0, r4
 8007694:	bd10      	pop	{r4, pc}
 8007696:	bf00      	nop
 8007698:	20008794 	mulcs	r0, r4, r7
 800769c:	000493e0 	andeq	r9, r4, r0, ror #7
 80076a0:	00061a80 	andeq	r1, r6, r0, lsl #21
 80076a4:	2000266c 	andcs	r2, r0, ip, ror #12

080076a8 <Ssd1306::~Ssd1306()>:
 80076a8:	4770      	bx	lr

080076aa <Ssd1306::SetCursor(unsigned long)>:
 80076aa:	4770      	bx	lr

080076ac <Ssd1306::PrintInfo()>:
 80076ac:	b410      	push	{r4}
 80076ae:	e9d0 3201 	ldrd	r3, r2, [r0, #4]
 80076b2:	7e44      	ldrb	r4, [r0, #25]
 80076b4:	4904      	ldr	r1, [pc, #16]	; (80076c8 <Ssd1306::PrintInfo()+0x1c>)
 80076b6:	4805      	ldr	r0, [pc, #20]	; (80076cc <Ssd1306::PrintInfo()+0x20>)
 80076b8:	2c00      	cmp	r4, #0
 80076ba:	bf18      	it	ne
 80076bc:	4601      	movne	r1, r0
 80076be:	4804      	ldr	r0, [pc, #16]	; (80076d0 <Ssd1306::PrintInfo()+0x24>)
 80076c0:	f85d 4b04 	ldr.w	r4, [sp], #4
 80076c4:	f7fa ba4c 	b.w	8001b60 <printf>
 80076c8:	0800b926 	stmdaeq	r0, {r1, r2, r5, r8, fp, ip, sp, pc}
 80076cc:	0800b91f 	stmdaeq	r0, {r0, r1, r2, r3, r4, r8, fp, ip, sp, pc}
 80076d0:	0800b92e 	stmdaeq	r0, {r1, r2, r3, r5, r8, fp, ip, sp, pc}

080076d4 <Ssd1306::~Ssd1306()>:
 80076d4:	b510      	push	{r4, lr}
 80076d6:	2128      	movs	r1, #40	; 0x28
 80076d8:	4604      	mov	r4, r0
 80076da:	f000 fcae 	bl	800803a <operator delete(void*, unsigned int)>
 80076de:	4620      	mov	r0, r4
 80076e0:	bd10      	pop	{r4, pc}

080076e2 <HAL_I2C::Setup()>:
 80076e2:	b510      	push	{r4, lr}
 80076e4:	4604      	mov	r4, r0
 80076e6:	7800      	ldrb	r0, [r0, #0]
 80076e8:	f001 fd70 	bl	80091cc <gd32_i2c_set_address>
 80076ec:	6860      	ldr	r0, [r4, #4]
 80076ee:	e8bd 4010 	ldmia.w	sp!, {r4, lr}
 80076f2:	f001 bd63 	b.w	80091bc <gd32_i2c_set_baudrate>
	...

080076f8 <Ssd1306::PutChar(int)>:
 80076f8:	b538      	push	{r3, r4, r5, lr}
 80076fa:	e9d0 2308 	ldrd	r2, r3, [r0, #32]
 80076fe:	f1a1 0420 	sub.w	r4, r1, #32
 8007702:	2c5f      	cmp	r4, #95	; 0x5f
 8007704:	bf88      	it	hi
 8007706:	2120      	movhi	r1, #32
 8007708:	f103 0501 	add.w	r5, r3, #1
 800770c:	6245      	str	r5, [r0, #36]	; 0x24
 800770e:	54d1      	strb	r1, [r2, r3]
 8007710:	f100 0010 	add.w	r0, r0, #16
 8007714:	bf88      	it	hi
 8007716:	2400      	movhi	r4, #0
 8007718:	f7ff ffe3 	bl	80076e2 <HAL_I2C::Setup()>
 800771c:	4804      	ldr	r0, [pc, #16]	; (8007730 <Ssd1306::PutChar(int)+0x38>)
 800771e:	ebc4 04c4 	rsb	r4, r4, r4, lsl #3
 8007722:	4420      	add	r0, r4
 8007724:	2107      	movs	r1, #7
 8007726:	e8bd 4038 	ldmia.w	sp!, {r3, r4, r5, lr}
 800772a:	f001 bd55 	b.w	80091d8 <gd32_i2c_write>
 800772e:	bf00      	nop
 8007730:	0800b9b0 	stmdaeq	r0, {r4, r5, r7, r8, fp, ip, sp, pc}

08007734 <Ssd1306::PutString(char const*)>:
 8007734:	b5f8      	push	{r3, r4, r5, r6, r7, lr}
 8007736:	4604      	mov	r4, r0
 8007738:	460e      	mov	r6, r1
 800773a:	460f      	mov	r7, r1
 800773c:	463d      	mov	r5, r7
 800773e:	f817 1b01 	ldrb.w	r1, [r7], #1
 8007742:	b939      	cbnz	r1, 8007754 <Ssd1306::PutString(char const*)+0x20>
 8007744:	7b23      	ldrb	r3, [r4, #12]
 8007746:	b123      	cbz	r3, 8007752 <Ssd1306::PutString(char const*)+0x1e>
 8007748:	7321      	strb	r1, [r4, #12]
 800774a:	1bad      	subs	r5, r5, r6
 800774c:	6863      	ldr	r3, [r4, #4]
 800774e:	42ab      	cmp	r3, r5
 8007750:	d804      	bhi.n	800775c <Ssd1306::PutString(char const*)+0x28>
 8007752:	bdf8      	pop	{r3, r4, r5, r6, r7, pc}
 8007754:	4620      	mov	r0, r4
 8007756:	f7ff ffcf 	bl	80076f8 <Ssd1306::PutChar(int)>
 800775a:	e7ef      	b.n	800773c <Ssd1306::PutString(char const*)+0x8>
 800775c:	2120      	movs	r1, #32
 800775e:	4620      	mov	r0, r4
 8007760:	f7ff ffca 	bl	80076f8 <Ssd1306::PutChar(int)>
 8007764:	3501      	adds	r5, #1
 8007766:	e7f1      	b.n	800774c <Ssd1306::PutString(char const*)+0x18>

08007768 <Ssd1306::Text(char const*, unsigned long)>:
 8007768:	b5f8      	push	{r3, r4, r5, r6, r7, lr}
 800776a:	6843      	ldr	r3, [r0, #4]
 800776c:	429a      	cmp	r2, r3
 800776e:	bf28      	it	cs
 8007770:	461a      	movcs	r2, r3
 8007772:	4604      	mov	r4, r0
 8007774:	4615      	mov	r5, r2
 8007776:	460e      	mov	r6, r1
 8007778:	188f      	adds	r7, r1, r2
 800777a:	42be      	cmp	r6, r7
 800777c:	d107      	bne.n	800778e <Ssd1306::Text(char const*, unsigned long)+0x26>
 800777e:	7b23      	ldrb	r3, [r4, #12]
 8007780:	b123      	cbz	r3, 800778c <Ssd1306::Text(char const*, unsigned long)+0x24>
 8007782:	2300      	movs	r3, #0
 8007784:	7323      	strb	r3, [r4, #12]
 8007786:	6863      	ldr	r3, [r4, #4]
 8007788:	42ab      	cmp	r3, r5
 800778a:	d806      	bhi.n	800779a <Ssd1306::Text(char const*, unsigned long)+0x32>
 800778c:	bdf8      	pop	{r3, r4, r5, r6, r7, pc}
 800778e:	f816 1b01 	ldrb.w	r1, [r6], #1
 8007792:	4620      	mov	r0, r4
 8007794:	f7ff ffb0 	bl	80076f8 <Ssd1306::PutChar(int)>
 8007798:	e7ef      	b.n	800777a <Ssd1306::Text(char const*, unsigned long)+0x12>
 800779a:	2120      	movs	r1, #32
 800779c:	4620      	mov	r0, r4
 800779e:	f7ff ffab 	bl	80076f8 <Ssd1306::PutChar(int)>
 80077a2:	3501      	adds	r5, #1
 80077a4:	e7ef      	b.n	8007786 <Ssd1306::Text(char const*, unsigned long)+0x1e>

080077a6 <Ssd1306::InitMembers()>:
 80077a6:	b538      	push	{r3, r4, r5, lr}
 80077a8:	2315      	movs	r3, #21
 80077aa:	6043      	str	r3, [r0, #4]
 80077ac:	7e03      	ldrb	r3, [r0, #24]
 80077ae:	4604      	mov	r4, r0
 80077b0:	b12b      	cbz	r3, 80077be <Ssd1306::InitMembers()+0x18>
 80077b2:	3b01      	subs	r3, #1
 80077b4:	2b01      	cmp	r3, #1
 80077b6:	d812      	bhi.n	80077de <Ssd1306::InitMembers()+0x38>
 80077b8:	2004      	movs	r0, #4
 80077ba:	2304      	movs	r3, #4
 80077bc:	e001      	b.n	80077c2 <Ssd1306::InitMembers()+0x1c>
 80077be:	2008      	movs	r0, #8
 80077c0:	4603      	mov	r3, r0
 80077c2:	2515      	movs	r5, #21
 80077c4:	60a0      	str	r0, [r4, #8]
 80077c6:	61e3      	str	r3, [r4, #28]
 80077c8:	4368      	muls	r0, r5
 80077ca:	f000 fc3a 	bl	8008042 <operator new[](unsigned int)>
 80077ce:	68a3      	ldr	r3, [r4, #8]
 80077d0:	6220      	str	r0, [r4, #32]
 80077d2:	fb05 0303 	mla	r3, r5, r3, r0
 80077d6:	2220      	movs	r2, #32
 80077d8:	4298      	cmp	r0, r3
 80077da:	d102      	bne.n	80077e2 <Ssd1306::InitMembers()+0x3c>
 80077dc:	bd38      	pop	{r3, r4, r5, pc}
 80077de:	2008      	movs	r0, #8
 80077e0:	e7eb      	b.n	80077ba <Ssd1306::InitMembers()+0x14>
 80077e2:	f800 2b01 	strb.w	r2, [r0], #1
 80077e6:	e7f7      	b.n	80077d8 <Ssd1306::InitMembers()+0x32>

080077e8 <Ssd1306::Ssd1306(TOledPanel)>:
 80077e8:	b510      	push	{r4, lr}
 80077ea:	4a09      	ldr	r2, [pc, #36]	; (8007810 <Ssd1306::Ssd1306(TOledPanel)+0x28>)
 80077ec:	6002      	str	r2, [r0, #0]
 80077ee:	2300      	movs	r3, #0
 80077f0:	223c      	movs	r2, #60	; 0x3c
 80077f2:	e9c0 3308 	strd	r3, r3, [r0, #32]
 80077f6:	7303      	strb	r3, [r0, #12]
 80077f8:	7402      	strb	r2, [r0, #16]
 80077fa:	7643      	strb	r3, [r0, #25]
 80077fc:	4a05      	ldr	r2, [pc, #20]	; (8007814 <Ssd1306::Ssd1306(TOledPanel)+0x2c>)
 80077fe:	4b06      	ldr	r3, [pc, #24]	; (8007818 <Ssd1306::Ssd1306(TOledPanel)+0x30>)
 8007800:	6142      	str	r2, [r0, #20]
 8007802:	4604      	mov	r4, r0
 8007804:	7601      	strb	r1, [r0, #24]
 8007806:	6018      	str	r0, [r3, #0]
 8007808:	f7ff ffcd 	bl	80077a6 <Ssd1306::InitMembers()>
 800780c:	4620      	mov	r0, r4
 800780e:	bd10      	pop	{r4, pc}
 8007810:	0800b948 	stmdaeq	r0, {r3, r6, r8, fp, ip, sp, pc}
 8007814:	00061a80 	andeq	r1, r6, r0, lsl #21
 8007818:	20002670 	andcs	r2, r0, r0, ror r6

0800781c <Ssd1306::SendCommand(unsigned char)>:
 800781c:	b507      	push	{r0, r1, r2, lr}
 800781e:	2300      	movs	r3, #0
 8007820:	3010      	adds	r0, #16
 8007822:	f88d 3004 	strb.w	r3, [sp, #4]
 8007826:	f88d 1005 	strb.w	r1, [sp, #5]
 800782a:	f7ff ff5a 	bl	80076e2 <HAL_I2C::Setup()>
 800782e:	2102      	movs	r1, #2
 8007830:	a801      	add	r0, sp, #4
 8007832:	f001 fcd1 	bl	80091d8 <gd32_i2c_write>
 8007836:	b003      	add	sp, #12
 8007838:	f85d fb04 	ldr.w	pc, [sp], #4

0800783c <Ssd1306::SetCursorPos(unsigned long, unsigned long)>:
 800783c:	2914      	cmp	r1, #20
 800783e:	b570      	push	{r4, r5, r6, lr}
 8007840:	4606      	mov	r6, r0
 8007842:	4615      	mov	r5, r2
 8007844:	d825      	bhi.n	8007892 <Ssd1306::SetCursorPos(unsigned long, unsigned long)+0x56>
 8007846:	6883      	ldr	r3, [r0, #8]
 8007848:	4293      	cmp	r3, r2
 800784a:	d922      	bls.n	8007892 <Ssd1306::SetCursorPos(unsigned long, unsigned long)+0x56>
 800784c:	eb01 0141 	add.w	r1, r1, r1, lsl #1
 8007850:	7e43      	ldrb	r3, [r0, #25]
 8007852:	004c      	lsls	r4, r1, #1
 8007854:	b2e4      	uxtb	r4, r4
 8007856:	b10b      	cbz	r3, 800785c <Ssd1306::SetCursorPos(unsigned long, unsigned long)+0x20>
 8007858:	3404      	adds	r4, #4
 800785a:	b2e4      	uxtb	r4, r4
 800785c:	f004 010e 	and.w	r1, r4, #14
 8007860:	4630      	mov	r0, r6
 8007862:	f7ff ffdb 	bl	800781c <Ssd1306::SendCommand(unsigned char)>
 8007866:	0921      	lsrs	r1, r4, #4
 8007868:	f041 0110 	orr.w	r1, r1, #16
 800786c:	4630      	mov	r0, r6
 800786e:	f7ff ffd5 	bl	800781c <Ssd1306::SendCommand(unsigned char)>
 8007872:	f065 014f 	orn	r1, r5, #79	; 0x4f
 8007876:	eb05 0545 	add.w	r5, r5, r5, lsl #1
 800787a:	b2c9      	uxtb	r1, r1
 800787c:	4630      	mov	r0, r6
 800787e:	ebc5 05c5 	rsb	r5, r5, r5, lsl #3
 8007882:	f7ff ffcb 	bl	800781c <Ssd1306::SendCommand(unsigned char)>
 8007886:	2306      	movs	r3, #6
 8007888:	fbb4 f4f3 	udiv	r4, r4, r3
 800788c:	4425      	add	r5, r4
 800788e:	b2ad      	uxth	r5, r5
 8007890:	6275      	str	r5, [r6, #36]	; 0x24
 8007892:	bd70      	pop	{r4, r5, r6, pc}

08007894 <Ssd1306::TextLine(unsigned long, char const*, unsigned long)>:
 8007894:	b570      	push	{r4, r5, r6, lr}
 8007896:	461e      	mov	r6, r3
 8007898:	6883      	ldr	r3, [r0, #8]
 800789a:	428b      	cmp	r3, r1
 800789c:	4604      	mov	r4, r0
 800789e:	4615      	mov	r5, r2
 80078a0:	d30b      	bcc.n	80078ba <Ssd1306::TextLine(unsigned long, char const*, unsigned long)+0x26>
 80078a2:	3901      	subs	r1, #1
 80078a4:	b2ca      	uxtb	r2, r1
 80078a6:	2100      	movs	r1, #0
 80078a8:	f7ff ffc8 	bl	800783c <Ssd1306::SetCursorPos(unsigned long, unsigned long)>
 80078ac:	4632      	mov	r2, r6
 80078ae:	4629      	mov	r1, r5
 80078b0:	4620      	mov	r0, r4
 80078b2:	e8bd 4070 	ldmia.w	sp!, {r4, r5, r6, lr}
 80078b6:	f7ff bf57 	b.w	8007768 <Ssd1306::Text(char const*, unsigned long)>
 80078ba:	bd70      	pop	{r4, r5, r6, pc}

080078bc <Ssd1306::ClearLine(unsigned long)>:
 80078bc:	b538      	push	{r3, r4, r5, lr}
 80078be:	6883      	ldr	r3, [r0, #8]
 80078c0:	428b      	cmp	r3, r1
 80078c2:	4605      	mov	r5, r0
 80078c4:	d31c      	bcc.n	8007900 <Ssd1306::ClearLine(unsigned long)+0x44>
 80078c6:	3901      	subs	r1, #1
 80078c8:	b2cc      	uxtb	r4, r1
 80078ca:	4622      	mov	r2, r4
 80078cc:	2100      	movs	r1, #0
 80078ce:	f7ff ffb5 	bl	800783c <Ssd1306::SetCursorPos(unsigned long, unsigned long)>
 80078d2:	f105 0010 	add.w	r0, r5, #16
 80078d6:	f7ff ff04 	bl	80076e2 <HAL_I2C::Setup()>
 80078da:	2181      	movs	r1, #129	; 0x81
 80078dc:	4809      	ldr	r0, [pc, #36]	; (8007904 <Ssd1306::ClearLine(unsigned long)+0x48>)
 80078de:	f001 fc7b 	bl	80091d8 <gd32_i2c_write>
 80078e2:	4622      	mov	r2, r4
 80078e4:	2100      	movs	r1, #0
 80078e6:	4628      	mov	r0, r5
 80078e8:	f7ff ffa8 	bl	800783c <Ssd1306::SetCursorPos(unsigned long, unsigned long)>
 80078ec:	e9d5 3208 	ldrd	r3, r2, [r5, #32]
 80078f0:	4413      	add	r3, r2
 80078f2:	f103 0215 	add.w	r2, r3, #21
 80078f6:	2120      	movs	r1, #32
 80078f8:	f803 1b01 	strb.w	r1, [r3], #1
 80078fc:	4293      	cmp	r3, r2
 80078fe:	d1fb      	bne.n	80078f8 <Ssd1306::ClearLine(unsigned long)+0x3c>
 8007900:	bd38      	pop	{r3, r4, r5, pc}
 8007902:	bf00      	nop
 8007904:	20002674 	andcs	r2, r0, r4, ror r6

08007908 <Ssd1306::SetSleep(bool)>:
 8007908:	b111      	cbz	r1, 8007910 <Ssd1306::SetSleep(bool)+0x8>
 800790a:	21ae      	movs	r1, #174	; 0xae
 800790c:	f7ff bf86 	b.w	800781c <Ssd1306::SendCommand(unsigned char)>
 8007910:	21af      	movs	r1, #175	; 0xaf
 8007912:	e7fb      	b.n	800790c <Ssd1306::SetSleep(bool)+0x4>

08007914 <Ssd1306::SetContrast(unsigned char)>:
 8007914:	b538      	push	{r3, r4, r5, lr}
 8007916:	4604      	mov	r4, r0
 8007918:	460d      	mov	r5, r1
 800791a:	2181      	movs	r1, #129	; 0x81
 800791c:	f7ff ff7e 	bl	800781c <Ssd1306::SendCommand(unsigned char)>
 8007920:	4629      	mov	r1, r5
 8007922:	4620      	mov	r0, r4
 8007924:	e8bd 4038 	ldmia.w	sp!, {r3, r4, r5, lr}
 8007928:	f7ff bf78 	b.w	800781c <Ssd1306::SendCommand(unsigned char)>

0800792c <Ssd1306::CheckSH1106()>:
 800792c:	b530      	push	{r4, r5, lr}
 800792e:	2100      	movs	r1, #0
 8007930:	b087      	sub	sp, #28
 8007932:	4604      	mov	r4, r0
 8007934:	f7ff ff72 	bl	800781c <Ssd1306::SendCommand(unsigned char)>
 8007938:	2190      	movs	r1, #144	; 0x90
 800793a:	4620      	mov	r0, r4
 800793c:	f7ff ff6e 	bl	800781c <Ssd1306::SendCommand(unsigned char)>
 8007940:	21b0      	movs	r1, #176	; 0xb0
 8007942:	4620      	mov	r0, r4
 8007944:	f7ff ff6a 	bl	800781c <Ssd1306::SendCommand(unsigned char)>
 8007948:	4b21      	ldr	r3, [pc, #132]	; (80079d0 <Ssd1306::CheckSH1106()+0xa4>)
 800794a:	f104 0510 	add.w	r5, r4, #16
 800794e:	6818      	ldr	r0, [r3, #0]
 8007950:	9002      	str	r0, [sp, #8]
 8007952:	791b      	ldrb	r3, [r3, #4]
 8007954:	f88d 300c 	strb.w	r3, [sp, #12]
 8007958:	4628      	mov	r0, r5
 800795a:	f7ff fec2 	bl	80076e2 <HAL_I2C::Setup()>
 800795e:	2105      	movs	r1, #5
 8007960:	a802      	add	r0, sp, #8
 8007962:	f001 fc39 	bl	80091d8 <gd32_i2c_write>
 8007966:	2100      	movs	r1, #0
 8007968:	4620      	mov	r0, r4
 800796a:	f7ff ff57 	bl	800781c <Ssd1306::SendCommand(unsigned char)>
 800796e:	2190      	movs	r1, #144	; 0x90
 8007970:	4620      	mov	r0, r4
 8007972:	f7ff ff53 	bl	800781c <Ssd1306::SendCommand(unsigned char)>
 8007976:	21b0      	movs	r1, #176	; 0xb0
 8007978:	4620      	mov	r0, r4
 800797a:	f7ff ff4f 	bl	800781c <Ssd1306::SendCommand(unsigned char)>
 800797e:	2300      	movs	r3, #0
 8007980:	4628      	mov	r0, r5
 8007982:	9304      	str	r3, [sp, #16]
 8007984:	f88d 3014 	strb.w	r3, [sp, #20]
 8007988:	f7ff feab 	bl	80076e2 <HAL_I2C::Setup()>
 800798c:	2340      	movs	r3, #64	; 0x40
 800798e:	2101      	movs	r1, #1
 8007990:	a801      	add	r0, sp, #4
 8007992:	f88d 3004 	strb.w	r3, [sp, #4]
 8007996:	f001 fc1f 	bl	80091d8 <gd32_i2c_write>
 800799a:	4628      	mov	r0, r5
 800799c:	f7ff fea1 	bl	80076e2 <HAL_I2C::Setup()>
 80079a0:	2105      	movs	r1, #5
 80079a2:	a804      	add	r0, sp, #16
 80079a4:	f001 fc7e 	bl	80092a4 <gd32_i2c_read>
 80079a8:	aa02      	add	r2, sp, #8
 80079aa:	a904      	add	r1, sp, #16
 80079ac:	2304      	movs	r3, #4
 80079ae:	f812 5f01 	ldrb.w	r5, [r2, #1]!
 80079b2:	f811 0f01 	ldrb.w	r0, [r1, #1]!
 80079b6:	4285      	cmp	r5, r0
 80079b8:	d006      	beq.n	80079c8 <Ssd1306::CheckSH1106()+0x9c>
 80079ba:	1a2b      	subs	r3, r5, r0
 80079bc:	fab3 f383 	clz	r3, r3
 80079c0:	095b      	lsrs	r3, r3, #5
 80079c2:	7663      	strb	r3, [r4, #25]
 80079c4:	b007      	add	sp, #28
 80079c6:	bd30      	pop	{r4, r5, pc}
 80079c8:	3b01      	subs	r3, #1
 80079ca:	d1f0      	bne.n	80079ae <Ssd1306::CheckSH1106()+0x82>
 80079cc:	e7f6      	b.n	80079bc <Ssd1306::CheckSH1106()+0x90>
 80079ce:	bf00      	nop
 80079d0:	0800b93a 	stmdaeq	r0, {r1, r3, r4, r5, r8, fp, ip, sp, pc}

080079d4 <Ssd1306::Cls()>:
 80079d4:	e92d 43f8 	stmdb	sp!, {r3, r4, r5, r6, r7, r8, r9, lr}
 80079d8:	7e46      	ldrb	r6, [r0, #25]
 80079da:	f8df 9078 	ldr.w	r9, [pc, #120]	; 8007a54 <Ssd1306::Cls()+0x80>
 80079de:	00b6      	lsls	r6, r6, #2
 80079e0:	b2f7      	uxtb	r7, r6
 80079e2:	4604      	mov	r4, r0
 80079e4:	2500      	movs	r5, #0
 80079e6:	f047 0810 	orr.w	r8, r7, #16
 80079ea:	69e3      	ldr	r3, [r4, #28]
 80079ec:	42ab      	cmp	r3, r5
 80079ee:	4639      	mov	r1, r7
 80079f0:	4620      	mov	r0, r4
 80079f2:	d815      	bhi.n	8007a20 <Ssd1306::Cls()+0x4c>
 80079f4:	f7ff ff12 	bl	800781c <Ssd1306::SendCommand(unsigned char)>
 80079f8:	4641      	mov	r1, r8
 80079fa:	4620      	mov	r0, r4
 80079fc:	f7ff ff0e 	bl	800781c <Ssd1306::SendCommand(unsigned char)>
 8007a00:	21b0      	movs	r1, #176	; 0xb0
 8007a02:	4620      	mov	r0, r4
 8007a04:	f7ff ff0a 	bl	800781c <Ssd1306::SendCommand(unsigned char)>
 8007a08:	2300      	movs	r3, #0
 8007a0a:	68a2      	ldr	r2, [r4, #8]
 8007a0c:	6263      	str	r3, [r4, #36]	; 0x24
 8007a0e:	6a23      	ldr	r3, [r4, #32]
 8007a10:	2115      	movs	r1, #21
 8007a12:	fb01 3202 	mla	r2, r1, r2, r3
 8007a16:	2120      	movs	r1, #32
 8007a18:	429a      	cmp	r2, r3
 8007a1a:	d118      	bne.n	8007a4e <Ssd1306::Cls()+0x7a>
 8007a1c:	e8bd 83f8 	ldmia.w	sp!, {r3, r4, r5, r6, r7, r8, r9, pc}
 8007a20:	f7ff fefc 	bl	800781c <Ssd1306::SendCommand(unsigned char)>
 8007a24:	4641      	mov	r1, r8
 8007a26:	4620      	mov	r0, r4
 8007a28:	f7ff fef8 	bl	800781c <Ssd1306::SendCommand(unsigned char)>
 8007a2c:	f065 014f 	orn	r1, r5, #79	; 0x4f
 8007a30:	b2c9      	uxtb	r1, r1
 8007a32:	4620      	mov	r0, r4
 8007a34:	f7ff fef2 	bl	800781c <Ssd1306::SendCommand(unsigned char)>
 8007a38:	f104 0010 	add.w	r0, r4, #16
 8007a3c:	f7ff fe51 	bl	80076e2 <HAL_I2C::Setup()>
 8007a40:	f106 0181 	add.w	r1, r6, #129	; 0x81
 8007a44:	4648      	mov	r0, r9
 8007a46:	f001 fbc7 	bl	80091d8 <gd32_i2c_write>
 8007a4a:	3501      	adds	r5, #1
 8007a4c:	e7cd      	b.n	80079ea <Ssd1306::Cls()+0x16>
 8007a4e:	f803 1b01 	strb.w	r1, [r3], #1
 8007a52:	e7e1      	b.n	8007a18 <Ssd1306::Cls()+0x44>
 8007a54:	20002674 	andcs	r2, r0, r4, ror r6

08007a58 <Ssd1306::Start()>:
 8007a58:	b5f7      	push	{r0, r1, r2, r4, r5, r6, r7, lr}
 8007a5a:	7c04      	ldrb	r4, [r0, #16]
 8007a5c:	6946      	ldr	r6, [r0, #20]
 8007a5e:	4605      	mov	r5, r0
 8007a60:	4620      	mov	r0, r4
 8007a62:	f001 fbb3 	bl	80091cc <gd32_i2c_set_address>
 8007a66:	4630      	mov	r0, r6
 8007a68:	f001 fba8 	bl	80091bc <gd32_i2c_set_baudrate>
 8007a6c:	f1a4 0330 	sub.w	r3, r4, #48	; 0x30
 8007a70:	2b07      	cmp	r3, #7
 8007a72:	d902      	bls.n	8007a7a <Ssd1306::Start()+0x22>
 8007a74:	3c50      	subs	r4, #80	; 0x50
 8007a76:	2c0f      	cmp	r4, #15
 8007a78:	d80f      	bhi.n	8007a9a <Ssd1306::Start()+0x42>
 8007a7a:	2101      	movs	r1, #1
 8007a7c:	f10d 0007 	add.w	r0, sp, #7
 8007a80:	f001 fc10 	bl	80092a4 <gd32_i2c_read>
 8007a84:	fab0 f480 	clz	r4, r0
 8007a88:	0964      	lsrs	r4, r4, #5
 8007a8a:	b34c      	cbz	r4, 8007ae0 <Ssd1306::Start()+0x88>
 8007a8c:	7e2e      	ldrb	r6, [r5, #24]
 8007a8e:	b14e      	cbz	r6, 8007aa4 <Ssd1306::Start()+0x4c>
 8007a90:	3e01      	subs	r6, #1
 8007a92:	2e01      	cmp	r6, #1
 8007a94:	d927      	bls.n	8007ae6 <Ssd1306::Start()+0x8e>
 8007a96:	2400      	movs	r4, #0
 8007a98:	e022      	b.n	8007ae0 <Ssd1306::Start()+0x88>
 8007a9a:	2100      	movs	r1, #0
 8007a9c:	4608      	mov	r0, r1
 8007a9e:	f001 fb9b 	bl	80091d8 <gd32_i2c_write>
 8007aa2:	e7ef      	b.n	8007a84 <Ssd1306::Start()+0x2c>
 8007aa4:	4f15      	ldr	r7, [pc, #84]	; (8007afc <Ssd1306::Start()+0xa4>)
 8007aa6:	f817 1b01 	ldrb.w	r1, [r7], #1
 8007aaa:	4628      	mov	r0, r5
 8007aac:	3601      	adds	r6, #1
 8007aae:	f7ff feb5 	bl	800781c <Ssd1306::SendCommand(unsigned char)>
 8007ab2:	2e18      	cmp	r6, #24
 8007ab4:	d1f7      	bne.n	8007aa6 <Ssd1306::Start()+0x4e>
 8007ab6:	4a12      	ldr	r2, [pc, #72]	; (8007b00 <Ssd1306::Start()+0xa8>)
 8007ab8:	2300      	movs	r3, #0
 8007aba:	4611      	mov	r1, r2
 8007abc:	4618      	mov	r0, r3
 8007abe:	3301      	adds	r3, #1
 8007ac0:	2b86      	cmp	r3, #134	; 0x86
 8007ac2:	f802 0b01 	strb.w	r0, [r2], #1
 8007ac6:	d1fa      	bne.n	8007abe <Ssd1306::Start()+0x66>
 8007ac8:	2340      	movs	r3, #64	; 0x40
 8007aca:	4628      	mov	r0, r5
 8007acc:	700b      	strb	r3, [r1, #0]
 8007ace:	f7ff ff2d 	bl	800792c <Ssd1306::CheckSH1106()>
 8007ad2:	4628      	mov	r0, r5
 8007ad4:	f7ff ff7e 	bl	80079d4 <Ssd1306::Cls()>
 8007ad8:	21af      	movs	r1, #175	; 0xaf
 8007ada:	4628      	mov	r0, r5
 8007adc:	f7ff fe9e 	bl	800781c <Ssd1306::SendCommand(unsigned char)>
 8007ae0:	4620      	mov	r0, r4
 8007ae2:	b003      	add	sp, #12
 8007ae4:	bdf0      	pop	{r4, r5, r6, r7, pc}
 8007ae6:	4f07      	ldr	r7, [pc, #28]	; (8007b04 <Ssd1306::Start()+0xac>)
 8007ae8:	2600      	movs	r6, #0
 8007aea:	f817 1b01 	ldrb.w	r1, [r7], #1
 8007aee:	4628      	mov	r0, r5
 8007af0:	3601      	adds	r6, #1
 8007af2:	f7ff fe93 	bl	800781c <Ssd1306::SendCommand(unsigned char)>
 8007af6:	2e18      	cmp	r6, #24
 8007af8:	d1f7      	bne.n	8007aea <Ssd1306::Start()+0x92>
 8007afa:	e7dc      	b.n	8007ab6 <Ssd1306::Start()+0x5e>
 8007afc:	0800b998 	stmdaeq	r0, {r3, r4, r7, r8, fp, ip, sp, pc}
 8007b00:	20002674 	andcs	r2, r0, r4, ror r6
 8007b04:	0800b980 	stmdaeq	r0, {r7, r8, fp, ip, sp, pc}

08007b08 <Ssd1306::SetFlipVertically(bool)>:
 8007b08:	e92d 4ff8 	stmdb	sp!, {r3, r4, r5, r6, r7, r8, r9, sl, fp, lr}
 8007b0c:	4604      	mov	r4, r0
 8007b0e:	b179      	cbz	r1, 8007b30 <Ssd1306::SetFlipVertically(bool)+0x28>
 8007b10:	21a0      	movs	r1, #160	; 0xa0
 8007b12:	f7ff fe83 	bl	800781c <Ssd1306::SendCommand(unsigned char)>
 8007b16:	21c0      	movs	r1, #192	; 0xc0
 8007b18:	4620      	mov	r0, r4
 8007b1a:	f7ff fe7f 	bl	800781c <Ssd1306::SendCommand(unsigned char)>
 8007b1e:	f8df 8060 	ldr.w	r8, [pc, #96]	; 8007b80 <Ssd1306::SetFlipVertically(bool)+0x78>
 8007b22:	2600      	movs	r6, #0
 8007b24:	2715      	movs	r7, #21
 8007b26:	68a3      	ldr	r3, [r4, #8]
 8007b28:	42b3      	cmp	r3, r6
 8007b2a:	d806      	bhi.n	8007b3a <Ssd1306::SetFlipVertically(bool)+0x32>
 8007b2c:	e8bd 8ff8 	ldmia.w	sp!, {r3, r4, r5, r6, r7, r8, r9, sl, fp, pc}
 8007b30:	21a1      	movs	r1, #161	; 0xa1
 8007b32:	f7ff fe73 	bl	800781c <Ssd1306::SendCommand(unsigned char)>
 8007b36:	21c8      	movs	r1, #200	; 0xc8
 8007b38:	e7ee      	b.n	8007b18 <Ssd1306::SetFlipVertically(bool)+0x10>
 8007b3a:	b2f2      	uxtb	r2, r6
 8007b3c:	2100      	movs	r1, #0
 8007b3e:	4620      	mov	r0, r4
 8007b40:	f7ff fe7c 	bl	800783c <Ssd1306::SetCursorPos(unsigned long, unsigned long)>
 8007b44:	fb07 fb06 	mul.w	fp, r7, r6
 8007b48:	f04f 0a00 	mov.w	sl, #0
 8007b4c:	f104 0910 	add.w	r9, r4, #16
 8007b50:	6a23      	ldr	r3, [r4, #32]
 8007b52:	4453      	add	r3, sl
 8007b54:	f10a 0a01 	add.w	sl, sl, #1
 8007b58:	f813 000b 	ldrb.w	r0, [r3, fp]
 8007b5c:	3820      	subs	r0, #32
 8007b5e:	ebc0 00c0 	rsb	r0, r0, r0, lsl #3
 8007b62:	eb00 0508 	add.w	r5, r0, r8
 8007b66:	4648      	mov	r0, r9
 8007b68:	f7ff fdbb 	bl	80076e2 <HAL_I2C::Setup()>
 8007b6c:	2107      	movs	r1, #7
 8007b6e:	4628      	mov	r0, r5
 8007b70:	f001 fb32 	bl	80091d8 <gd32_i2c_write>
 8007b74:	f1ba 0f15 	cmp.w	sl, #21
 8007b78:	d1ea      	bne.n	8007b50 <Ssd1306::SetFlipVertically(bool)+0x48>
 8007b7a:	3601      	adds	r6, #1
 8007b7c:	e7d3      	b.n	8007b26 <Ssd1306::SetFlipVertically(bool)+0x1e>
 8007b7e:	bf00      	nop
 8007b80:	0800b9b0 	stmdaeq	r0, {r4, r5, r7, r8, fp, ip, sp, pc}

08007b84 <console_putc>:
 8007b84:	f001 be54 	b.w	8009830 <uart0_putc>

08007b88 <console_puts>:
 8007b88:	f001 bdce 	b.w	8009728 <uart0_puts>

08007b8c <FirmwareVersion::FirmwareVersion(char const*, char const*, char const*)>:
 8007b8c:	e92d 41f0 	stmdb	sp!, {r4, r5, r6, r7, r8, lr}
 8007b90:	4d15      	ldr	r5, [pc, #84]	; (8007be8 <FirmwareVersion::FirmwareVersion(char const*, char const*, char const*)+0x5c>)
 8007b92:	461e      	mov	r6, r3
 8007b94:	4b15      	ldr	r3, [pc, #84]	; (8007bec <FirmwareVersion::FirmwareVersion(char const*, char const*, char const*)+0x60>)
 8007b96:	b086      	sub	sp, #24
 8007b98:	6018      	str	r0, [r3, #0]
 8007b9a:	4604      	mov	r4, r0
 8007b9c:	4617      	mov	r7, r2
 8007b9e:	f105 0803 	add.w	r8, r5, #3
 8007ba2:	2203      	movs	r2, #3
 8007ba4:	4628      	mov	r0, r5
 8007ba6:	f000 fb03 	bl	80081b0 <memmove>
 8007baa:	4639      	mov	r1, r7
 8007bac:	220b      	movs	r2, #11
 8007bae:	4640      	mov	r0, r8
 8007bb0:	f000 fafe 	bl	80081b0 <memmove>
 8007bb4:	f105 030e 	add.w	r3, r5, #14
 8007bb8:	4631      	mov	r1, r6
 8007bba:	2208      	movs	r2, #8
 8007bbc:	4618      	mov	r0, r3
 8007bbe:	f000 faf7 	bl	80081b0 <memmove>
 8007bc2:	2308      	movs	r3, #8
 8007bc4:	e9cd 8303 	strd	r8, r3, [sp, #12]
 8007bc8:	230b      	movs	r3, #11
 8007bca:	9302      	str	r3, [sp, #8]
 8007bcc:	4b08      	ldr	r3, [pc, #32]	; (8007bf0 <FirmwareVersion::FirmwareVersion(char const*, char const*, char const*)+0x64>)
 8007bce:	9005      	str	r0, [sp, #20]
 8007bd0:	e9cd 5300 	strd	r5, r3, [sp]
 8007bd4:	4a07      	ldr	r2, [pc, #28]	; (8007bf4 <FirmwareVersion::FirmwareVersion(char const*, char const*, char const*)+0x68>)
 8007bd6:	4808      	ldr	r0, [pc, #32]	; (8007bf8 <FirmwareVersion::FirmwareVersion(char const*, char const*, char const*)+0x6c>)
 8007bd8:	2303      	movs	r3, #3
 8007bda:	213f      	movs	r1, #63	; 0x3f
 8007bdc:	f7f9 ffd0 	bl	8001b80 <snprintf>
 8007be0:	4620      	mov	r0, r4
 8007be2:	b006      	add	sp, #24
 8007be4:	e8bd 81f0 	ldmia.w	sp!, {r4, r5, r6, r7, r8, pc}
 8007be8:	20002740 	andcs	r2, r0, r0, asr #14
 8007bec:	200026fc 	strdcs	r2, [r0], -ip
 8007bf0:	0800a16f 	stmdaeq	r0, {r0, r1, r2, r3, r5, r6, r8, sp, pc}
 8007bf4:	0800bc5c 	stmdaeq	r0, {r2, r3, r4, r6, sl, fp, ip, sp, pc}
 8007bf8:	20002700 	andcs	r2, r0, r0, lsl #14

08007bfc <hardware::ledblink::display(unsigned long)>:
 8007bfc:	4770      	bx	lr
	...

08007c00 <Hardware::SetMode(hardware::ledblink::Mode)>:
 8007c00:	b508      	push	{r3, lr}
 8007c02:	4603      	mov	r3, r0
 8007c04:	4608      	mov	r0, r1
 8007c06:	7e1a      	ldrb	r2, [r3, #24]
 8007c08:	b98a      	cbnz	r2, 8007c2e <Hardware::SetMode(hardware::ledblink::Mode)+0x2e>
 8007c0a:	695a      	ldr	r2, [r3, #20]
 8007c0c:	428a      	cmp	r2, r1
 8007c0e:	d00e      	beq.n	8007c2e <Hardware::SetMode(hardware::ledblink::Mode)+0x2e>
 8007c10:	6159      	str	r1, [r3, #20]
 8007c12:	2905      	cmp	r1, #5
 8007c14:	d817      	bhi.n	8007c46 <Hardware::SetMode(hardware::ledblink::Mode)+0x46>
 8007c16:	e8df f001 	tbb	[pc, r1]
 8007c1a:	0f0b0316 	svceq	0x000b0316
 8007c1e:	22001412 	andcs	r1, r0, #301989888	; 0x12000000
 8007c22:	61da      	str	r2, [r3, #28]
 8007c24:	4b0b      	ldr	r3, [pc, #44]	; (8007c54 <Hardware::SetMode(hardware::ledblink::Mode)+0x54>)
 8007c26:	2201      	movs	r2, #1
 8007c28:	611a      	str	r2, [r3, #16]
 8007c2a:	f7ff ffe7 	bl	8007bfc <hardware::ledblink::display(unsigned long)>
 8007c2e:	bd08      	pop	{r3, pc}
 8007c30:	f44f 727a 	mov.w	r2, #1000	; 0x3e8
 8007c34:	61da      	str	r2, [r3, #28]
 8007c36:	e7f8      	b.n	8007c2a <Hardware::SetMode(hardware::ledblink::Mode)+0x2a>
 8007c38:	f240 124d 	movw	r2, #333	; 0x14d
 8007c3c:	e7fa      	b.n	8007c34 <Hardware::SetMode(hardware::ledblink::Mode)+0x34>
 8007c3e:	22c8      	movs	r2, #200	; 0xc8
 8007c40:	e7f8      	b.n	8007c34 <Hardware::SetMode(hardware::ledblink::Mode)+0x34>
 8007c42:	227d      	movs	r2, #125	; 0x7d
 8007c44:	e7f6      	b.n	8007c34 <Hardware::SetMode(hardware::ledblink::Mode)+0x34>
 8007c46:	2200      	movs	r2, #0
 8007c48:	61da      	str	r2, [r3, #28]
 8007c4a:	4b02      	ldr	r3, [pc, #8]	; (8007c54 <Hardware::SetMode(hardware::ledblink::Mode)+0x54>)
 8007c4c:	2201      	movs	r2, #1
 8007c4e:	615a      	str	r2, [r3, #20]
 8007c50:	e7eb      	b.n	8007c2a <Hardware::SetMode(hardware::ledblink::Mode)+0x2a>
 8007c52:	bf00      	nop
 8007c54:	40011000 	andmi	r1, r1, r0

08007c58 <Hardware::SetModeWithLock(hardware::ledblink::Mode, bool)>:
 8007c58:	b538      	push	{r3, r4, r5, lr}
 8007c5a:	4604      	mov	r4, r0
 8007c5c:	2300      	movs	r3, #0
 8007c5e:	4615      	mov	r5, r2
 8007c60:	7603      	strb	r3, [r0, #24]
 8007c62:	f7ff ffcd 	bl	8007c00 <Hardware::SetMode(hardware::ledblink::Mode)>
 8007c66:	7625      	strb	r5, [r4, #24]
 8007c68:	bd38      	pop	{r3, r4, r5, pc}
	...

08007c6c <Hardware::Hardware()>:
 8007c6c:	b570      	push	{r4, r5, r6, lr}
 8007c6e:	4604      	mov	r4, r0
 8007c70:	b090      	sub	sp, #64	; 0x40
 8007c72:	f000 f923 	bl	8007ebc <HwClock::HwClock()>
 8007c76:	2306      	movs	r3, #6
 8007c78:	2500      	movs	r5, #0
 8007c7a:	6163      	str	r3, [r4, #20]
 8007c7c:	f44f 73fa 	mov.w	r3, #500	; 0x1f4
 8007c80:	e9c4 3507 	strd	r3, r5, [r4, #28]
 8007c84:	4b30      	ldr	r3, [pc, #192]	; (8007d48 <Hardware::Hardware()+0xdc>)
 8007c86:	4e31      	ldr	r6, [pc, #196]	; (8007d4c <Hardware::Hardware()+0xe0>)
 8007c88:	7425      	strb	r5, [r4, #16]
 8007c8a:	7625      	strb	r5, [r4, #24]
 8007c8c:	6265      	str	r5, [r4, #36]	; 0x24
 8007c8e:	601c      	str	r4, [r3, #0]
 8007c90:	f7f8 fa4e 	bl	8000130 <console_init>
 8007c94:	f000 f9d8 	bl	8008048 <__libc_init_array>
 8007c98:	f001 fd68 	bl	800976c <systick_config>
 8007c9c:	f001 fd8c 	bl	80097b8 <udelay_init()>
 8007ca0:	f001 f9c4 	bl	800902c <gd32_adc_init()>
 8007ca4:	f001 fa54 	bl	8009150 <gd32_i2c_begin>
 8007ca8:	f240 7004 	movw	r0, #1796	; 0x704
 8007cac:	f000 fe66 	bl	800897c <rcu_periph_clock_enable>
 8007cb0:	4630      	mov	r0, r6
 8007cb2:	f000 fff7 	bl	8008ca4 <timer_deinit>
 8007cb6:	2377      	movs	r3, #119	; 0x77
 8007cb8:	a903      	add	r1, sp, #12
 8007cba:	f8ad 300c 	strh.w	r3, [sp, #12]
 8007cbe:	4630      	mov	r0, r6
 8007cc0:	f04f 33ff 	mov.w	r3, #4294967295	; 0xffffffff
 8007cc4:	9305      	str	r3, [sp, #20]
 8007cc6:	f001 f84f 	bl	8008d68 <timer_init>
 8007cca:	4630      	mov	r0, r6
 8007ccc:	f001 f88a 	bl	8008de4 <timer_enable>
 8007cd0:	f240 701b 	movw	r0, #1819	; 0x71b
 8007cd4:	f000 fe52 	bl	800897c <rcu_periph_clock_enable>
 8007cd8:	f240 701c 	movw	r0, #1820	; 0x71c
 8007cdc:	f000 fe4e 	bl	800897c <rcu_periph_clock_enable>
 8007ce0:	f000 fe44 	bl	800896c <pmu_backup_write_enable>
 8007ce4:	4629      	mov	r1, r5
 8007ce6:	2002      	movs	r0, #2
 8007ce8:	f000 fc3a 	bl	8008560 <bkp_write_data>
 8007cec:	2601      	movs	r6, #1
 8007cee:	237c      	movs	r3, #124	; 0x7c
 8007cf0:	a807      	add	r0, sp, #28
 8007cf2:	930c      	str	r3, [sp, #48]	; 0x30
 8007cf4:	e9cd 5508 	strd	r5, r5, [sp, #32]
 8007cf8:	9507      	str	r5, [sp, #28]
 8007cfa:	950f      	str	r5, [sp, #60]	; 0x3c
 8007cfc:	e9cd 660a 	strd	r6, r6, [sp, #40]	; 0x28
 8007d00:	f000 fafa 	bl	80082f8 <mktime>
 8007d04:	4629      	mov	r1, r5
 8007d06:	e9cd 0501 	strd	r0, r5, [sp, #4]
 8007d0a:	a801      	add	r0, sp, #4
 8007d0c:	f000 fb70 	bl	80083f0 <settimeofday>
 8007d10:	4620      	mov	r0, r4
 8007d12:	f000 f87b 	bl	8007e0c <HwClock::RtcProbe()>
 8007d16:	4620      	mov	r0, r4
 8007d18:	f000 f8dc 	bl	8007ed4 <HwClock::Print()>
 8007d1c:	f105 4580 	add.w	r5, r5, #1073741824	; 0x40000000
 8007d20:	4620      	mov	r0, r4
 8007d22:	f000 f90b 	bl	8007f3c <HwClock::HcToSys()>
 8007d26:	f505 3588 	add.w	r5, r5, #69632	; 0x11000
 8007d2a:	f240 6004 	movw	r0, #1540	; 0x604
 8007d2e:	f000 fe25 	bl	800897c <rcu_periph_clock_enable>
 8007d32:	4628      	mov	r0, r5
 8007d34:	4633      	mov	r3, r6
 8007d36:	2203      	movs	r2, #3
 8007d38:	2110      	movs	r1, #16
 8007d3a:	f000 fd91 	bl	8008860 <gpio_init>
 8007d3e:	4620      	mov	r0, r4
 8007d40:	616e      	str	r6, [r5, #20]
 8007d42:	b010      	add	sp, #64	; 0x40
 8007d44:	bd70      	pop	{r4, r5, r6, pc}
 8007d46:	bf00      	nop
 8007d48:	20002758 	andcs	r2, r0, r8, asr r7
 8007d4c:	40001000 	andmi	r1, r0, r0

08007d50 <Hardware::Reboot()>:
 8007d50:	b508      	push	{r3, lr}
 8007d52:	4604      	mov	r4, r0
 8007d54:	4819      	ldr	r0, [pc, #100]	; (8007dbc <Hardware::Reboot()+0x6c>)
 8007d56:	f7f9 ff03 	bl	8001b60 <printf>
 8007d5a:	2300      	movs	r3, #0
 8007d5c:	7423      	strb	r3, [r4, #16]
 8007d5e:	2104      	movs	r1, #4
 8007d60:	f64f 70ff 	movw	r0, #65535	; 0xffff
 8007d64:	f000 fd52 	bl	800880c <fwdgt_config>
 8007d68:	4620      	mov	r0, r4
 8007d6a:	f7f8 ff69 	bl	8000c40 <Hardware::RebootHandler()>
 8007d6e:	2102      	movs	r1, #2
 8007d70:	f64f 70ff 	movw	r0, #65535	; 0xffff
 8007d74:	f000 fd4a 	bl	800880c <fwdgt_config>
 8007d78:	2801      	cmp	r0, #1
 8007d7a:	bf0c      	ite	eq
 8007d7c:	2301      	moveq	r3, #1
 8007d7e:	2300      	movne	r3, #0
 8007d80:	7423      	strb	r3, [r4, #16]
 8007d82:	d101      	bne.n	8007d88 <Hardware::Reboot()+0x38>
 8007d84:	f000 fd32 	bl	80087ec <fwdgt_enable>
 8007d88:	2105      	movs	r1, #5
 8007d8a:	4620      	mov	r0, r4
 8007d8c:	f7ff ff38 	bl	8007c00 <Hardware::SetMode(hardware::ledblink::Mode)>
 8007d90:	490b      	ldr	r1, [pc, #44]	; (8007dc0 <Hardware::Reboot()+0x70>)
 8007d92:	4a0c      	ldr	r2, [pc, #48]	; (8007dc4 <Hardware::Reboot()+0x74>)
 8007d94:	2501      	movs	r5, #1
 8007d96:	69e0      	ldr	r0, [r4, #28]
 8007d98:	b900      	cbnz	r0, 8007d9c <Hardware::Reboot()+0x4c>
 8007d9a:	e7fe      	b.n	8007d9a <Hardware::Reboot()+0x4a>
 8007d9c:	680b      	ldr	r3, [r1, #0]
 8007d9e:	6a66      	ldr	r6, [r4, #36]	; 0x24
 8007da0:	1b9b      	subs	r3, r3, r6
 8007da2:	4298      	cmp	r0, r3
 8007da4:	d8f8      	bhi.n	8007d98 <Hardware::Reboot()+0x48>
 8007da6:	680b      	ldr	r3, [r1, #0]
 8007da8:	6263      	str	r3, [r4, #36]	; 0x24
 8007daa:	6a23      	ldr	r3, [r4, #32]
 8007dac:	2b01      	cmp	r3, #1
 8007dae:	f083 0001 	eor.w	r0, r3, #1
 8007db2:	6220      	str	r0, [r4, #32]
 8007db4:	bf14      	ite	ne
 8007db6:	6115      	strne	r5, [r2, #16]
 8007db8:	6153      	streq	r3, [r2, #20]
 8007dba:	e7ec      	b.n	8007d96 <Hardware::Reboot()+0x46>
 8007dbc:	0800bc80 	stmdaeq	r0, {r7, sl, fp, ip, sp, pc}
 8007dc0:	20008794 	mulcs	r0, r4, r7
 8007dc4:	40011000 	andmi	r1, r1, r0

08007dc8 <rtc_configuration()>:
 8007dc8:	b510      	push	{r4, lr}
 8007dca:	f44f 6000 	mov.w	r0, #2048	; 0x800
 8007dce:	f000 fe2d 	bl	8008a2c <rcu_osci_on>
 8007dd2:	f44f 6000 	mov.w	r0, #2048	; 0x800
 8007dd6:	f000 feb5 	bl	8008b44 <rcu_osci_stab_wait>
 8007dda:	2801      	cmp	r0, #1
 8007ddc:	4604      	mov	r4, r0
 8007dde:	d113      	bne.n	8007e08 <rtc_configuration()+0x40>
 8007de0:	f44f 7080 	mov.w	r0, #256	; 0x100
 8007de4:	f000 fe18 	bl	8008a18 <rcu_rtc_clock_config>
 8007de8:	f640 000f 	movw	r0, #2063	; 0x80f
 8007dec:	f000 fdc6 	bl	800897c <rcu_periph_clock_enable>
 8007df0:	f000 ff1e 	bl	8008c30 <rtc_register_sync_wait>
 8007df4:	f000 ff14 	bl	8008c20 <rtc_lwoff_wait>
 8007df8:	f647 70ff 	movw	r0, #32767	; 0x7fff
 8007dfc:	f000 ff40 	bl	8008c80 <rtc_prescaler_set>
 8007e00:	f000 ff0e 	bl	8008c20 <rtc_lwoff_wait>
 8007e04:	4620      	mov	r0, r4
 8007e06:	bd10      	pop	{r4, pc}
 8007e08:	2000      	movs	r0, #0
 8007e0a:	e7fc      	b.n	8007e06 <rtc_configuration()+0x3e>

08007e0c <HwClock::RtcProbe()>:
 8007e0c:	b538      	push	{r3, r4, r5, lr}
 8007e0e:	4604      	mov	r4, r0
 8007e10:	2001      	movs	r0, #1
 8007e12:	f000 fbbb 	bl	800858c <bkp_read_data>
 8007e16:	f24a 55a5 	movw	r5, #42405	; 0xa5a5
 8007e1a:	42a8      	cmp	r0, r5
 8007e1c:	d019      	beq.n	8007e52 <HwClock::RtcProbe()+0x46>
 8007e1e:	f7ff ffd3 	bl	8007dc8 <rtc_configuration()>
 8007e22:	b908      	cbnz	r0, 8007e28 <HwClock::RtcProbe()+0x1c>
 8007e24:	72a0      	strb	r0, [r4, #10]
 8007e26:	bd38      	pop	{r3, r4, r5, pc}
 8007e28:	f000 fefa 	bl	8008c20 <rtc_lwoff_wait>
 8007e2c:	2000      	movs	r0, #0
 8007e2e:	f000 faf1 	bl	8008414 <time>
 8007e32:	f000 ff15 	bl	8008c60 <rtc_counter_set>
 8007e36:	f000 fef3 	bl	8008c20 <rtc_lwoff_wait>
 8007e3a:	4629      	mov	r1, r5
 8007e3c:	2001      	movs	r0, #1
 8007e3e:	f000 fb8f 	bl	8008560 <bkp_write_data>
 8007e42:	2303      	movs	r3, #3
 8007e44:	7263      	strb	r3, [r4, #9]
 8007e46:	2301      	movs	r3, #1
 8007e48:	72a3      	strb	r3, [r4, #10]
 8007e4a:	4b04      	ldr	r3, [pc, #16]	; (8007e5c <HwClock::RtcProbe()+0x50>)
 8007e4c:	681b      	ldr	r3, [r3, #0]
 8007e4e:	6063      	str	r3, [r4, #4]
 8007e50:	e7e9      	b.n	8007e26 <HwClock::RtcProbe()+0x1a>
 8007e52:	f000 feed 	bl	8008c30 <rtc_register_sync_wait>
 8007e56:	f000 fee3 	bl	8008c20 <rtc_lwoff_wait>
 8007e5a:	e7f2      	b.n	8007e42 <HwClock::RtcProbe()+0x36>
 8007e5c:	20008794 	mulcs	r0, r4, r7

08007e60 <HwClock::RtcSet(tm const*)>:
 8007e60:	b508      	push	{r3, lr}
 8007e62:	4608      	mov	r0, r1
 8007e64:	f000 fa48 	bl	80082f8 <mktime>
 8007e68:	f000 fefa 	bl	8008c60 <rtc_counter_set>
 8007e6c:	2001      	movs	r0, #1
 8007e6e:	bd08      	pop	{r3, pc}

08007e70 <HwClock::RtcGet(tm*)>:
 8007e70:	b513      	push	{r0, r1, r4, lr}
 8007e72:	460c      	mov	r4, r1
 8007e74:	f000 feea 	bl	8008c4c <rtc_counter_get>
 8007e78:	9001      	str	r0, [sp, #4]
 8007e7a:	a801      	add	r0, sp, #4
 8007e7c:	f000 f9f8 	bl	8008270 <localtime>
 8007e80:	f100 0324 	add.w	r3, r0, #36	; 0x24
 8007e84:	f810 2b01 	ldrb.w	r2, [r0], #1
 8007e88:	f804 2b01 	strb.w	r2, [r4], #1
 8007e8c:	4283      	cmp	r3, r0
 8007e8e:	d1f9      	bne.n	8007e84 <HwClock::RtcGet(tm*)+0x14>
 8007e90:	2001      	movs	r0, #1
 8007e92:	b002      	add	sp, #8
 8007e94:	bd10      	pop	{r4, pc}

08007e96 <Hardware::WatchdogInit()>:
 8007e96:	b510      	push	{r4, lr}
 8007e98:	2102      	movs	r1, #2
 8007e9a:	4604      	mov	r4, r0
 8007e9c:	f64f 70ff 	movw	r0, #65535	; 0xffff
 8007ea0:	f000 fcb4 	bl	800880c <fwdgt_config>
 8007ea4:	2801      	cmp	r0, #1
 8007ea6:	bf0c      	ite	eq
 8007ea8:	2301      	moveq	r3, #1
 8007eaa:	2300      	movne	r3, #0
 8007eac:	7423      	strb	r3, [r4, #16]
 8007eae:	d103      	bne.n	8007eb8 <Hardware::WatchdogInit()+0x22>
 8007eb0:	e8bd 4010 	ldmia.w	sp!, {r4, lr}
 8007eb4:	f000 bc9a 	b.w	80087ec <fwdgt_enable>
 8007eb8:	bd10      	pop	{r4, pc}
	...

08007ebc <HwClock::HwClock()>:
 8007ebc:	2200      	movs	r2, #0
 8007ebe:	e9c0 2200 	strd	r2, r2, [r0]
 8007ec2:	7302      	strb	r2, [r0, #12]
 8007ec4:	4a02      	ldr	r2, [pc, #8]	; (8007ed0 <HwClock::HwClock()+0x14>)
 8007ec6:	f44f 6180 	mov.w	r1, #1024	; 0x400
 8007eca:	6081      	str	r1, [r0, #8]
 8007ecc:	6010      	str	r0, [r2, #0]
 8007ece:	4770      	bx	lr
 8007ed0:	2000275c 	andcs	r2, r0, ip, asr r7

08007ed4 <HwClock::Print()>:
 8007ed4:	b510      	push	{r4, lr}
 8007ed6:	7a83      	ldrb	r3, [r0, #10]
 8007ed8:	b08e      	sub	sp, #56	; 0x38
 8007eda:	4604      	mov	r4, r0
 8007edc:	b92b      	cbnz	r3, 8007eea <HwClock::Print()+0x16>
 8007ede:	4812      	ldr	r0, [pc, #72]	; (8007f28 <HwClock::Print()+0x54>)
 8007ee0:	b00e      	add	sp, #56	; 0x38
 8007ee2:	e8bd 4010 	ldmia.w	sp!, {r4, lr}
 8007ee6:	f7f9 be73 	b.w	8001bd0 <puts>
 8007eea:	7a43      	ldrb	r3, [r0, #9]
 8007eec:	480f      	ldr	r0, [pc, #60]	; (8007f2c <HwClock::Print()+0x58>)
 8007eee:	2b03      	cmp	r3, #3
 8007ef0:	bf96      	itet	ls
 8007ef2:	4a0f      	ldrls	r2, [pc, #60]	; (8007f30 <HwClock::Print()+0x5c>)
 8007ef4:	490f      	ldrhi	r1, [pc, #60]	; (8007f34 <HwClock::Print()+0x60>)
 8007ef6:	f852 1023 	ldrls.w	r1, [r2, r3, lsl #2]
 8007efa:	f7f9 fe31 	bl	8001b60 <printf>
 8007efe:	a905      	add	r1, sp, #20
 8007f00:	4620      	mov	r0, r4
 8007f02:	f7ff ffb5 	bl	8007e70 <HwClock::RtcGet(tm*)>
 8007f06:	9b05      	ldr	r3, [sp, #20]
 8007f08:	9302      	str	r3, [sp, #8]
 8007f0a:	9b06      	ldr	r3, [sp, #24]
 8007f0c:	9301      	str	r3, [sp, #4]
 8007f0e:	9b07      	ldr	r3, [sp, #28]
 8007f10:	9300      	str	r3, [sp, #0]
 8007f12:	e9dd 3208 	ldrd	r3, r2, [sp, #32]
 8007f16:	990a      	ldr	r1, [sp, #40]	; 0x28
 8007f18:	4807      	ldr	r0, [pc, #28]	; (8007f38 <HwClock::Print()+0x64>)
 8007f1a:	3201      	adds	r2, #1
 8007f1c:	f201 716c 	addw	r1, r1, #1900	; 0x76c
 8007f20:	f7f9 fe1e 	bl	8001b60 <printf>
 8007f24:	b00e      	add	sp, #56	; 0x38
 8007f26:	bd10      	pop	{r4, pc}
 8007f28:	0800bc8f 	stmdaeq	r0, {r0, r1, r2, r3, r7, sl, fp, ip, sp, pc}
 8007f2c:	0800ae39 	stmdaeq	r0, {r0, r3, r4, r5, r9, sl, fp, sp, pc}
 8007f30:	0800bce4 	stmdaeq	r0, {r2, r5, r6, r7, sl, fp, ip, sp, pc}
 8007f34:	0800b660 	stmdaeq	r0, {r5, r6, r9, sl, ip, sp, pc}
 8007f38:	0800bca0 	stmdaeq	r0, {r5, r7, sl, fp, ip, sp, pc}

08007f3c <HwClock::HcToSys()>:
 8007f3c:	e92d 43f0 	stmdb	sp!, {r4, r5, r6, r7, r8, r9, lr}
 8007f40:	7a83      	ldrb	r3, [r0, #10]
 8007f42:	b099      	sub	sp, #100	; 0x64
 8007f44:	4604      	mov	r4, r0
 8007f46:	2b00      	cmp	r3, #0
 8007f48:	d042      	beq.n	8007fd0 <HwClock::HcToSys()+0x94>
 8007f4a:	4f25      	ldr	r7, [pc, #148]	; (8007fe0 <HwClock::HcToSys()+0xa4>)
 8007f4c:	683b      	ldr	r3, [r7, #0]
 8007f4e:	7c1e      	ldrb	r6, [r3, #16]
 8007f50:	b136      	cbz	r6, 8007f60 <HwClock::HcToSys()+0x24>
 8007f52:	2200      	movs	r2, #0
 8007f54:	741a      	strb	r2, [r3, #16]
 8007f56:	2104      	movs	r1, #4
 8007f58:	f64f 70ff 	movw	r0, #65535	; 0xffff
 8007f5c:	f000 fc56 	bl	800880c <fwdgt_config>
 8007f60:	a906      	add	r1, sp, #24
 8007f62:	4620      	mov	r0, r4
 8007f64:	f7ff ff84 	bl	8007e70 <HwClock::RtcGet(tm*)>
 8007f68:	2100      	movs	r1, #0
 8007f6a:	4668      	mov	r0, sp
 8007f6c:	f000 fa10 	bl	8008390 <gettimeofday>
 8007f70:	e9dd 3206 	ldrd	r3, r2, [sp, #24]
 8007f74:	f04f 093c 	mov.w	r9, #60	; 0x3c
 8007f78:	a806      	add	r0, sp, #24
 8007f7a:	fb09 3802 	mla	r8, r9, r2, r3
 8007f7e:	f000 f9bb 	bl	80082f8 <mktime>
 8007f82:	4605      	mov	r5, r0
 8007f84:	a90f      	add	r1, sp, #60	; 0x3c
 8007f86:	4620      	mov	r0, r4
 8007f88:	f7ff ff72 	bl	8007e70 <HwClock::RtcGet(tm*)>
 8007f8c:	e9dd 320f 	ldrd	r3, r2, [sp, #60]	; 0x3c
 8007f90:	fb09 3302 	mla	r3, r9, r2, r3
 8007f94:	4598      	cmp	r8, r3
 8007f96:	d0f5      	beq.n	8007f84 <HwClock::HcToSys()+0x48>
 8007f98:	2100      	movs	r1, #0
 8007f9a:	a802      	add	r0, sp, #8
 8007f9c:	f000 f9f8 	bl	8008390 <gettimeofday>
 8007fa0:	9b00      	ldr	r3, [sp, #0]
 8007fa2:	9a02      	ldr	r2, [sp, #8]
 8007fa4:	9901      	ldr	r1, [sp, #4]
 8007fa6:	9504      	str	r5, [sp, #16]
 8007fa8:	429a      	cmp	r2, r3
 8007faa:	9b03      	ldr	r3, [sp, #12]
 8007fac:	d113      	bne.n	8007fd6 <HwClock::HcToSys()+0x9a>
 8007fae:	1a5b      	subs	r3, r3, r1
 8007fb0:	f5c3 2274 	rsb	r2, r3, #999424	; 0xf4000
 8007fb4:	f502 7210 	add.w	r2, r2, #576	; 0x240
 8007fb8:	2100      	movs	r1, #0
 8007fba:	a804      	add	r0, sp, #16
 8007fbc:	9205      	str	r2, [sp, #20]
 8007fbe:	f000 fa17 	bl	80083f0 <settimeofday>
 8007fc2:	4b08      	ldr	r3, [pc, #32]	; (8007fe4 <HwClock::HcToSys()+0xa8>)
 8007fc4:	6838      	ldr	r0, [r7, #0]
 8007fc6:	681b      	ldr	r3, [r3, #0]
 8007fc8:	6063      	str	r3, [r4, #4]
 8007fca:	b10e      	cbz	r6, 8007fd0 <HwClock::HcToSys()+0x94>
 8007fcc:	f7ff ff63 	bl	8007e96 <Hardware::WatchdogInit()>
 8007fd0:	b019      	add	sp, #100	; 0x64
 8007fd2:	e8bd 83f0 	ldmia.w	sp!, {r4, r5, r6, r7, r8, r9, pc}
 8007fd6:	1a5a      	subs	r2, r3, r1
 8007fd8:	bf48      	it	mi
 8007fda:	1aca      	submi	r2, r1, r3
 8007fdc:	e7ec      	b.n	8007fb8 <HwClock::HcToSys()+0x7c>
 8007fde:	bf00      	nop
 8007fe0:	20002758 	andcs	r2, r0, r8, asr r7
 8007fe4:	20008794 	mulcs	r0, r4, r7

08007fe8 <HwClock::Set(tm const*)>:
 8007fe8:	b570      	push	{r4, r5, r6, lr}
 8007fea:	7a86      	ldrb	r6, [r0, #10]
 8007fec:	b086      	sub	sp, #24
 8007fee:	4605      	mov	r5, r0
 8007ff0:	460c      	mov	r4, r1
 8007ff2:	b1ee      	cbz	r6, 8008030 <HwClock::Set(tm const*)+0x48>
 8007ff4:	2100      	movs	r1, #0
 8007ff6:	4668      	mov	r0, sp
 8007ff8:	f000 f9ca 	bl	8008390 <gettimeofday>
 8007ffc:	4621      	mov	r1, r4
 8007ffe:	4628      	mov	r0, r5
 8008000:	f7ff ff2e 	bl	8007e60 <HwClock::RtcSet(tm const*)>
 8008004:	4620      	mov	r0, r4
 8008006:	f000 f977 	bl	80082f8 <mktime>
 800800a:	2100      	movs	r1, #0
 800800c:	9002      	str	r0, [sp, #8]
 800800e:	a804      	add	r0, sp, #16
 8008010:	f000 f9be 	bl	8008390 <gettimeofday>
 8008014:	9905      	ldr	r1, [sp, #20]
 8008016:	9b01      	ldr	r3, [sp, #4]
 8008018:	1aca      	subs	r2, r1, r3
 800801a:	bf42      	ittt	mi
 800801c:	1a5b      	submi	r3, r3, r1
 800801e:	f5c3 2274 	rsbmi	r2, r3, #999424	; 0xf4000
 8008022:	f502 7210 	addmi.w	r2, r2, #576	; 0x240
 8008026:	2100      	movs	r1, #0
 8008028:	a802      	add	r0, sp, #8
 800802a:	9203      	str	r2, [sp, #12]
 800802c:	f000 f9e0 	bl	80083f0 <settimeofday>
 8008030:	4630      	mov	r0, r6
 8008032:	b006      	add	sp, #24
 8008034:	bd70      	pop	{r4, r5, r6, pc}

08008036 <operator delete[](void*)>:
 8008036:	f000 b8a1 	b.w	800817c <free>

0800803a <operator delete(void*, unsigned int)>:
 800803a:	f000 b89f 	b.w	800817c <free>

0800803e <operator new(unsigned int)>:
 800803e:	f000 b871 	b.w	8008124 <malloc>

08008042 <operator new[](unsigned int)>:
 8008042:	f000 b86f 	b.w	8008124 <malloc>
	...

08008048 <__libc_init_array>:
 8008048:	b570      	push	{r4, r5, r6, lr}
 800804a:	4d0c      	ldr	r5, [pc, #48]	; (800807c <__libc_init_array+0x34>)
 800804c:	4c0c      	ldr	r4, [pc, #48]	; (8008080 <__libc_init_array+0x38>)
 800804e:	1b64      	subs	r4, r4, r5
 8008050:	10a4      	asrs	r4, r4, #2
 8008052:	2600      	movs	r6, #0
 8008054:	42a6      	cmp	r6, r4
 8008056:	d107      	bne.n	8008068 <__libc_init_array+0x20>
 8008058:	4d0a      	ldr	r5, [pc, #40]	; (8008084 <__libc_init_array+0x3c>)
 800805a:	4c0b      	ldr	r4, [pc, #44]	; (8008088 <__libc_init_array+0x40>)
 800805c:	1b64      	subs	r4, r4, r5
 800805e:	10a4      	asrs	r4, r4, #2
 8008060:	2600      	movs	r6, #0
 8008062:	42a6      	cmp	r6, r4
 8008064:	d105      	bne.n	8008072 <__libc_init_array+0x2a>
 8008066:	bd70      	pop	{r4, r5, r6, pc}
 8008068:	f855 3b04 	ldr.w	r3, [r5], #4
 800806c:	4798      	blx	r3
 800806e:	3601      	adds	r6, #1
 8008070:	e7f0      	b.n	8008054 <__libc_init_array+0xc>
 8008072:	f855 3b04 	ldr.w	r3, [r5], #4
 8008076:	4798      	blx	r3
 8008078:	3601      	adds	r6, #1
 800807a:	e7f2      	b.n	8008062 <__libc_init_array+0x1a>
 800807c:	08009c78 	stmdaeq	r0, {r3, r4, r5, r6, sl, fp, ip, pc}
 8008080:	08009c78 	stmdaeq	r0, {r3, r4, r5, r6, sl, fp, ip, pc}
 8008084:	08009c78 	stmdaeq	r0, {r3, r4, r5, r6, sl, fp, ip, pc}
 8008088:	08009c78 	stmdaeq	r0, {r3, r4, r5, r6, sl, fp, ip, pc}

0800808c <log2f>:
 800808c:	eeb5 0a40 	vcmp.f32	s0, #0.0
 8008090:	eef1 fa10 	vmrs	APSR_nzcv, fpscr
 8008094:	d027      	beq.n	80080e6 <log2f+0x5a>
 8008096:	eef7 7a00 	vmov.f32	s15, #112	; 0x3f800000  1.0
 800809a:	eeb4 0a67 	vcmp.f32	s0, s15
 800809e:	eef1 fa10 	vmrs	APSR_nzcv, fpscr
 80080a2:	d023      	beq.n	80080ec <log2f+0x60>
 80080a4:	eeb5 0ac0 	vcmpe.f32	s0, #0.0
 80080a8:	eef1 fa10 	vmrs	APSR_nzcv, fpscr
 80080ac:	d421      	bmi.n	80080f2 <log2f+0x66>
 80080ae:	ee10 3a10 	vmov	r3, s0
 80080b2:	f3c3 52c7 	ubfx	r2, r3, #23, #8
 80080b6:	3a80      	subs	r2, #128	; 0x80
 80080b8:	ee07 2a90 	vmov	s15, r2
 80080bc:	f023 43ff 	bic.w	r3, r3, #2139095040	; 0x7f800000
 80080c0:	f103 537e 	add.w	r3, r3, #1065353216	; 0x3f800000
 80080c4:	eeb8 7ae7 	vcvt.f32.s32	s14, s15
 80080c8:	ed9f 6a0b 	vldr	s12, [pc, #44]	; 80080f8 <log2f+0x6c>
 80080cc:	eddf 6a0b 	vldr	s13, [pc, #44]	; 80080fc <log2f+0x70>
 80080d0:	ed9f 0a0b 	vldr	s0, [pc, #44]	; 8008100 <log2f+0x74>
 80080d4:	ee07 3a90 	vmov	s15, r3
 80080d8:	eee7 6a86 	vfma.f32	s13, s15, s12
 80080dc:	eea7 0aa6 	vfma.f32	s0, s15, s13
 80080e0:	ee30 0a07 	vadd.f32	s0, s0, s14
 80080e4:	4770      	bx	lr
 80080e6:	ed9f 0a07 	vldr	s0, [pc, #28]	; 8008104 <log2f+0x78>
 80080ea:	4770      	bx	lr
 80080ec:	ed9f 0a06 	vldr	s0, [pc, #24]	; 8008108 <log2f+0x7c>
 80080f0:	4770      	bx	lr
 80080f2:	ed9f 0a06 	vldr	s0, [pc, #24]	; 800810c <log2f+0x80>
 80080f6:	4770      	bx	lr
 80080f8:	beb08ff9 	mrclt	15, 5, r8, cr0, cr9, {7}
 80080fc:	40019420 	andmi	r9, r1, r0, lsr #8
 8008100:	bf2cc4c7 	svclt	0x002cc4c7
 8008104:	ff800000 			; <UNDEFINED> instruction: 0xff800000
 8008108:	00000000 	andeq	r0, r0, r0
 800810c:	7f800001 	svcvc	0x00800001

08008110 <logf>:
 8008110:	b508      	push	{r3, lr}
 8008112:	f7ff ffbb 	bl	800808c <log2f>
 8008116:	eddf 7a02 	vldr	s15, [pc, #8]	; 8008120 <logf+0x10>
 800811a:	ee20 0a27 	vmul.f32	s0, s0, s15
 800811e:	bd08      	pop	{r3, pc}
 8008120:	3f317218 	svccc	0x00317218

08008124 <malloc>:
 8008124:	b510      	push	{r4, lr}
 8008126:	b300      	cbz	r0, 800816a <malloc+0x46>
 8008128:	4b10      	ldr	r3, [pc, #64]	; (800816c <malloc+0x48>)
 800812a:	681a      	ldr	r2, [r3, #0]
 800812c:	b97a      	cbnz	r2, 800814e <malloc+0x2a>
 800812e:	4602      	mov	r2, r0
 8008130:	490f      	ldr	r1, [pc, #60]	; (8008170 <malloc+0x4c>)
 8008132:	4c10      	ldr	r4, [pc, #64]	; (8008174 <malloc+0x50>)
 8008134:	6808      	ldr	r0, [r1, #0]
 8008136:	f102 031b 	add.w	r3, r2, #27
 800813a:	f023 030f 	bic.w	r3, r3, #15
 800813e:	4403      	add	r3, r0
 8008140:	42a3      	cmp	r3, r4
 8008142:	d808      	bhi.n	8008156 <malloc+0x32>
 8008144:	600b      	str	r3, [r1, #0]
 8008146:	4b0c      	ldr	r3, [pc, #48]	; (8008178 <malloc+0x54>)
 8008148:	e9c0 3200 	strd	r3, r2, [r0]
 800814c:	e00a      	b.n	8008164 <malloc+0x40>
 800814e:	4290      	cmp	r0, r2
 8008150:	d903      	bls.n	800815a <malloc+0x36>
 8008152:	3308      	adds	r3, #8
 8008154:	e7e9      	b.n	800812a <malloc+0x6>
 8008156:	2000      	movs	r0, #0
 8008158:	e007      	b.n	800816a <malloc+0x46>
 800815a:	6858      	ldr	r0, [r3, #4]
 800815c:	2800      	cmp	r0, #0
 800815e:	d0e7      	beq.n	8008130 <malloc+0xc>
 8008160:	6882      	ldr	r2, [r0, #8]
 8008162:	605a      	str	r2, [r3, #4]
 8008164:	2300      	movs	r3, #0
 8008166:	6083      	str	r3, [r0, #8]
 8008168:	300c      	adds	r0, #12
 800816a:	bd10      	pop	{r4, pc}
 800816c:	20001000 	andcs	r1, r0, r0
 8008170:	20001068 	andcs	r1, r0, r8, rrx
 8008174:	20009798 	mulcs	r0, r8, r7
 8008178:	424c4d43 	submi	r4, ip, #4288	; 0x10c0

0800817c <free>:
 800817c:	b138      	cbz	r0, 800818e <free+0x12>
 800817e:	f850 2c0c 	ldr.w	r2, [r0, #-12]
 8008182:	4b09      	ldr	r3, [pc, #36]	; (80081a8 <free+0x2c>)
 8008184:	429a      	cmp	r2, r3
 8008186:	d102      	bne.n	800818e <free+0x12>
 8008188:	4b08      	ldr	r3, [pc, #32]	; (80081ac <free+0x30>)
 800818a:	681a      	ldr	r2, [r3, #0]
 800818c:	b902      	cbnz	r2, 8008190 <free+0x14>
 800818e:	4770      	bx	lr
 8008190:	f850 1c08 	ldr.w	r1, [r0, #-8]
 8008194:	4291      	cmp	r1, r2
 8008196:	d105      	bne.n	80081a4 <free+0x28>
 8008198:	685a      	ldr	r2, [r3, #4]
 800819a:	f840 2c04 	str.w	r2, [r0, #-4]
 800819e:	380c      	subs	r0, #12
 80081a0:	6058      	str	r0, [r3, #4]
 80081a2:	4770      	bx	lr
 80081a4:	3308      	adds	r3, #8
 80081a6:	e7f0      	b.n	800818a <free+0xe>
 80081a8:	424c4d43 	submi	r4, ip, #4288	; 0x10c0
 80081ac:	20001000 	andcs	r1, r0, r0

080081b0 <memmove>:
 80081b0:	4288      	cmp	r0, r1
 80081b2:	b510      	push	{r4, lr}
 80081b4:	eb01 0302 	add.w	r3, r1, r2
 80081b8:	d208      	bcs.n	80081cc <memmove+0x1c>
 80081ba:	1e42      	subs	r2, r0, #1
 80081bc:	4299      	cmp	r1, r3
 80081be:	d100      	bne.n	80081c2 <memmove+0x12>
 80081c0:	bd10      	pop	{r4, pc}
 80081c2:	f811 4b01 	ldrb.w	r4, [r1], #1
 80081c6:	f802 4f01 	strb.w	r4, [r2, #1]!
 80081ca:	e7f7      	b.n	80081bc <memmove+0xc>
 80081cc:	4402      	add	r2, r0
 80081ce:	4601      	mov	r1, r0
 80081d0:	428a      	cmp	r2, r1
 80081d2:	d0f5      	beq.n	80081c0 <memmove+0x10>
 80081d4:	f813 4d01 	ldrb.w	r4, [r3, #-1]!
 80081d8:	f802 4d01 	strb.w	r4, [r2, #-1]!
 80081dc:	e7f8      	b.n	80081d0 <memmove+0x20>

080081de <memset>:
 80081de:	b570      	push	{r4, r5, r6, lr}
 80081e0:	b1ca      	cbz	r2, 8008216 <memset+0x38>
 80081e2:	b2c9      	uxtb	r1, r1
 80081e4:	4603      	mov	r3, r0
 80081e6:	075c      	lsls	r4, r3, #29
 80081e8:	d111      	bne.n	800820e <memset+0x30>
 80081ea:	f04f 3501 	mov.w	r5, #16843009	; 0x1010101
 80081ee:	fba1 5605 	umull	r5, r6, r1, r5
 80081f2:	f022 0407 	bic.w	r4, r2, #7
 80081f6:	442e      	add	r6, r5
 80081f8:	441c      	add	r4, r3
 80081fa:	42a3      	cmp	r3, r4
 80081fc:	d10c      	bne.n	8008218 <memset+0x3a>
 80081fe:	f002 0207 	and.w	r2, r2, #7
 8008202:	4422      	add	r2, r4
 8008204:	4294      	cmp	r4, r2
 8008206:	d006      	beq.n	8008216 <memset+0x38>
 8008208:	f804 1b01 	strb.w	r1, [r4], #1
 800820c:	e7fa      	b.n	8008204 <memset+0x26>
 800820e:	3a01      	subs	r2, #1
 8008210:	f803 1b01 	strb.w	r1, [r3], #1
 8008214:	d1e7      	bne.n	80081e6 <memset+0x8>
 8008216:	bd70      	pop	{r4, r5, r6, pc}
 8008218:	f843 5b08 	str.w	r5, [r3], #8
 800821c:	f843 6c04 	str.w	r6, [r3, #-4]
 8008220:	e7eb      	b.n	80081fa <memset+0x1c>

08008222 <isleapyear>:
 8008222:	2264      	movs	r2, #100	; 0x64
 8008224:	fb90 f3f2 	sdiv	r3, r0, r2
 8008228:	fb02 0313 	mls	r3, r2, r3, r0
 800822c:	b94b      	cbnz	r3, 8008242 <isleapyear+0x20>
 800822e:	f44f 73c8 	mov.w	r3, #400	; 0x190
 8008232:	fb90 f2f3 	sdiv	r2, r0, r3
 8008236:	fb03 0012 	mls	r0, r3, r2, r0
 800823a:	fab0 f080 	clz	r0, r0
 800823e:	0940      	lsrs	r0, r0, #5
 8008240:	4770      	bx	lr
 8008242:	f010 0f03 	tst.w	r0, #3
 8008246:	bf0c      	ite	eq
 8008248:	2001      	moveq	r0, #1
 800824a:	2000      	movne	r0, #0
 800824c:	4770      	bx	lr
	...

08008250 <getdaysofmonth>:
 8008250:	b510      	push	{r4, lr}
 8008252:	4604      	mov	r4, r0
 8008254:	2c01      	cmp	r4, #1
 8008256:	4608      	mov	r0, r1
 8008258:	d102      	bne.n	8008260 <getdaysofmonth+0x10>
 800825a:	f7ff ffe2 	bl	8008222 <isleapyear>
 800825e:	b918      	cbnz	r0, 8008268 <getdaysofmonth+0x18>
 8008260:	4b02      	ldr	r3, [pc, #8]	; (800826c <getdaysofmonth+0x1c>)
 8008262:	f853 0024 	ldr.w	r0, [r3, r4, lsl #2]
 8008266:	bd10      	pop	{r4, pc}
 8008268:	201d      	movs	r0, #29
 800826a:	e7fc      	b.n	8008266 <getdaysofmonth+0x16>
 800826c:	0800bcf4 	stmdaeq	r0, {r2, r4, r5, r6, r7, sl, fp, ip, sp, pc}

08008270 <localtime>:
 8008270:	b570      	push	{r4, r5, r6, lr}
 8008272:	2800      	cmp	r0, #0
 8008274:	d03c      	beq.n	80082f0 <localtime+0x80>
 8008276:	6803      	ldr	r3, [r0, #0]
 8008278:	4d1e      	ldr	r5, [pc, #120]	; (80082f4 <localtime+0x84>)
 800827a:	213c      	movs	r1, #60	; 0x3c
 800827c:	fb93 f2f1 	sdiv	r2, r3, r1
 8008280:	fb01 3312 	mls	r3, r1, r2, r3
 8008284:	602b      	str	r3, [r5, #0]
 8008286:	fb92 f3f1 	sdiv	r3, r2, r1
 800828a:	fb01 2213 	mls	r2, r1, r3, r2
 800828e:	606a      	str	r2, [r5, #4]
 8008290:	2218      	movs	r2, #24
 8008292:	fb93 f4f2 	sdiv	r4, r3, r2
 8008296:	fb02 3314 	mls	r3, r2, r4, r3
 800829a:	60ab      	str	r3, [r5, #8]
 800829c:	1d22      	adds	r2, r4, #4
 800829e:	2307      	movs	r3, #7
 80082a0:	fb92 f3f3 	sdiv	r3, r2, r3
 80082a4:	ebc3 03c3 	rsb	r3, r3, r3, lsl #3
 80082a8:	1ad2      	subs	r2, r2, r3
 80082aa:	61aa      	str	r2, [r5, #24]
 80082ac:	f240 71b2 	movw	r1, #1970	; 0x7b2
 80082b0:	f240 166d 	movw	r6, #365	; 0x16d
 80082b4:	4608      	mov	r0, r1
 80082b6:	f7ff ffb4 	bl	8008222 <isleapyear>
 80082ba:	2800      	cmp	r0, #0
 80082bc:	bf0c      	ite	eq
 80082be:	4633      	moveq	r3, r6
 80082c0:	f44f 73b7 	movne.w	r3, #366	; 0x16e
 80082c4:	429c      	cmp	r4, r3
 80082c6:	db02      	blt.n	80082ce <localtime+0x5e>
 80082c8:	1ae4      	subs	r4, r4, r3
 80082ca:	3101      	adds	r1, #1
 80082cc:	e7f2      	b.n	80082b4 <localtime+0x44>
 80082ce:	f2a1 736c 	subw	r3, r1, #1900	; 0x76c
 80082d2:	616b      	str	r3, [r5, #20]
 80082d4:	61ec      	str	r4, [r5, #28]
 80082d6:	2600      	movs	r6, #0
 80082d8:	4630      	mov	r0, r6
 80082da:	f7ff ffb9 	bl	8008250 <getdaysofmonth>
 80082de:	4284      	cmp	r4, r0
 80082e0:	db02      	blt.n	80082e8 <localtime+0x78>
 80082e2:	1a24      	subs	r4, r4, r0
 80082e4:	3601      	adds	r6, #1
 80082e6:	e7f7      	b.n	80082d8 <localtime+0x68>
 80082e8:	3401      	adds	r4, #1
 80082ea:	4802      	ldr	r0, [pc, #8]	; (80082f4 <localtime+0x84>)
 80082ec:	612e      	str	r6, [r5, #16]
 80082ee:	60ec      	str	r4, [r5, #12]
 80082f0:	bd70      	pop	{r4, r5, r6, pc}
 80082f2:	bf00      	nop
 80082f4:	20002760 	andcs	r2, r0, r0, ror #14

080082f8 <mktime>:
 80082f8:	e92d 41f0 	stmdb	sp!, {r4, r5, r6, r7, r8, lr}
 80082fc:	4604      	mov	r4, r0
 80082fe:	2800      	cmp	r0, #0
 8008300:	d043      	beq.n	800838a <mktime+0x92>
 8008302:	6941      	ldr	r1, [r0, #20]
 8008304:	f1a1 0346 	sub.w	r3, r1, #70	; 0x46
 8008308:	2b45      	cmp	r3, #69	; 0x45
 800830a:	d83e      	bhi.n	800838a <mktime+0x92>
 800830c:	2600      	movs	r6, #0
 800830e:	f240 75b2 	movw	r5, #1970	; 0x7b2
 8008312:	f201 776b 	addw	r7, r1, #1899	; 0x76b
 8008316:	f240 186d 	movw	r8, #365	; 0x16d
 800831a:	42af      	cmp	r7, r5
 800831c:	da24      	bge.n	8008368 <mktime+0x70>
 800831e:	6927      	ldr	r7, [r4, #16]
 8008320:	2f0b      	cmp	r7, #11
 8008322:	d832      	bhi.n	800838a <mktime+0x92>
 8008324:	2500      	movs	r5, #0
 8008326:	42af      	cmp	r7, r5
 8008328:	d129      	bne.n	800837e <mktime+0x86>
 800832a:	68e5      	ldr	r5, [r4, #12]
 800832c:	2d00      	cmp	r5, #0
 800832e:	dd2c      	ble.n	800838a <mktime+0x92>
 8008330:	4638      	mov	r0, r7
 8008332:	f7ff ff8d 	bl	8008250 <getdaysofmonth>
 8008336:	4285      	cmp	r5, r0
 8008338:	dc27      	bgt.n	800838a <mktime+0x92>
 800833a:	3d01      	subs	r5, #1
 800833c:	2318      	movs	r3, #24
 800833e:	4435      	add	r5, r6
 8008340:	435d      	muls	r5, r3
 8008342:	68a3      	ldr	r3, [r4, #8]
 8008344:	2b17      	cmp	r3, #23
 8008346:	d820      	bhi.n	800838a <mktime+0x92>
 8008348:	442b      	add	r3, r5
 800834a:	213c      	movs	r1, #60	; 0x3c
 800834c:	fb01 f203 	mul.w	r2, r1, r3
 8008350:	6863      	ldr	r3, [r4, #4]
 8008352:	2b3b      	cmp	r3, #59	; 0x3b
 8008354:	d819      	bhi.n	800838a <mktime+0x92>
 8008356:	6820      	ldr	r0, [r4, #0]
 8008358:	4413      	add	r3, r2
 800835a:	283b      	cmp	r0, #59	; 0x3b
 800835c:	fb01 f303 	mul.w	r3, r1, r3
 8008360:	d813      	bhi.n	800838a <mktime+0x92>
 8008362:	4418      	add	r0, r3
 8008364:	e8bd 81f0 	ldmia.w	sp!, {r4, r5, r6, r7, r8, pc}
 8008368:	4628      	mov	r0, r5
 800836a:	f7ff ff5a 	bl	8008222 <isleapyear>
 800836e:	2800      	cmp	r0, #0
 8008370:	bf0c      	ite	eq
 8008372:	4643      	moveq	r3, r8
 8008374:	f44f 73b7 	movne.w	r3, #366	; 0x16e
 8008378:	441e      	add	r6, r3
 800837a:	3501      	adds	r5, #1
 800837c:	e7cd      	b.n	800831a <mktime+0x22>
 800837e:	4628      	mov	r0, r5
 8008380:	f7ff ff66 	bl	8008250 <getdaysofmonth>
 8008384:	3501      	adds	r5, #1
 8008386:	4406      	add	r6, r0
 8008388:	e7cd      	b.n	8008326 <mktime+0x2e>
 800838a:	f04f 30ff 	mov.w	r0, #4294967295	; 0xffffffff
 800838e:	e7e9      	b.n	8008364 <mktime+0x6c>

08008390 <gettimeofday>:
 8008390:	4b13      	ldr	r3, [pc, #76]	; (80083e0 <gettimeofday+0x50>)
 8008392:	4914      	ldr	r1, [pc, #80]	; (80083e4 <gettimeofday+0x54>)
 8008394:	681a      	ldr	r2, [r3, #0]
 8008396:	680b      	ldr	r3, [r1, #0]
 8008398:	b530      	push	{r4, r5, lr}
 800839a:	600a      	str	r2, [r1, #0]
 800839c:	4912      	ldr	r1, [pc, #72]	; (80083e8 <gettimeofday+0x58>)
 800839e:	4293      	cmp	r3, r2
 80083a0:	680c      	ldr	r4, [r1, #0]
 80083a2:	bf2c      	ite	cs
 80083a4:	1a9b      	subcs	r3, r3, r2
 80083a6:	1ad3      	subcc	r3, r2, r3
 80083a8:	f44f 757a 	mov.w	r5, #1000	; 0x3e8
 80083ac:	fbb3 f2f5 	udiv	r2, r3, r5
 80083b0:	4414      	add	r4, r2
 80083b2:	fb05 3212 	mls	r2, r5, r2, r3
 80083b6:	684b      	ldr	r3, [r1, #4]
 80083b8:	600c      	str	r4, [r1, #0]
 80083ba:	fb05 3302 	mla	r3, r5, r2, r3
 80083be:	4a0b      	ldr	r2, [pc, #44]	; (80083ec <gettimeofday+0x5c>)
 80083c0:	604b      	str	r3, [r1, #4]
 80083c2:	4293      	cmp	r3, r2
 80083c4:	dd06      	ble.n	80083d4 <gettimeofday+0x44>
 80083c6:	f5c3 2374 	rsb	r3, r3, #999424	; 0xf4000
 80083ca:	3401      	adds	r4, #1
 80083cc:	f503 7310 	add.w	r3, r3, #576	; 0x240
 80083d0:	600c      	str	r4, [r1, #0]
 80083d2:	604b      	str	r3, [r1, #4]
 80083d4:	680b      	ldr	r3, [r1, #0]
 80083d6:	6003      	str	r3, [r0, #0]
 80083d8:	684b      	ldr	r3, [r1, #4]
 80083da:	6043      	str	r3, [r0, #4]
 80083dc:	2000      	movs	r0, #0
 80083de:	bd30      	pop	{r4, r5, pc}
 80083e0:	20008794 	mulcs	r0, r4, r7
 80083e4:	2000278c 	andcs	r2, r0, ip, lsl #15
 80083e8:	20002784 	andcs	r2, r0, r4, lsl #15
 80083ec:	000f423f 	andeq	r4, pc, pc, lsr r2	; <UNPREDICTABLE>

080083f0 <settimeofday>:
 80083f0:	4b05      	ldr	r3, [pc, #20]	; (8008408 <settimeofday+0x18>)
 80083f2:	681a      	ldr	r2, [r3, #0]
 80083f4:	4b05      	ldr	r3, [pc, #20]	; (800840c <settimeofday+0x1c>)
 80083f6:	601a      	str	r2, [r3, #0]
 80083f8:	4b05      	ldr	r3, [pc, #20]	; (8008410 <settimeofday+0x20>)
 80083fa:	6802      	ldr	r2, [r0, #0]
 80083fc:	601a      	str	r2, [r3, #0]
 80083fe:	6842      	ldr	r2, [r0, #4]
 8008400:	605a      	str	r2, [r3, #4]
 8008402:	2000      	movs	r0, #0
 8008404:	4770      	bx	lr
 8008406:	bf00      	nop
 8008408:	20008794 	mulcs	r0, r4, r7
 800840c:	2000278c 	andcs	r2, r0, ip, lsl #15
 8008410:	20002784 	andcs	r2, r0, r4, lsl #15

08008414 <time>:
 8008414:	b513      	push	{r0, r1, r4, lr}
 8008416:	4604      	mov	r4, r0
 8008418:	2100      	movs	r1, #0
 800841a:	4668      	mov	r0, sp
 800841c:	f7ff ffb8 	bl	8008390 <gettimeofday>
 8008420:	9800      	ldr	r0, [sp, #0]
 8008422:	b104      	cbz	r4, 8008426 <time+0x12>
 8008424:	6020      	str	r0, [r4, #0]
 8008426:	b002      	add	sp, #8
 8008428:	bd10      	pop	{r4, pc}
	...

0800842c <SystemInit>:
 800842c:	4a49      	ldr	r2, [pc, #292]	; (8008554 <SystemInit+0x128>)
 800842e:	f8d2 3088 	ldr.w	r3, [r2, #136]	; 0x88
 8008432:	f443 0370 	orr.w	r3, r3, #15728640	; 0xf00000
 8008436:	f8c2 3088 	str.w	r3, [r2, #136]	; 0x88
 800843a:	4b47      	ldr	r3, [pc, #284]	; (8008558 <SystemInit+0x12c>)
 800843c:	681a      	ldr	r2, [r3, #0]
 800843e:	f042 0201 	orr.w	r2, r2, #1
 8008442:	b082      	sub	sp, #8
 8008444:	601a      	str	r2, [r3, #0]
 8008446:	681a      	ldr	r2, [r3, #0]
 8008448:	0792      	lsls	r2, r2, #30
 800844a:	d5fc      	bpl.n	8008446 <SystemInit+0x1a>
 800844c:	685a      	ldr	r2, [r3, #4]
 800844e:	f042 0280 	orr.w	r2, r2, #128	; 0x80
 8008452:	605a      	str	r2, [r3, #4]
 8008454:	2200      	movs	r2, #0
 8008456:	9201      	str	r2, [sp, #4]
 8008458:	9a01      	ldr	r2, [sp, #4]
 800845a:	2a4f      	cmp	r2, #79	; 0x4f
 800845c:	d92b      	bls.n	80084b6 <SystemInit+0x8a>
 800845e:	685a      	ldr	r2, [r3, #4]
 8008460:	f042 0290 	orr.w	r2, r2, #144	; 0x90
 8008464:	605a      	str	r2, [r3, #4]
 8008466:	2200      	movs	r2, #0
 8008468:	9201      	str	r2, [sp, #4]
 800846a:	9a01      	ldr	r2, [sp, #4]
 800846c:	2a4f      	cmp	r2, #79	; 0x4f
 800846e:	d925      	bls.n	80084bc <SystemInit+0x90>
 8008470:	685a      	ldr	r2, [r3, #4]
 8008472:	f022 0203 	bic.w	r2, r2, #3
 8008476:	605a      	str	r2, [r3, #4]
 8008478:	681a      	ldr	r2, [r3, #0]
 800847a:	f022 7284 	bic.w	r2, r2, #17301504	; 0x1080000
 800847e:	f422 3280 	bic.w	r2, r2, #65536	; 0x10000
 8008482:	601a      	str	r2, [r3, #0]
 8008484:	f44f 021f 	mov.w	r2, #10420224	; 0x9f0000
 8008488:	609a      	str	r2, [r3, #8]
 800848a:	681a      	ldr	r2, [r3, #0]
 800848c:	f422 2280 	bic.w	r2, r2, #262144	; 0x40000
 8008490:	601a      	str	r2, [r3, #0]
 8008492:	2200      	movs	r2, #0
 8008494:	605a      	str	r2, [r3, #4]
 8008496:	62da      	str	r2, [r3, #44]	; 0x2c
 8008498:	681a      	ldr	r2, [r3, #0]
 800849a:	f442 3280 	orr.w	r2, r2, #65536	; 0x10000
 800849e:	601a      	str	r2, [r3, #0]
 80084a0:	f64f 72ff 	movw	r2, #65535	; 0xffff
 80084a4:	6819      	ldr	r1, [r3, #0]
 80084a6:	0388      	lsls	r0, r1, #14
 80084a8:	d401      	bmi.n	80084ae <SystemInit+0x82>
 80084aa:	3a01      	subs	r2, #1
 80084ac:	d1fa      	bne.n	80084a4 <SystemInit+0x78>
 80084ae:	681a      	ldr	r2, [r3, #0]
 80084b0:	0391      	lsls	r1, r2, #14
 80084b2:	d406      	bmi.n	80084c2 <SystemInit+0x96>
 80084b4:	e7fe      	b.n	80084b4 <SystemInit+0x88>
 80084b6:	9a01      	ldr	r2, [sp, #4]
 80084b8:	3201      	adds	r2, #1
 80084ba:	e7cc      	b.n	8008456 <SystemInit+0x2a>
 80084bc:	9a01      	ldr	r2, [sp, #4]
 80084be:	3201      	adds	r2, #1
 80084c0:	e7d2      	b.n	8008468 <SystemInit+0x3c>
 80084c2:	69da      	ldr	r2, [r3, #28]
 80084c4:	4925      	ldr	r1, [pc, #148]	; (800855c <SystemInit+0x130>)
 80084c6:	f042 5280 	orr.w	r2, r2, #268435456	; 0x10000000
 80084ca:	61da      	str	r2, [r3, #28]
 80084cc:	680a      	ldr	r2, [r1, #0]
 80084ce:	f442 4240 	orr.w	r2, r2, #49152	; 0xc000
 80084d2:	600a      	str	r2, [r1, #0]
 80084d4:	685a      	ldr	r2, [r3, #4]
 80084d6:	605a      	str	r2, [r3, #4]
 80084d8:	685a      	ldr	r2, [r3, #4]
 80084da:	605a      	str	r2, [r3, #4]
 80084dc:	685a      	ldr	r2, [r3, #4]
 80084de:	f442 6280 	orr.w	r2, r2, #1024	; 0x400
 80084e2:	605a      	str	r2, [r3, #4]
 80084e4:	685a      	ldr	r2, [r3, #4]
 80084e6:	f422 3240 	bic.w	r2, r2, #196608	; 0x30000
 80084ea:	605a      	str	r2, [r3, #4]
 80084ec:	685a      	ldr	r2, [r3, #4]
 80084ee:	f442 3240 	orr.w	r2, r2, #196608	; 0x30000
 80084f2:	605a      	str	r2, [r3, #4]
 80084f4:	685a      	ldr	r2, [r3, #4]
 80084f6:	f022 4290 	bic.w	r2, r2, #1207959552	; 0x48000000
 80084fa:	f422 1270 	bic.w	r2, r2, #3932160	; 0x3c0000
 80084fe:	605a      	str	r2, [r3, #4]
 8008500:	685a      	ldr	r2, [r3, #4]
 8008502:	f042 6203 	orr.w	r2, r2, #137363456	; 0x8300000
 8008506:	f442 2280 	orr.w	r2, r2, #262144	; 0x40000
 800850a:	605a      	str	r2, [r3, #4]
 800850c:	681a      	ldr	r2, [r3, #0]
 800850e:	f042 7280 	orr.w	r2, r2, #16777216	; 0x1000000
 8008512:	601a      	str	r2, [r3, #0]
 8008514:	681a      	ldr	r2, [r3, #0]
 8008516:	0192      	lsls	r2, r2, #6
 8008518:	d5fc      	bpl.n	8008514 <SystemInit+0xe8>
 800851a:	680a      	ldr	r2, [r1, #0]
 800851c:	f442 3280 	orr.w	r2, r2, #65536	; 0x10000
 8008520:	600a      	str	r2, [r1, #0]
 8008522:	4a0e      	ldr	r2, [pc, #56]	; (800855c <SystemInit+0x130>)
 8008524:	6851      	ldr	r1, [r2, #4]
 8008526:	03c8      	lsls	r0, r1, #15
 8008528:	d5fc      	bpl.n	8008524 <SystemInit+0xf8>
 800852a:	6811      	ldr	r1, [r2, #0]
 800852c:	f441 3100 	orr.w	r1, r1, #131072	; 0x20000
 8008530:	6011      	str	r1, [r2, #0]
 8008532:	6851      	ldr	r1, [r2, #4]
 8008534:	0389      	lsls	r1, r1, #14
 8008536:	d5fc      	bpl.n	8008532 <SystemInit+0x106>
 8008538:	685a      	ldr	r2, [r3, #4]
 800853a:	f022 0203 	bic.w	r2, r2, #3
 800853e:	605a      	str	r2, [r3, #4]
 8008540:	685a      	ldr	r2, [r3, #4]
 8008542:	f042 0202 	orr.w	r2, r2, #2
 8008546:	605a      	str	r2, [r3, #4]
 8008548:	685a      	ldr	r2, [r3, #4]
 800854a:	0712      	lsls	r2, r2, #28
 800854c:	d5fc      	bpl.n	8008548 <SystemInit+0x11c>
 800854e:	b002      	add	sp, #8
 8008550:	4770      	bx	lr
 8008552:	bf00      	nop
 8008554:	e000ed00 	and	lr, r0, r0, lsl #26
 8008558:	40021000 	andmi	r1, r2, r0
 800855c:	40007000 	andmi	r7, r0, r0

08008560 <bkp_write_data>:
 8008560:	f1a0 030b 	sub.w	r3, r0, #11
 8008564:	2b1f      	cmp	r3, #31
 8008566:	d804      	bhi.n	8008572 <bkp_write_data+0x12>
 8008568:	4b07      	ldr	r3, [pc, #28]	; (8008588 <bkp_write_data+0x28>)
 800856a:	4403      	add	r3, r0
 800856c:	009b      	lsls	r3, r3, #2
 800856e:	8019      	strh	r1, [r3, #0]
 8008570:	4770      	bx	lr
 8008572:	1e43      	subs	r3, r0, #1
 8008574:	2b09      	cmp	r3, #9
 8008576:	bf9f      	itttt	ls
 8008578:	f100 5080 	addls.w	r0, r0, #268435456	; 0x10000000
 800857c:	f500 50d8 	addls.w	r0, r0, #6912	; 0x1b00
 8008580:	0080      	lslls	r0, r0, #2
 8008582:	8001      	strhls	r1, [r0, #0]
 8008584:	4770      	bx	lr
 8008586:	bf00      	nop
 8008588:	10001b05 	andne	r1, r0, r5, lsl #22

0800858c <bkp_read_data>:
 800858c:	f1a0 030b 	sub.w	r3, r0, #11
 8008590:	2b1f      	cmp	r3, #31
 8008592:	d805      	bhi.n	80085a0 <bkp_read_data+0x14>
 8008594:	4b08      	ldr	r3, [pc, #32]	; (80085b8 <bkp_read_data+0x2c>)
 8008596:	4403      	add	r3, r0
 8008598:	009b      	lsls	r3, r3, #2
 800859a:	8818      	ldrh	r0, [r3, #0]
 800859c:	b280      	uxth	r0, r0
 800859e:	4770      	bx	lr
 80085a0:	1e43      	subs	r3, r0, #1
 80085a2:	2b09      	cmp	r3, #9
 80085a4:	d806      	bhi.n	80085b4 <bkp_read_data+0x28>
 80085a6:	f100 5080 	add.w	r0, r0, #268435456	; 0x10000000
 80085aa:	f500 50d8 	add.w	r0, r0, #6912	; 0x1b00
 80085ae:	0080      	lsls	r0, r0, #2
 80085b0:	8800      	ldrh	r0, [r0, #0]
 80085b2:	e7f3      	b.n	800859c <bkp_read_data+0x10>
 80085b4:	2000      	movs	r0, #0
 80085b6:	4770      	bx	lr
 80085b8:	10001b05 	andne	r1, r0, r5, lsl #22

080085bc <dma_deinit>:
 80085bc:	4b0c      	ldr	r3, [pc, #48]	; (80085f0 <dma_deinit+0x34>)
 80085be:	4298      	cmp	r0, r3
 80085c0:	d102      	bne.n	80085c8 <dma_deinit+0xc>
 80085c2:	2904      	cmp	r1, #4
 80085c4:	d900      	bls.n	80085c8 <dma_deinit+0xc>
 80085c6:	e7fe      	b.n	80085c6 <dma_deinit+0xa>
 80085c8:	2314      	movs	r3, #20
 80085ca:	fb03 0301 	mla	r3, r3, r1, r0
 80085ce:	0089      	lsls	r1, r1, #2
 80085d0:	689a      	ldr	r2, [r3, #8]
 80085d2:	f022 0201 	bic.w	r2, r2, #1
 80085d6:	609a      	str	r2, [r3, #8]
 80085d8:	2200      	movs	r2, #0
 80085da:	609a      	str	r2, [r3, #8]
 80085dc:	60da      	str	r2, [r3, #12]
 80085de:	611a      	str	r2, [r3, #16]
 80085e0:	615a      	str	r2, [r3, #20]
 80085e2:	6842      	ldr	r2, [r0, #4]
 80085e4:	230f      	movs	r3, #15
 80085e6:	408b      	lsls	r3, r1
 80085e8:	4313      	orrs	r3, r2
 80085ea:	6043      	str	r3, [r0, #4]
 80085ec:	4770      	bx	lr
 80085ee:	bf00      	nop
 80085f0:	40020400 	andmi	r0, r2, r0, lsl #8

080085f4 <dma_struct_para_init>:
 80085f4:	b900      	cbnz	r0, 80085f8 <dma_struct_para_init+0x4>
 80085f6:	e7fe      	b.n	80085f6 <dma_struct_para_init+0x2>
 80085f8:	2300      	movs	r3, #0
 80085fa:	e9c0 3300 	strd	r3, r3, [r0]
 80085fe:	e9c0 3302 	strd	r3, r3, [r0, #8]
 8008602:	e9c0 3304 	strd	r3, r3, [r0, #16]
 8008606:	8303      	strh	r3, [r0, #24]
 8008608:	7683      	strb	r3, [r0, #26]
 800860a:	4770      	bx	lr

0800860c <dma_init>:
 800860c:	4b1b      	ldr	r3, [pc, #108]	; (800867c <dma_init+0x70>)
 800860e:	4298      	cmp	r0, r3
 8008610:	b510      	push	{r4, lr}
 8008612:	d102      	bne.n	800861a <dma_init+0xe>
 8008614:	2904      	cmp	r1, #4
 8008616:	d900      	bls.n	800861a <dma_init+0xe>
 8008618:	e7fe      	b.n	8008618 <dma_init+0xc>
 800861a:	2314      	movs	r3, #20
 800861c:	fb03 0101 	mla	r1, r3, r1, r0
 8008620:	6813      	ldr	r3, [r2, #0]
 8008622:	610b      	str	r3, [r1, #16]
 8008624:	6893      	ldr	r3, [r2, #8]
 8008626:	614b      	str	r3, [r1, #20]
 8008628:	8a13      	ldrh	r3, [r2, #16]
 800862a:	60cb      	str	r3, [r1, #12]
 800862c:	68d4      	ldr	r4, [r2, #12]
 800862e:	6853      	ldr	r3, [r2, #4]
 8008630:	6888      	ldr	r0, [r1, #8]
 8008632:	4323      	orrs	r3, r4
 8008634:	6954      	ldr	r4, [r2, #20]
 8008636:	f420 507c 	bic.w	r0, r0, #16128	; 0x3f00
 800863a:	4323      	orrs	r3, r4
 800863c:	4303      	orrs	r3, r0
 800863e:	608b      	str	r3, [r1, #8]
 8008640:	7e13      	ldrb	r3, [r2, #24]
 8008642:	2b01      	cmp	r3, #1
 8008644:	688b      	ldr	r3, [r1, #8]
 8008646:	bf0c      	ite	eq
 8008648:	f043 0340 	orreq.w	r3, r3, #64	; 0x40
 800864c:	f023 0340 	bicne.w	r3, r3, #64	; 0x40
 8008650:	608b      	str	r3, [r1, #8]
 8008652:	7e53      	ldrb	r3, [r2, #25]
 8008654:	2b01      	cmp	r3, #1
 8008656:	688b      	ldr	r3, [r1, #8]
 8008658:	bf0c      	ite	eq
 800865a:	f043 0380 	orreq.w	r3, r3, #128	; 0x80
 800865e:	f023 0380 	bicne.w	r3, r3, #128	; 0x80
 8008662:	608b      	str	r3, [r1, #8]
 8008664:	7e93      	ldrb	r3, [r2, #26]
 8008666:	b923      	cbnz	r3, 8008672 <dma_init+0x66>
 8008668:	688b      	ldr	r3, [r1, #8]
 800866a:	f023 0310 	bic.w	r3, r3, #16
 800866e:	608b      	str	r3, [r1, #8]
 8008670:	bd10      	pop	{r4, pc}
 8008672:	688b      	ldr	r3, [r1, #8]
 8008674:	f043 0310 	orr.w	r3, r3, #16
 8008678:	e7f9      	b.n	800866e <dma_init+0x62>
 800867a:	bf00      	nop
 800867c:	40020400 	andmi	r0, r2, r0, lsl #8

08008680 <dma_circulation_disable>:
 8008680:	4b06      	ldr	r3, [pc, #24]	; (800869c <dma_circulation_disable+0x1c>)
 8008682:	4298      	cmp	r0, r3
 8008684:	d102      	bne.n	800868c <dma_circulation_disable+0xc>
 8008686:	2904      	cmp	r1, #4
 8008688:	d900      	bls.n	800868c <dma_circulation_disable+0xc>
 800868a:	e7fe      	b.n	800868a <dma_circulation_disable+0xa>
 800868c:	2314      	movs	r3, #20
 800868e:	4359      	muls	r1, r3
 8008690:	3008      	adds	r0, #8
 8008692:	580b      	ldr	r3, [r1, r0]
 8008694:	f023 0320 	bic.w	r3, r3, #32
 8008698:	500b      	str	r3, [r1, r0]
 800869a:	4770      	bx	lr
 800869c:	40020400 	andmi	r0, r2, r0, lsl #8

080086a0 <dma_memory_to_memory_disable>:
 80086a0:	4b06      	ldr	r3, [pc, #24]	; (80086bc <dma_memory_to_memory_disable+0x1c>)
 80086a2:	4298      	cmp	r0, r3
 80086a4:	d102      	bne.n	80086ac <dma_memory_to_memory_disable+0xc>
 80086a6:	2904      	cmp	r1, #4
 80086a8:	d900      	bls.n	80086ac <dma_memory_to_memory_disable+0xc>
 80086aa:	e7fe      	b.n	80086aa <dma_memory_to_memory_disable+0xa>
 80086ac:	2314      	movs	r3, #20
 80086ae:	4359      	muls	r1, r3
 80086b0:	3008      	adds	r0, #8
 80086b2:	580b      	ldr	r3, [r1, r0]
 80086b4:	f423 4380 	bic.w	r3, r3, #16384	; 0x4000
 80086b8:	500b      	str	r3, [r1, r0]
 80086ba:	4770      	bx	lr
 80086bc:	40020400 	andmi	r0, r2, r0, lsl #8

080086c0 <dma_flag_clear>:
 80086c0:	6843      	ldr	r3, [r0, #4]
 80086c2:	0089      	lsls	r1, r1, #2
 80086c4:	408a      	lsls	r2, r1
 80086c6:	431a      	orrs	r2, r3
 80086c8:	6042      	str	r2, [r0, #4]
 80086ca:	4770      	bx	lr

080086cc <dma_interrupt_flag_get>:
 80086cc:	2a04      	cmp	r2, #4
 80086ce:	b510      	push	{r4, lr}
 80086d0:	4603      	mov	r3, r0
 80086d2:	d012      	beq.n	80086fa <dma_interrupt_flag_get+0x2e>
 80086d4:	2a08      	cmp	r2, #8
 80086d6:	d01b      	beq.n	8008710 <dma_interrupt_flag_get+0x44>
 80086d8:	2a02      	cmp	r2, #2
 80086da:	d124      	bne.n	8008726 <dma_interrupt_flag_get+0x5a>
 80086dc:	6800      	ldr	r0, [r0, #0]
 80086de:	008c      	lsls	r4, r1, #2
 80086e0:	40a2      	lsls	r2, r4
 80086e2:	4010      	ands	r0, r2
 80086e4:	2214      	movs	r2, #20
 80086e6:	fb02 3301 	mla	r3, r2, r1, r3
 80086ea:	689b      	ldr	r3, [r3, #8]
 80086ec:	f003 0302 	and.w	r3, r3, #2
 80086f0:	b110      	cbz	r0, 80086f8 <dma_interrupt_flag_get+0x2c>
 80086f2:	1e18      	subs	r0, r3, #0
 80086f4:	bf18      	it	ne
 80086f6:	2001      	movne	r0, #1
 80086f8:	bd10      	pop	{r4, pc}
 80086fa:	6800      	ldr	r0, [r0, #0]
 80086fc:	008c      	lsls	r4, r1, #2
 80086fe:	40a2      	lsls	r2, r4
 8008700:	4010      	ands	r0, r2
 8008702:	2214      	movs	r2, #20
 8008704:	fb02 3301 	mla	r3, r2, r1, r3
 8008708:	689b      	ldr	r3, [r3, #8]
 800870a:	f003 0304 	and.w	r3, r3, #4
 800870e:	e7ef      	b.n	80086f0 <dma_interrupt_flag_get+0x24>
 8008710:	6800      	ldr	r0, [r0, #0]
 8008712:	008c      	lsls	r4, r1, #2
 8008714:	40a2      	lsls	r2, r4
 8008716:	4010      	ands	r0, r2
 8008718:	2214      	movs	r2, #20
 800871a:	fb02 3301 	mla	r3, r2, r1, r3
 800871e:	689b      	ldr	r3, [r3, #8]
 8008720:	f003 0308 	and.w	r3, r3, #8
 8008724:	e7e4      	b.n	80086f0 <dma_interrupt_flag_get+0x24>
 8008726:	e7fe      	b.n	8008726 <dma_interrupt_flag_get+0x5a>

08008728 <dma_interrupt_flag_clear>:
 8008728:	f7ff bfca 	b.w	80086c0 <dma_flag_clear>

0800872c <dma_interrupt_disable>:
 800872c:	4b06      	ldr	r3, [pc, #24]	; (8008748 <dma_interrupt_disable+0x1c>)
 800872e:	4298      	cmp	r0, r3
 8008730:	d102      	bne.n	8008738 <dma_interrupt_disable+0xc>
 8008732:	2904      	cmp	r1, #4
 8008734:	d900      	bls.n	8008738 <dma_interrupt_disable+0xc>
 8008736:	e7fe      	b.n	8008736 <dma_interrupt_disable+0xa>
 8008738:	2314      	movs	r3, #20
 800873a:	4359      	muls	r1, r3
 800873c:	3008      	adds	r0, #8
 800873e:	580b      	ldr	r3, [r1, r0]
 8008740:	ea23 0202 	bic.w	r2, r3, r2
 8008744:	500a      	str	r2, [r1, r0]
 8008746:	4770      	bx	lr
 8008748:	40020400 	andmi	r0, r2, r0, lsl #8

0800874c <fmc_bank0_unlock>:
 800874c:	4b04      	ldr	r3, [pc, #16]	; (8008760 <fmc_bank0_unlock+0x14>)
 800874e:	691a      	ldr	r2, [r3, #16]
 8008750:	0612      	lsls	r2, r2, #24
 8008752:	bf41      	itttt	mi
 8008754:	4a03      	ldrmi	r2, [pc, #12]	; (8008764 <fmc_bank0_unlock+0x18>)
 8008756:	605a      	strmi	r2, [r3, #4]
 8008758:	f102 3288 	addmi.w	r2, r2, #2290649224	; 0x88888888
 800875c:	605a      	strmi	r2, [r3, #4]
 800875e:	4770      	bx	lr
 8008760:	40022000 	andmi	r2, r2, r0
 8008764:	45670123 	strbmi	r0, [r7, #-291]!	; 0xfffffedd

08008768 <fmc_bank1_unlock>:
 8008768:	4b04      	ldr	r3, [pc, #16]	; (800877c <fmc_bank1_unlock+0x14>)
 800876a:	6d1a      	ldr	r2, [r3, #80]	; 0x50
 800876c:	0612      	lsls	r2, r2, #24
 800876e:	bf41      	itttt	mi
 8008770:	4a03      	ldrmi	r2, [pc, #12]	; (8008780 <fmc_bank1_unlock+0x18>)
 8008772:	645a      	strmi	r2, [r3, #68]	; 0x44
 8008774:	f102 3288 	addmi.w	r2, r2, #2290649224	; 0x88888888
 8008778:	645a      	strmi	r2, [r3, #68]	; 0x44
 800877a:	4770      	bx	lr
 800877c:	40022000 	andmi	r2, r2, r0
 8008780:	45670123 	strbmi	r0, [r7, #-291]!	; 0xfffffedd

08008784 <fmc_bank0_lock>:
 8008784:	4a02      	ldr	r2, [pc, #8]	; (8008790 <fmc_bank0_lock+0xc>)
 8008786:	6913      	ldr	r3, [r2, #16]
 8008788:	f043 0380 	orr.w	r3, r3, #128	; 0x80
 800878c:	6113      	str	r3, [r2, #16]
 800878e:	4770      	bx	lr
 8008790:	40022000 	andmi	r2, r2, r0

08008794 <fmc_bank1_lock>:
 8008794:	4a02      	ldr	r2, [pc, #8]	; (80087a0 <fmc_bank1_lock+0xc>)
 8008796:	6d13      	ldr	r3, [r2, #80]	; 0x50
 8008798:	f043 0380 	orr.w	r3, r3, #128	; 0x80
 800879c:	6513      	str	r3, [r2, #80]	; 0x50
 800879e:	4770      	bx	lr
 80087a0:	40022000 	andmi	r2, r2, r0

080087a4 <fmc_bank0_state_get>:
 80087a4:	4b07      	ldr	r3, [pc, #28]	; (80087c4 <fmc_bank0_state_get+0x20>)
 80087a6:	68da      	ldr	r2, [r3, #12]
 80087a8:	07d1      	lsls	r1, r2, #31
 80087aa:	d407      	bmi.n	80087bc <fmc_bank0_state_get+0x18>
 80087ac:	68da      	ldr	r2, [r3, #12]
 80087ae:	06d2      	lsls	r2, r2, #27
 80087b0:	d406      	bmi.n	80087c0 <fmc_bank0_state_get+0x1c>
 80087b2:	68d8      	ldr	r0, [r3, #12]
 80087b4:	f3c0 0080 	ubfx	r0, r0, #2, #1
 80087b8:	0040      	lsls	r0, r0, #1
 80087ba:	4770      	bx	lr
 80087bc:	2001      	movs	r0, #1
 80087be:	4770      	bx	lr
 80087c0:	2003      	movs	r0, #3
 80087c2:	4770      	bx	lr
 80087c4:	40022000 	andmi	r2, r2, r0

080087c8 <fmc_bank1_state_get>:
 80087c8:	4b07      	ldr	r3, [pc, #28]	; (80087e8 <fmc_bank1_state_get+0x20>)
 80087ca:	6cda      	ldr	r2, [r3, #76]	; 0x4c
 80087cc:	07d1      	lsls	r1, r2, #31
 80087ce:	d407      	bmi.n	80087e0 <fmc_bank1_state_get+0x18>
 80087d0:	6cda      	ldr	r2, [r3, #76]	; 0x4c
 80087d2:	06d2      	lsls	r2, r2, #27
 80087d4:	d406      	bmi.n	80087e4 <fmc_bank1_state_get+0x1c>
 80087d6:	6cd8      	ldr	r0, [r3, #76]	; 0x4c
 80087d8:	f3c0 0080 	ubfx	r0, r0, #2, #1
 80087dc:	0040      	lsls	r0, r0, #1
 80087de:	4770      	bx	lr
 80087e0:	2001      	movs	r0, #1
 80087e2:	4770      	bx	lr
 80087e4:	2003      	movs	r0, #3
 80087e6:	4770      	bx	lr
 80087e8:	40022000 	andmi	r2, r2, r0

080087ec <fwdgt_enable>:
 80087ec:	4b02      	ldr	r3, [pc, #8]	; (80087f8 <fwdgt_enable+0xc>)
 80087ee:	f64c 42cc 	movw	r2, #52428	; 0xcccc
 80087f2:	601a      	str	r2, [r3, #0]
 80087f4:	4770      	bx	lr
 80087f6:	bf00      	nop
 80087f8:	40003000 	andmi	r3, r0, r0

080087fc <fwdgt_counter_reload>:
 80087fc:	4b02      	ldr	r3, [pc, #8]	; (8008808 <fwdgt_counter_reload+0xc>)
 80087fe:	f64a 22aa 	movw	r2, #43690	; 0xaaaa
 8008802:	601a      	str	r2, [r3, #0]
 8008804:	4770      	bx	lr
 8008806:	bf00      	nop
 8008808:	40003000 	andmi	r3, r0, r0

0800880c <fwdgt_config>:
 800880c:	4a12      	ldr	r2, [pc, #72]	; (8008858 <fwdgt_config+0x4c>)
 800880e:	b510      	push	{r4, lr}
 8008810:	f245 5355 	movw	r3, #21845	; 0x5555
 8008814:	4c11      	ldr	r4, [pc, #68]	; (800885c <fwdgt_config+0x50>)
 8008816:	6013      	str	r3, [r2, #0]
 8008818:	68d3      	ldr	r3, [r2, #12]
 800881a:	3c01      	subs	r4, #1
 800881c:	f003 0301 	and.w	r3, r3, #1
 8008820:	d013      	beq.n	800884a <fwdgt_config+0x3e>
 8008822:	2b00      	cmp	r3, #0
 8008824:	d1f8      	bne.n	8008818 <fwdgt_config+0xc>
 8008826:	6051      	str	r1, [r2, #4]
 8008828:	490c      	ldr	r1, [pc, #48]	; (800885c <fwdgt_config+0x50>)
 800882a:	4a0b      	ldr	r2, [pc, #44]	; (8008858 <fwdgt_config+0x4c>)
 800882c:	68d3      	ldr	r3, [r2, #12]
 800882e:	3901      	subs	r1, #1
 8008830:	f003 0302 	and.w	r3, r3, #2
 8008834:	d00d      	beq.n	8008852 <fwdgt_config+0x46>
 8008836:	2b00      	cmp	r3, #0
 8008838:	d1f8      	bne.n	800882c <fwdgt_config+0x20>
 800883a:	f3c0 000b 	ubfx	r0, r0, #0, #12
 800883e:	f64a 23aa 	movw	r3, #43690	; 0xaaaa
 8008842:	6090      	str	r0, [r2, #8]
 8008844:	6013      	str	r3, [r2, #0]
 8008846:	2001      	movs	r0, #1
 8008848:	e002      	b.n	8008850 <fwdgt_config+0x44>
 800884a:	2b00      	cmp	r3, #0
 800884c:	d0eb      	beq.n	8008826 <fwdgt_config+0x1a>
 800884e:	2000      	movs	r0, #0
 8008850:	bd10      	pop	{r4, pc}
 8008852:	2b00      	cmp	r3, #0
 8008854:	d1fb      	bne.n	800884e <fwdgt_config+0x42>
 8008856:	e7f0      	b.n	800883a <fwdgt_config+0x2e>
 8008858:	40003000 	andmi	r3, r0, r0
 800885c:	000fffff 	strdeq	pc, [pc], -pc	; <UNPREDICTABLE>

08008860 <gpio_init>:
 8008860:	e92d 41f0 	stmdb	sp!, {r4, r5, r6, r7, r8, lr}
 8008864:	06cd      	lsls	r5, r1, #27
 8008866:	f001 040f 	and.w	r4, r1, #15
 800886a:	d508      	bpl.n	800887e <gpio_init+0x1e>
 800886c:	2a04      	cmp	r2, #4
 800886e:	bf01      	itttt	eq
 8008870:	6bc2      	ldreq	r2, [r0, #60]	; 0x3c
 8008872:	431a      	orreq	r2, r3
 8008874:	f044 0403 	orreq.w	r4, r4, #3
 8008878:	63c2      	streq	r2, [r0, #60]	; 0x3c
 800887a:	bf18      	it	ne
 800887c:	4314      	orrne	r4, r2
 800887e:	2500      	movs	r5, #0
 8008880:	f04f 0c01 	mov.w	ip, #1
 8008884:	f04f 0e0f 	mov.w	lr, #15
 8008888:	fa0c f605 	lsl.w	r6, ip, r5
 800888c:	401e      	ands	r6, r3
 800888e:	d00d      	beq.n	80088ac <gpio_init+0x4c>
 8008890:	00aa      	lsls	r2, r5, #2
 8008892:	6807      	ldr	r7, [r0, #0]
 8008894:	fa0e f802 	lsl.w	r8, lr, r2
 8008898:	ea27 0708 	bic.w	r7, r7, r8
 800889c:	fa04 f202 	lsl.w	r2, r4, r2
 80088a0:	2928      	cmp	r1, #40	; 0x28
 80088a2:	ea42 0207 	orr.w	r2, r2, r7
 80088a6:	d122      	bne.n	80088ee <gpio_init+0x8e>
 80088a8:	6146      	str	r6, [r0, #20]
 80088aa:	6002      	str	r2, [r0, #0]
 80088ac:	3501      	adds	r5, #1
 80088ae:	2d08      	cmp	r5, #8
 80088b0:	d1ea      	bne.n	8008888 <gpio_init+0x28>
 80088b2:	2600      	movs	r6, #0
 80088b4:	f04f 0c01 	mov.w	ip, #1
 80088b8:	f04f 0e0f 	mov.w	lr, #15
 80088bc:	f106 0208 	add.w	r2, r6, #8
 80088c0:	fa0c f202 	lsl.w	r2, ip, r2
 80088c4:	401a      	ands	r2, r3
 80088c6:	d00d      	beq.n	80088e4 <gpio_init+0x84>
 80088c8:	00b5      	lsls	r5, r6, #2
 80088ca:	6847      	ldr	r7, [r0, #4]
 80088cc:	fa0e f805 	lsl.w	r8, lr, r5
 80088d0:	ea27 0708 	bic.w	r7, r7, r8
 80088d4:	fa04 f505 	lsl.w	r5, r4, r5
 80088d8:	2928      	cmp	r1, #40	; 0x28
 80088da:	ea45 0507 	orr.w	r5, r5, r7
 80088de:	d10a      	bne.n	80088f6 <gpio_init+0x96>
 80088e0:	6142      	str	r2, [r0, #20]
 80088e2:	6045      	str	r5, [r0, #4]
 80088e4:	3601      	adds	r6, #1
 80088e6:	2e08      	cmp	r6, #8
 80088e8:	d1e8      	bne.n	80088bc <gpio_init+0x5c>
 80088ea:	e8bd 81f0 	ldmia.w	sp!, {r4, r5, r6, r7, r8, pc}
 80088ee:	2948      	cmp	r1, #72	; 0x48
 80088f0:	bf08      	it	eq
 80088f2:	6106      	streq	r6, [r0, #16]
 80088f4:	e7d9      	b.n	80088aa <gpio_init+0x4a>
 80088f6:	2948      	cmp	r1, #72	; 0x48
 80088f8:	bf08      	it	eq
 80088fa:	6102      	streq	r2, [r0, #16]
 80088fc:	e7f1      	b.n	80088e2 <gpio_init+0x82>

080088fe <gpio_input_bit_get>:
 80088fe:	6883      	ldr	r3, [r0, #8]
 8008900:	420b      	tst	r3, r1
 8008902:	bf14      	ite	ne
 8008904:	2001      	movne	r0, #1
 8008906:	2000      	moveq	r0, #0
 8008908:	4770      	bx	lr
	...

0800890c <gpio_pin_remap_config>:
 800890c:	2800      	cmp	r0, #0
 800890e:	4a16      	ldr	r2, [pc, #88]	; (8008968 <gpio_pin_remap_config+0x5c>)
 8008910:	b530      	push	{r4, r5, lr}
 8008912:	f400 1540 	and.w	r5, r0, #3145728	; 0x300000
 8008916:	bfb4      	ite	lt
 8008918:	69d3      	ldrlt	r3, [r2, #28]
 800891a:	6853      	ldrge	r3, [r2, #4]
 800891c:	f5b5 1f40 	cmp.w	r5, #3145728	; 0x300000
 8008920:	b284      	uxth	r4, r0
 8008922:	d110      	bne.n	8008946 <gpio_pin_remap_config+0x3a>
 8008924:	6855      	ldr	r5, [r2, #4]
 8008926:	f025 65e0 	bic.w	r5, r5, #117440512	; 0x7000000
 800892a:	f023 63e0 	bic.w	r3, r3, #117440512	; 0x7000000
 800892e:	6055      	str	r5, [r2, #4]
 8008930:	b119      	cbz	r1, 800893a <gpio_pin_remap_config+0x2e>
 8008932:	0d42      	lsrs	r2, r0, #21
 8008934:	0112      	lsls	r2, r2, #4
 8008936:	4094      	lsls	r4, r2
 8008938:	4323      	orrs	r3, r4
 800893a:	4a0b      	ldr	r2, [pc, #44]	; (8008968 <gpio_pin_remap_config+0x5c>)
 800893c:	2800      	cmp	r0, #0
 800893e:	bfb4      	ite	lt
 8008940:	61d3      	strlt	r3, [r2, #28]
 8008942:	6053      	strge	r3, [r2, #4]
 8008944:	bd30      	pop	{r4, r5, pc}
 8008946:	02c2      	lsls	r2, r0, #11
 8008948:	bf55      	itete	pl
 800894a:	0d42      	lsrpl	r2, r0, #21
 800894c:	2203      	movmi	r2, #3
 800894e:	0112      	lslpl	r2, r2, #4
 8008950:	f3c0 4503 	ubfxmi	r5, r0, #16, #4
 8008954:	bf4c      	ite	mi
 8008956:	40aa      	lslmi	r2, r5
 8008958:	fa04 f202 	lslpl.w	r2, r4, r2
 800895c:	ea23 0302 	bic.w	r3, r3, r2
 8008960:	f043 63e0 	orr.w	r3, r3, #117440512	; 0x7000000
 8008964:	e7e4      	b.n	8008930 <gpio_pin_remap_config+0x24>
 8008966:	bf00      	nop
 8008968:	40010000 	andmi	r0, r1, r0

0800896c <pmu_backup_write_enable>:
 800896c:	4a02      	ldr	r2, [pc, #8]	; (8008978 <pmu_backup_write_enable+0xc>)
 800896e:	6813      	ldr	r3, [r2, #0]
 8008970:	f443 7380 	orr.w	r3, r3, #256	; 0x100
 8008974:	6013      	str	r3, [r2, #0]
 8008976:	4770      	bx	lr
 8008978:	40007000 	andmi	r7, r0, r0

0800897c <rcu_periph_clock_enable>:
 800897c:	0983      	lsrs	r3, r0, #6
 800897e:	f103 4380 	add.w	r3, r3, #1073741824	; 0x40000000
 8008982:	f503 3304 	add.w	r3, r3, #135168	; 0x21000
 8008986:	f000 001f 	and.w	r0, r0, #31
 800898a:	6819      	ldr	r1, [r3, #0]
 800898c:	2201      	movs	r2, #1
 800898e:	4082      	lsls	r2, r0
 8008990:	430a      	orrs	r2, r1
 8008992:	601a      	str	r2, [r3, #0]
 8008994:	4770      	bx	lr

08008996 <rcu_periph_clock_disable>:
 8008996:	0983      	lsrs	r3, r0, #6
 8008998:	f103 4380 	add.w	r3, r3, #1073741824	; 0x40000000
 800899c:	f503 3304 	add.w	r3, r3, #135168	; 0x21000
 80089a0:	f000 001f 	and.w	r0, r0, #31
 80089a4:	681a      	ldr	r2, [r3, #0]
 80089a6:	2101      	movs	r1, #1
 80089a8:	4081      	lsls	r1, r0
 80089aa:	ea22 0201 	bic.w	r2, r2, r1
 80089ae:	601a      	str	r2, [r3, #0]
 80089b0:	4770      	bx	lr

080089b2 <rcu_periph_reset_enable>:
 80089b2:	f7ff bfe3 	b.w	800897c <rcu_periph_clock_enable>

080089b6 <rcu_periph_reset_disable>:
 80089b6:	f7ff bfee 	b.w	8008996 <rcu_periph_clock_disable>
	...

080089bc <rcu_adc_clock_config>:
 80089bc:	4913      	ldr	r1, [pc, #76]	; (8008a0c <rcu_adc_clock_config+0x50>)
 80089be:	684b      	ldr	r3, [r1, #4]
 80089c0:	6aca      	ldr	r2, [r1, #44]	; 0x2c
 80089c2:	f023 5380 	bic.w	r3, r3, #268435456	; 0x10000000
 80089c6:	b510      	push	{r4, lr}
 80089c8:	f423 4340 	bic.w	r3, r3, #49152	; 0xc000
 80089cc:	f022 5200 	bic.w	r2, r2, #536870912	; 0x20000000
 80089d0:	280b      	cmp	r0, #11
 80089d2:	d809      	bhi.n	80089e8 <rcu_adc_clock_config+0x2c>
 80089d4:	e8df f000 	tbb	[pc, r0]
 80089d8:	06060606 	streq	r0, [r6], -r6, lsl #12
 80089dc:	0b080b08 	bleq	820b604 <_sidata+0x1ff8e0>
 80089e0:	12121212 	andsne	r1, r2, #536870913	; 0x20000001
 80089e4:	ea43 3380 	orr.w	r3, r3, r0, lsl #14
 80089e8:	604b      	str	r3, [r1, #4]
 80089ea:	62ca      	str	r2, [r1, #44]	; 0x2c
 80089ec:	bd10      	pop	{r4, pc}
 80089ee:	4c08      	ldr	r4, [pc, #32]	; (8008a10 <rcu_adc_clock_config+0x54>)
 80089f0:	ea04 3080 	and.w	r0, r4, r0, lsl #14
 80089f4:	4303      	orrs	r3, r0
 80089f6:	f043 5380 	orr.w	r3, r3, #268435456	; 0x10000000
 80089fa:	e7f5      	b.n	80089e8 <rcu_adc_clock_config+0x2c>
 80089fc:	4c05      	ldr	r4, [pc, #20]	; (8008a14 <rcu_adc_clock_config+0x58>)
 80089fe:	ea04 3080 	and.w	r0, r4, r0, lsl #14
 8008a02:	4303      	orrs	r3, r0
 8008a04:	f042 5200 	orr.w	r2, r2, #536870912	; 0x20000000
 8008a08:	e7ee      	b.n	80089e8 <rcu_adc_clock_config+0x2c>
 8008a0a:	bf00      	nop
 8008a0c:	40021000 	andmi	r1, r2, r0
 8008a10:	fffec000 			; <UNDEFINED> instruction: 0xfffec000
 8008a14:	fffcc000 			; <UNDEFINED> instruction: 0xfffcc000

08008a18 <rcu_rtc_clock_config>:
 8008a18:	4a03      	ldr	r2, [pc, #12]	; (8008a28 <rcu_rtc_clock_config+0x10>)
 8008a1a:	6a13      	ldr	r3, [r2, #32]
 8008a1c:	f423 7340 	bic.w	r3, r3, #768	; 0x300
 8008a20:	4303      	orrs	r3, r0
 8008a22:	6213      	str	r3, [r2, #32]
 8008a24:	4770      	bx	lr
 8008a26:	bf00      	nop
 8008a28:	40021000 	andmi	r1, r2, r0

08008a2c <rcu_osci_on>:
 8008a2c:	f7ff bfa6 	b.w	800897c <rcu_periph_clock_enable>

08008a30 <rcu_clock_freq_get>:
 8008a30:	b5f0      	push	{r4, r5, r6, r7, lr}
 8008a32:	4b38      	ldr	r3, [pc, #224]	; (8008b14 <rcu_clock_freq_get+0xe4>)
 8008a34:	b089      	sub	sp, #36	; 0x24
 8008a36:	4604      	mov	r4, r0
 8008a38:	ad04      	add	r5, sp, #16
 8008a3a:	f103 0610 	add.w	r6, r3, #16
 8008a3e:	461f      	mov	r7, r3
 8008a40:	6818      	ldr	r0, [r3, #0]
 8008a42:	6859      	ldr	r1, [r3, #4]
 8008a44:	462a      	mov	r2, r5
 8008a46:	c203      	stmia	r2!, {r0, r1}
 8008a48:	3308      	adds	r3, #8
 8008a4a:	42b3      	cmp	r3, r6
 8008a4c:	4615      	mov	r5, r2
 8008a4e:	d1f7      	bne.n	8008a40 <rcu_clock_freq_get+0x10>
 8008a50:	6938      	ldr	r0, [r7, #16]
 8008a52:	6871      	ldr	r1, [r6, #4]
 8008a54:	4a30      	ldr	r2, [pc, #192]	; (8008b18 <rcu_clock_freq_get+0xe8>)
 8008a56:	466b      	mov	r3, sp
 8008a58:	c303      	stmia	r3!, {r0, r1}
 8008a5a:	c303      	stmia	r3!, {r0, r1}
 8008a5c:	6853      	ldr	r3, [r2, #4]
 8008a5e:	f3c3 0381 	ubfx	r3, r3, #2, #2
 8008a62:	2b02      	cmp	r3, #2
 8008a64:	d149      	bne.n	8008afa <rcu_clock_freq_get+0xca>
 8008a66:	6853      	ldr	r3, [r2, #4]
 8008a68:	03df      	lsls	r7, r3, #15
 8008a6a:	d517      	bpl.n	8008a9c <rcu_clock_freq_get+0x6c>
 8008a6c:	6ad3      	ldr	r3, [r2, #44]	; 0x2c
 8008a6e:	492b      	ldr	r1, [pc, #172]	; (8008b1c <rcu_clock_freq_get+0xec>)
 8008a70:	f013 4f80 	tst.w	r3, #1073741824	; 0x40000000
 8008a74:	4b2a      	ldr	r3, [pc, #168]	; (8008b20 <rcu_clock_freq_get+0xf0>)
 8008a76:	bf08      	it	eq
 8008a78:	4619      	moveq	r1, r3
 8008a7a:	6853      	ldr	r3, [r2, #4]
 8008a7c:	039e      	lsls	r6, r3, #14
 8008a7e:	d500      	bpl.n	8008a82 <rcu_clock_freq_get+0x52>
 8008a80:	0849      	lsrs	r1, r1, #1
 8008a82:	6853      	ldr	r3, [r2, #4]
 8008a84:	6850      	ldr	r0, [r2, #4]
 8008a86:	f010 6f00 	tst.w	r0, #134217728	; 0x8000000
 8008a8a:	f3c3 4383 	ubfx	r3, r3, #18, #4
 8008a8e:	6850      	ldr	r0, [r2, #4]
 8008a90:	d006      	beq.n	8008aa0 <rcu_clock_freq_get+0x70>
 8008a92:	0045      	lsls	r5, r0, #1
 8008a94:	d40a      	bmi.n	8008aac <rcu_clock_freq_get+0x7c>
 8008a96:	f043 0310 	orr.w	r3, r3, #16
 8008a9a:	e005      	b.n	8008aa8 <rcu_clock_freq_get+0x78>
 8008a9c:	4921      	ldr	r1, [pc, #132]	; (8008b24 <rcu_clock_freq_get+0xf4>)
 8008a9e:	e7f0      	b.n	8008a82 <rcu_clock_freq_get+0x52>
 8008aa0:	0040      	lsls	r0, r0, #1
 8008aa2:	d526      	bpl.n	8008af2 <rcu_clock_freq_get+0xc2>
 8008aa4:	f043 0320 	orr.w	r3, r3, #32
 8008aa8:	3301      	adds	r3, #1
 8008aaa:	e003      	b.n	8008ab4 <rcu_clock_freq_get+0x84>
 8008aac:	f043 0330 	orr.w	r3, r3, #48	; 0x30
 8008ab0:	2b3f      	cmp	r3, #63	; 0x3f
 8008ab2:	d1f9      	bne.n	8008aa8 <rcu_clock_freq_get+0x78>
 8008ab4:	fb01 f003 	mul.w	r0, r1, r3
 8008ab8:	6853      	ldr	r3, [r2, #4]
 8008aba:	6851      	ldr	r1, [r2, #4]
 8008abc:	6852      	ldr	r2, [r2, #4]
 8008abe:	f3c3 1303 	ubfx	r3, r3, #4, #4
 8008ac2:	3320      	adds	r3, #32
 8008ac4:	446b      	add	r3, sp
 8008ac6:	f3c1 2102 	ubfx	r1, r1, #8, #3
 8008aca:	f3c2 22c2 	ubfx	r2, r2, #11, #3
 8008ace:	3120      	adds	r1, #32
 8008ad0:	3220      	adds	r2, #32
 8008ad2:	f813 3c10 	ldrb.w	r3, [r3, #-16]
 8008ad6:	4469      	add	r1, sp
 8008ad8:	446a      	add	r2, sp
 8008ada:	f811 1c20 	ldrb.w	r1, [r1, #-32]
 8008ade:	f812 2c18 	ldrb.w	r2, [r2, #-24]
 8008ae2:	fa20 f303 	lsr.w	r3, r0, r3
 8008ae6:	2c03      	cmp	r4, #3
 8008ae8:	d809      	bhi.n	8008afe <rcu_clock_freq_get+0xce>
 8008aea:	e8df f004 	tbb	[pc, r4]
 8008aee:	100d0b09 	andne	r0, sp, r9, lsl #22
 8008af2:	2b0f      	cmp	r3, #15
 8008af4:	d0d8      	beq.n	8008aa8 <rcu_clock_freq_get+0x78>
 8008af6:	3302      	adds	r3, #2
 8008af8:	e7dc      	b.n	8008ab4 <rcu_clock_freq_get+0x84>
 8008afa:	4809      	ldr	r0, [pc, #36]	; (8008b20 <rcu_clock_freq_get+0xf0>)
 8008afc:	e7dc      	b.n	8008ab8 <rcu_clock_freq_get+0x88>
 8008afe:	2000      	movs	r0, #0
 8008b00:	b009      	add	sp, #36	; 0x24
 8008b02:	bdf0      	pop	{r4, r5, r6, r7, pc}
 8008b04:	4618      	mov	r0, r3
 8008b06:	e7fb      	b.n	8008b00 <rcu_clock_freq_get+0xd0>
 8008b08:	fa23 f001 	lsr.w	r0, r3, r1
 8008b0c:	e7f8      	b.n	8008b00 <rcu_clock_freq_get+0xd0>
 8008b0e:	fa23 f002 	lsr.w	r0, r3, r2
 8008b12:	e7f5      	b.n	8008b00 <rcu_clock_freq_get+0xd0>
 8008b14:	08009c89 	stmdaeq	r0, {r0, r3, r7, sl, fp, ip, pc}
 8008b18:	40021000 	andmi	r1, r2, r0
 8008b1c:	02dc6c00 	sbcseq	r6, ip, #0, 24
 8008b20:	007a1200 	rsbseq	r1, sl, r0, lsl #4
 8008b24:	003d0900 	eorseq	r0, sp, r0, lsl #18

08008b28 <rcu_flag_get>:
 8008b28:	0983      	lsrs	r3, r0, #6
 8008b2a:	f103 4380 	add.w	r3, r3, #1073741824	; 0x40000000
 8008b2e:	f503 3304 	add.w	r3, r3, #135168	; 0x21000
 8008b32:	f000 001f 	and.w	r0, r0, #31
 8008b36:	681b      	ldr	r3, [r3, #0]
 8008b38:	fa23 f000 	lsr.w	r0, r3, r0
 8008b3c:	f000 0001 	and.w	r0, r0, #1
 8008b40:	4770      	bx	lr
	...

08008b44 <rcu_osci_stab_wait>:
 8008b44:	f5b0 6f00 	cmp.w	r0, #2048	; 0x800
 8008b48:	b508      	push	{r3, lr}
 8008b4a:	d028      	beq.n	8008b9e <rcu_osci_stab_wait+0x5a>
 8008b4c:	d806      	bhi.n	8008b5c <rcu_osci_stab_wait+0x18>
 8008b4e:	2810      	cmp	r0, #16
 8008b50:	d016      	beq.n	8008b80 <rcu_osci_stab_wait+0x3c>
 8008b52:	2818      	cmp	r0, #24
 8008b54:	d044      	beq.n	8008be0 <rcu_osci_stab_wait+0x9c>
 8008b56:	b370      	cbz	r0, 8008bb6 <rcu_osci_stab_wait+0x72>
 8008b58:	2000      	movs	r0, #0
 8008b5a:	bd08      	pop	{r3, pc}
 8008b5c:	f5b0 6f10 	cmp.w	r0, #2304	; 0x900
 8008b60:	d033      	beq.n	8008bca <rcu_osci_stab_wait+0x86>
 8008b62:	f243 0310 	movw	r3, #12304	; 0x3010
 8008b66:	4298      	cmp	r0, r3
 8008b68:	d1f6      	bne.n	8008b58 <rcu_osci_stab_wait+0x14>
 8008b6a:	4a22      	ldr	r2, [pc, #136]	; (8008bf4 <rcu_osci_stab_wait+0xb0>)
 8008b6c:	f243 0011 	movw	r0, #12305	; 0x3011
 8008b70:	f7ff ffda 	bl	8008b28 <rcu_flag_get>
 8008b74:	b908      	cbnz	r0, 8008b7a <rcu_osci_stab_wait+0x36>
 8008b76:	3a01      	subs	r2, #1
 8008b78:	d1f8      	bne.n	8008b6c <rcu_osci_stab_wait+0x28>
 8008b7a:	f243 0011 	movw	r0, #12305	; 0x3011
 8008b7e:	e008      	b.n	8008b92 <rcu_osci_stab_wait+0x4e>
 8008b80:	f64f 72ff 	movw	r2, #65535	; 0xffff
 8008b84:	2011      	movs	r0, #17
 8008b86:	f7ff ffcf 	bl	8008b28 <rcu_flag_get>
 8008b8a:	b908      	cbnz	r0, 8008b90 <rcu_osci_stab_wait+0x4c>
 8008b8c:	3a01      	subs	r2, #1
 8008b8e:	d1f9      	bne.n	8008b84 <rcu_osci_stab_wait+0x40>
 8008b90:	2011      	movs	r0, #17
 8008b92:	f7ff ffc9 	bl	8008b28 <rcu_flag_get>
 8008b96:	3800      	subs	r0, #0
 8008b98:	bf18      	it	ne
 8008b9a:	2001      	movne	r0, #1
 8008b9c:	e7dd      	b.n	8008b5a <rcu_osci_stab_wait+0x16>
 8008b9e:	f06f 427c 	mvn.w	r2, #4227858432	; 0xfc000000
 8008ba2:	f640 0001 	movw	r0, #2049	; 0x801
 8008ba6:	f7ff ffbf 	bl	8008b28 <rcu_flag_get>
 8008baa:	b908      	cbnz	r0, 8008bb0 <rcu_osci_stab_wait+0x6c>
 8008bac:	3a01      	subs	r2, #1
 8008bae:	d1f8      	bne.n	8008ba2 <rcu_osci_stab_wait+0x5e>
 8008bb0:	f640 0001 	movw	r0, #2049	; 0x801
 8008bb4:	e7ed      	b.n	8008b92 <rcu_osci_stab_wait+0x4e>
 8008bb6:	f44f 62a0 	mov.w	r2, #1280	; 0x500
 8008bba:	2001      	movs	r0, #1
 8008bbc:	f7ff ffb4 	bl	8008b28 <rcu_flag_get>
 8008bc0:	b908      	cbnz	r0, 8008bc6 <rcu_osci_stab_wait+0x82>
 8008bc2:	3a01      	subs	r2, #1
 8008bc4:	d1f9      	bne.n	8008bba <rcu_osci_stab_wait+0x76>
 8008bc6:	2001      	movs	r0, #1
 8008bc8:	e7e3      	b.n	8008b92 <rcu_osci_stab_wait+0x4e>
 8008bca:	4a0a      	ldr	r2, [pc, #40]	; (8008bf4 <rcu_osci_stab_wait+0xb0>)
 8008bcc:	f640 1001 	movw	r0, #2305	; 0x901
 8008bd0:	f7ff ffaa 	bl	8008b28 <rcu_flag_get>
 8008bd4:	b908      	cbnz	r0, 8008bda <rcu_osci_stab_wait+0x96>
 8008bd6:	3a01      	subs	r2, #1
 8008bd8:	d1f8      	bne.n	8008bcc <rcu_osci_stab_wait+0x88>
 8008bda:	f640 1001 	movw	r0, #2305	; 0x901
 8008bde:	e7d8      	b.n	8008b92 <rcu_osci_stab_wait+0x4e>
 8008be0:	4a04      	ldr	r2, [pc, #16]	; (8008bf4 <rcu_osci_stab_wait+0xb0>)
 8008be2:	2019      	movs	r0, #25
 8008be4:	f7ff ffa0 	bl	8008b28 <rcu_flag_get>
 8008be8:	b908      	cbnz	r0, 8008bee <rcu_osci_stab_wait+0xaa>
 8008bea:	3a01      	subs	r2, #1
 8008bec:	d1f9      	bne.n	8008be2 <rcu_osci_stab_wait+0x9e>
 8008bee:	2019      	movs	r0, #25
 8008bf0:	e7cf      	b.n	8008b92 <rcu_osci_stab_wait+0x4e>
 8008bf2:	bf00      	nop
 8008bf4:	000fffff 	strdeq	pc, [pc], -pc	; <UNPREDICTABLE>

08008bf8 <rtc_configuration_mode_enter>:
 8008bf8:	4a03      	ldr	r2, [pc, #12]	; (8008c08 <rtc_configuration_mode_enter+0x10>)
 8008bfa:	f8d2 3804 	ldr.w	r3, [r2, #2052]	; 0x804
 8008bfe:	f043 0310 	orr.w	r3, r3, #16
 8008c02:	f8c2 3804 	str.w	r3, [r2, #2052]	; 0x804
 8008c06:	4770      	bx	lr
 8008c08:	40002000 	andmi	r2, r0, r0

08008c0c <rtc_configuration_mode_exit>:
 8008c0c:	4a03      	ldr	r2, [pc, #12]	; (8008c1c <rtc_configuration_mode_exit+0x10>)
 8008c0e:	f8d2 3804 	ldr.w	r3, [r2, #2052]	; 0x804
 8008c12:	f023 0310 	bic.w	r3, r3, #16
 8008c16:	f8c2 3804 	str.w	r3, [r2, #2052]	; 0x804
 8008c1a:	4770      	bx	lr
 8008c1c:	40002000 	andmi	r2, r0, r0

08008c20 <rtc_lwoff_wait>:
 8008c20:	4a02      	ldr	r2, [pc, #8]	; (8008c2c <rtc_lwoff_wait+0xc>)
 8008c22:	f8d2 3804 	ldr.w	r3, [r2, #2052]	; 0x804
 8008c26:	069b      	lsls	r3, r3, #26
 8008c28:	d5fb      	bpl.n	8008c22 <rtc_lwoff_wait+0x2>
 8008c2a:	4770      	bx	lr
 8008c2c:	40002000 	andmi	r2, r0, r0

08008c30 <rtc_register_sync_wait>:
 8008c30:	4b05      	ldr	r3, [pc, #20]	; (8008c48 <rtc_register_sync_wait+0x18>)
 8008c32:	f8d3 2804 	ldr.w	r2, [r3, #2052]	; 0x804
 8008c36:	f022 0208 	bic.w	r2, r2, #8
 8008c3a:	f8c3 2804 	str.w	r2, [r3, #2052]	; 0x804
 8008c3e:	f8d3 2804 	ldr.w	r2, [r3, #2052]	; 0x804
 8008c42:	0712      	lsls	r2, r2, #28
 8008c44:	d5fb      	bpl.n	8008c3e <rtc_register_sync_wait+0xe>
 8008c46:	4770      	bx	lr
 8008c48:	40002000 	andmi	r2, r0, r0

08008c4c <rtc_counter_get>:
 8008c4c:	4b03      	ldr	r3, [pc, #12]	; (8008c5c <rtc_counter_get+0x10>)
 8008c4e:	f8d3 281c 	ldr.w	r2, [r3, #2076]	; 0x81c
 8008c52:	f8d3 0818 	ldr.w	r0, [r3, #2072]	; 0x818
 8008c56:	ea42 4000 	orr.w	r0, r2, r0, lsl #16
 8008c5a:	4770      	bx	lr
 8008c5c:	40002000 	andmi	r2, r0, r0

08008c60 <rtc_counter_set>:
 8008c60:	b508      	push	{r3, lr}
 8008c62:	f7ff ffc9 	bl	8008bf8 <rtc_configuration_mode_enter>
 8008c66:	4b05      	ldr	r3, [pc, #20]	; (8008c7c <rtc_counter_set+0x1c>)
 8008c68:	0c02      	lsrs	r2, r0, #16
 8008c6a:	b280      	uxth	r0, r0
 8008c6c:	f8c3 2818 	str.w	r2, [r3, #2072]	; 0x818
 8008c70:	f8c3 081c 	str.w	r0, [r3, #2076]	; 0x81c
 8008c74:	e8bd 4008 	ldmia.w	sp!, {r3, lr}
 8008c78:	f7ff bfc8 	b.w	8008c0c <rtc_configuration_mode_exit>
 8008c7c:	40002000 	andmi	r2, r0, r0

08008c80 <rtc_prescaler_set>:
 8008c80:	b508      	push	{r3, lr}
 8008c82:	f7ff ffb9 	bl	8008bf8 <rtc_configuration_mode_enter>
 8008c86:	4b06      	ldr	r3, [pc, #24]	; (8008ca0 <rtc_prescaler_set+0x20>)
 8008c88:	f3c0 4203 	ubfx	r2, r0, #16, #4
 8008c8c:	b280      	uxth	r0, r0
 8008c8e:	f8c3 2808 	str.w	r2, [r3, #2056]	; 0x808
 8008c92:	f8c3 080c 	str.w	r0, [r3, #2060]	; 0x80c
 8008c96:	e8bd 4008 	ldmia.w	sp!, {r3, lr}
 8008c9a:	f7ff bfb7 	b.w	8008c0c <rtc_configuration_mode_exit>
 8008c9e:	bf00      	nop
 8008ca0:	40002000 	andmi	r2, r0, r0

08008ca4 <timer_deinit>:
 8008ca4:	b508      	push	{r3, lr}
 8008ca6:	4b2d      	ldr	r3, [pc, #180]	; (8008d5c <timer_deinit+0xb8>)
 8008ca8:	4298      	cmp	r0, r3
 8008caa:	d048      	beq.n	8008d3e <timer_deinit+0x9a>
 8008cac:	d816      	bhi.n	8008cdc <timer_deinit+0x38>
 8008cae:	f5a3 6300 	sub.w	r3, r3, #2048	; 0x800
 8008cb2:	4298      	cmp	r0, r3
 8008cb4:	d03c      	beq.n	8008d30 <timer_deinit+0x8c>
 8008cb6:	d807      	bhi.n	8008cc8 <timer_deinit+0x24>
 8008cb8:	f1b0 4f80 	cmp.w	r0, #1073741824	; 0x40000000
 8008cbc:	d02a      	beq.n	8008d14 <timer_deinit+0x70>
 8008cbe:	f5a3 6380 	sub.w	r3, r3, #1024	; 0x400
 8008cc2:	4298      	cmp	r0, r3
 8008cc4:	d02d      	beq.n	8008d22 <timer_deinit+0x7e>
 8008cc6:	bd08      	pop	{r3, pc}
 8008cc8:	4b25      	ldr	r3, [pc, #148]	; (8008d60 <timer_deinit+0xbc>)
 8008cca:	4298      	cmp	r0, r3
 8008ccc:	d1fb      	bne.n	8008cc6 <timer_deinit+0x22>
 8008cce:	f240 4003 	movw	r0, #1027	; 0x403
 8008cd2:	f7ff fe6e 	bl	80089b2 <rcu_periph_reset_enable>
 8008cd6:	f240 4003 	movw	r0, #1027	; 0x403
 8008cda:	e017      	b.n	8008d0c <timer_deinit+0x68>
 8008cdc:	4b21      	ldr	r3, [pc, #132]	; (8008d64 <timer_deinit+0xc0>)
 8008cde:	4298      	cmp	r0, r3
 8008ce0:	d00e      	beq.n	8008d00 <timer_deinit+0x5c>
 8008ce2:	f503 6300 	add.w	r3, r3, #2048	; 0x800
 8008ce6:	4298      	cmp	r0, r3
 8008ce8:	d030      	beq.n	8008d4c <timer_deinit+0xa8>
 8008cea:	f5a3 3390 	sub.w	r3, r3, #73728	; 0x12000
 8008cee:	4298      	cmp	r0, r3
 8008cf0:	d1e9      	bne.n	8008cc6 <timer_deinit+0x22>
 8008cf2:	f240 4005 	movw	r0, #1029	; 0x405
 8008cf6:	f7ff fe5c 	bl	80089b2 <rcu_periph_reset_enable>
 8008cfa:	f240 4005 	movw	r0, #1029	; 0x405
 8008cfe:	e005      	b.n	8008d0c <timer_deinit+0x68>
 8008d00:	f240 300b 	movw	r0, #779	; 0x30b
 8008d04:	f7ff fe55 	bl	80089b2 <rcu_periph_reset_enable>
 8008d08:	f240 300b 	movw	r0, #779	; 0x30b
 8008d0c:	e8bd 4008 	ldmia.w	sp!, {r3, lr}
 8008d10:	f7ff be51 	b.w	80089b6 <rcu_periph_reset_disable>
 8008d14:	f44f 6080 	mov.w	r0, #1024	; 0x400
 8008d18:	f7ff fe4b 	bl	80089b2 <rcu_periph_reset_enable>
 8008d1c:	f44f 6080 	mov.w	r0, #1024	; 0x400
 8008d20:	e7f4      	b.n	8008d0c <timer_deinit+0x68>
 8008d22:	f240 4001 	movw	r0, #1025	; 0x401
 8008d26:	f7ff fe44 	bl	80089b2 <rcu_periph_reset_enable>
 8008d2a:	f240 4001 	movw	r0, #1025	; 0x401
 8008d2e:	e7ed      	b.n	8008d0c <timer_deinit+0x68>
 8008d30:	f240 4002 	movw	r0, #1026	; 0x402
 8008d34:	f7ff fe3d 	bl	80089b2 <rcu_periph_reset_enable>
 8008d38:	f240 4002 	movw	r0, #1026	; 0x402
 8008d3c:	e7e6      	b.n	8008d0c <timer_deinit+0x68>
 8008d3e:	f240 4004 	movw	r0, #1028	; 0x404
 8008d42:	f7ff fe36 	bl	80089b2 <rcu_periph_reset_enable>
 8008d46:	f240 4004 	movw	r0, #1028	; 0x404
 8008d4a:	e7df      	b.n	8008d0c <timer_deinit+0x68>
 8008d4c:	f240 300d 	movw	r0, #781	; 0x30d
 8008d50:	f7ff fe2f 	bl	80089b2 <rcu_periph_reset_enable>
 8008d54:	f240 300d 	movw	r0, #781	; 0x30d
 8008d58:	e7d8      	b.n	8008d0c <timer_deinit+0x68>
 8008d5a:	bf00      	nop
 8008d5c:	40001000 	andmi	r1, r0, r0
 8008d60:	40000c00 	andmi	r0, r0, r0, lsl #24
 8008d64:	40012c00 	andmi	r2, r1, r0, lsl #24

08008d68 <timer_init>:
 8008d68:	880b      	ldrh	r3, [r1, #0]
 8008d6a:	b510      	push	{r4, lr}
 8008d6c:	6283      	str	r3, [r0, #40]	; 0x28
 8008d6e:	4b1a      	ldr	r3, [pc, #104]	; (8008dd8 <timer_init+0x70>)
 8008d70:	4298      	cmp	r0, r3
 8008d72:	f420 6280 	bic.w	r2, r0, #1024	; 0x400
 8008d76:	d007      	beq.n	8008d88 <timer_init+0x20>
 8008d78:	f420 6340 	bic.w	r3, r0, #3072	; 0xc00
 8008d7c:	f1b3 4f80 	cmp.w	r3, #1073741824	; 0x40000000
 8008d80:	d002      	beq.n	8008d88 <timer_init+0x20>
 8008d82:	4b16      	ldr	r3, [pc, #88]	; (8008ddc <timer_init+0x74>)
 8008d84:	4298      	cmp	r0, r3
 8008d86:	d10b      	bne.n	8008da0 <timer_init+0x38>
 8008d88:	6803      	ldr	r3, [r0, #0]
 8008d8a:	f023 0370 	bic.w	r3, r3, #112	; 0x70
 8008d8e:	6003      	str	r3, [r0, #0]
 8008d90:	6804      	ldr	r4, [r0, #0]
 8008d92:	884b      	ldrh	r3, [r1, #2]
 8008d94:	4323      	orrs	r3, r4
 8008d96:	6003      	str	r3, [r0, #0]
 8008d98:	6804      	ldr	r4, [r0, #0]
 8008d9a:	888b      	ldrh	r3, [r1, #4]
 8008d9c:	4323      	orrs	r3, r4
 8008d9e:	6003      	str	r3, [r0, #0]
 8008da0:	688b      	ldr	r3, [r1, #8]
 8008da2:	62c3      	str	r3, [r0, #44]	; 0x2c
 8008da4:	4b0e      	ldr	r3, [pc, #56]	; (8008de0 <timer_init+0x78>)
 8008da6:	429a      	cmp	r2, r3
 8008da8:	d010      	beq.n	8008dcc <timer_init+0x64>
 8008daa:	6803      	ldr	r3, [r0, #0]
 8008dac:	f423 7340 	bic.w	r3, r3, #768	; 0x300
 8008db0:	6003      	str	r3, [r0, #0]
 8008db2:	6802      	ldr	r2, [r0, #0]
 8008db4:	88cb      	ldrh	r3, [r1, #6]
 8008db6:	4313      	orrs	r3, r2
 8008db8:	6003      	str	r3, [r0, #0]
 8008dba:	4b07      	ldr	r3, [pc, #28]	; (8008dd8 <timer_init+0x70>)
 8008dbc:	4298      	cmp	r0, r3
 8008dbe:	d003      	beq.n	8008dc8 <timer_init+0x60>
 8008dc0:	f503 6300 	add.w	r3, r3, #2048	; 0x800
 8008dc4:	4298      	cmp	r0, r3
 8008dc6:	d101      	bne.n	8008dcc <timer_init+0x64>
 8008dc8:	7b0b      	ldrb	r3, [r1, #12]
 8008dca:	6303      	str	r3, [r0, #48]	; 0x30
 8008dcc:	6943      	ldr	r3, [r0, #20]
 8008dce:	f043 0301 	orr.w	r3, r3, #1
 8008dd2:	6143      	str	r3, [r0, #20]
 8008dd4:	bd10      	pop	{r4, pc}
 8008dd6:	bf00      	nop
 8008dd8:	40012c00 	andmi	r2, r1, r0, lsl #24
 8008ddc:	40013400 	andmi	r3, r1, r0, lsl #8
 8008de0:	40001000 	andmi	r1, r0, r0

08008de4 <timer_enable>:
 8008de4:	6803      	ldr	r3, [r0, #0]
 8008de6:	f043 0301 	orr.w	r3, r3, #1
 8008dea:	6003      	str	r3, [r0, #0]
 8008dec:	4770      	bx	lr

08008dee <timer_interrupt_enable>:
 8008dee:	68c3      	ldr	r3, [r0, #12]
 8008df0:	430b      	orrs	r3, r1
 8008df2:	60c3      	str	r3, [r0, #12]
 8008df4:	4770      	bx	lr

08008df6 <timer_interrupt_flag_clear>:
 8008df6:	43c9      	mvns	r1, r1
 8008df8:	6101      	str	r1, [r0, #16]
 8008dfa:	4770      	bx	lr

08008dfc <timer_flag_clear>:
 8008dfc:	43c9      	mvns	r1, r1
 8008dfe:	6101      	str	r1, [r0, #16]
 8008e00:	4770      	bx	lr

08008e02 <timer_channel_output_mode_config>:
 8008e02:	2903      	cmp	r1, #3
 8008e04:	d81a      	bhi.n	8008e3c <timer_channel_output_mode_config+0x3a>
 8008e06:	e8df f001 	tbb	[pc, r1]
 8008e0a:	1a120a02 	bne	848b61a <_sidata+0x47f8f6>
 8008e0e:	6983      	ldr	r3, [r0, #24]
 8008e10:	f023 0370 	bic.w	r3, r3, #112	; 0x70
 8008e14:	6183      	str	r3, [r0, #24]
 8008e16:	6983      	ldr	r3, [r0, #24]
 8008e18:	4313      	orrs	r3, r2
 8008e1a:	6183      	str	r3, [r0, #24]
 8008e1c:	4770      	bx	lr
 8008e1e:	6983      	ldr	r3, [r0, #24]
 8008e20:	f423 43e0 	bic.w	r3, r3, #28672	; 0x7000
 8008e24:	6183      	str	r3, [r0, #24]
 8008e26:	6983      	ldr	r3, [r0, #24]
 8008e28:	ea43 2302 	orr.w	r3, r3, r2, lsl #8
 8008e2c:	e7f5      	b.n	8008e1a <timer_channel_output_mode_config+0x18>
 8008e2e:	69c3      	ldr	r3, [r0, #28]
 8008e30:	f023 0370 	bic.w	r3, r3, #112	; 0x70
 8008e34:	61c3      	str	r3, [r0, #28]
 8008e36:	69c3      	ldr	r3, [r0, #28]
 8008e38:	4313      	orrs	r3, r2
 8008e3a:	61c3      	str	r3, [r0, #28]
 8008e3c:	4770      	bx	lr
 8008e3e:	69c3      	ldr	r3, [r0, #28]
 8008e40:	f423 43e0 	bic.w	r3, r3, #28672	; 0x7000
 8008e44:	61c3      	str	r3, [r0, #28]
 8008e46:	69c3      	ldr	r3, [r0, #28]
 8008e48:	ea43 2302 	orr.w	r3, r3, r2, lsl #8
 8008e4c:	e7f5      	b.n	8008e3a <timer_channel_output_mode_config+0x38>

08008e4e <timer_channel_output_pulse_value_config>:
 8008e4e:	2903      	cmp	r1, #3
 8008e50:	d80a      	bhi.n	8008e68 <timer_channel_output_pulse_value_config+0x1a>
 8008e52:	e8df f001 	tbb	[pc, r1]
 8008e56:	08060402 	stmdaeq	r6, {r1, sl}
 8008e5a:	6342      	str	r2, [r0, #52]	; 0x34
 8008e5c:	4770      	bx	lr
 8008e5e:	6382      	str	r2, [r0, #56]	; 0x38
 8008e60:	4770      	bx	lr
 8008e62:	63c2      	str	r2, [r0, #60]	; 0x3c
 8008e64:	4770      	bx	lr
 8008e66:	6402      	str	r2, [r0, #64]	; 0x40
 8008e68:	4770      	bx	lr
	...

08008e6c <usart_deinit>:
 8008e6c:	b508      	push	{r3, lr}
 8008e6e:	4b1d      	ldr	r3, [pc, #116]	; (8008ee4 <usart_deinit+0x78>)
 8008e70:	4298      	cmp	r0, r3
 8008e72:	d028      	beq.n	8008ec6 <usart_deinit+0x5a>
 8008e74:	d808      	bhi.n	8008e88 <usart_deinit+0x1c>
 8008e76:	f5a3 6300 	sub.w	r3, r3, #2048	; 0x800
 8008e7a:	4298      	cmp	r0, r3
 8008e7c:	d015      	beq.n	8008eaa <usart_deinit+0x3e>
 8008e7e:	f503 6380 	add.w	r3, r3, #1024	; 0x400
 8008e82:	4298      	cmp	r0, r3
 8008e84:	d018      	beq.n	8008eb8 <usart_deinit+0x4c>
 8008e86:	bd08      	pop	{r3, pc}
 8008e88:	4b17      	ldr	r3, [pc, #92]	; (8008ee8 <usart_deinit+0x7c>)
 8008e8a:	4298      	cmp	r0, r3
 8008e8c:	d022      	beq.n	8008ed4 <usart_deinit+0x68>
 8008e8e:	f503 4368 	add.w	r3, r3, #59392	; 0xe800
 8008e92:	4298      	cmp	r0, r3
 8008e94:	d1f7      	bne.n	8008e86 <usart_deinit+0x1a>
 8008e96:	f240 300e 	movw	r0, #782	; 0x30e
 8008e9a:	f7ff fd8a 	bl	80089b2 <rcu_periph_reset_enable>
 8008e9e:	f240 300e 	movw	r0, #782	; 0x30e
 8008ea2:	e8bd 4008 	ldmia.w	sp!, {r3, lr}
 8008ea6:	f7ff bd86 	b.w	80089b6 <rcu_periph_reset_disable>
 8008eaa:	f240 4011 	movw	r0, #1041	; 0x411
 8008eae:	f7ff fd80 	bl	80089b2 <rcu_periph_reset_enable>
 8008eb2:	f240 4011 	movw	r0, #1041	; 0x411
 8008eb6:	e7f4      	b.n	8008ea2 <usart_deinit+0x36>
 8008eb8:	f240 4012 	movw	r0, #1042	; 0x412
 8008ebc:	f7ff fd79 	bl	80089b2 <rcu_periph_reset_enable>
 8008ec0:	f240 4012 	movw	r0, #1042	; 0x412
 8008ec4:	e7ed      	b.n	8008ea2 <usart_deinit+0x36>
 8008ec6:	f240 4013 	movw	r0, #1043	; 0x413
 8008eca:	f7ff fd72 	bl	80089b2 <rcu_periph_reset_enable>
 8008ece:	f240 4013 	movw	r0, #1043	; 0x413
 8008ed2:	e7e6      	b.n	8008ea2 <usart_deinit+0x36>
 8008ed4:	f240 4014 	movw	r0, #1044	; 0x414
 8008ed8:	f7ff fd6b 	bl	80089b2 <rcu_periph_reset_enable>
 8008edc:	f240 4014 	movw	r0, #1044	; 0x414
 8008ee0:	e7df      	b.n	8008ea2 <usart_deinit+0x36>
 8008ee2:	bf00      	nop
 8008ee4:	40004c00 	andmi	r4, r0, r0, lsl #24
 8008ee8:	40005000 	andmi	r5, r0, r0

08008eec <usart_baudrate_set>:
 8008eec:	b538      	push	{r3, r4, r5, lr}
 8008eee:	4b11      	ldr	r3, [pc, #68]	; (8008f34 <usart_baudrate_set+0x48>)
 8008ef0:	4298      	cmp	r0, r3
 8008ef2:	4604      	mov	r4, r0
 8008ef4:	460d      	mov	r5, r1
 8008ef6:	d01b      	beq.n	8008f30 <usart_baudrate_set+0x44>
 8008ef8:	d809      	bhi.n	8008f0e <usart_baudrate_set+0x22>
 8008efa:	f5a3 6300 	sub.w	r3, r3, #2048	; 0x800
 8008efe:	4298      	cmp	r0, r3
 8008f00:	d016      	beq.n	8008f30 <usart_baudrate_set+0x44>
 8008f02:	f503 6380 	add.w	r3, r3, #1024	; 0x400
 8008f06:	4298      	cmp	r0, r3
 8008f08:	d012      	beq.n	8008f30 <usart_baudrate_set+0x44>
 8008f0a:	2000      	movs	r0, #0
 8008f0c:	e009      	b.n	8008f22 <usart_baudrate_set+0x36>
 8008f0e:	4b0a      	ldr	r3, [pc, #40]	; (8008f38 <usart_baudrate_set+0x4c>)
 8008f10:	4298      	cmp	r0, r3
 8008f12:	d00d      	beq.n	8008f30 <usart_baudrate_set+0x44>
 8008f14:	f503 4368 	add.w	r3, r3, #59392	; 0xe800
 8008f18:	4298      	cmp	r0, r3
 8008f1a:	d1f6      	bne.n	8008f0a <usart_baudrate_set+0x1e>
 8008f1c:	2003      	movs	r0, #3
 8008f1e:	f7ff fd87 	bl	8008a30 <rcu_clock_freq_get>
 8008f22:	eb00 0155 	add.w	r1, r0, r5, lsr #1
 8008f26:	fbb1 f1f5 	udiv	r1, r1, r5
 8008f2a:	b289      	uxth	r1, r1
 8008f2c:	60a1      	str	r1, [r4, #8]
 8008f2e:	bd38      	pop	{r3, r4, r5, pc}
 8008f30:	2002      	movs	r0, #2
 8008f32:	e7f4      	b.n	8008f1e <usart_baudrate_set+0x32>
 8008f34:	40004c00 	andmi	r4, r0, r0, lsl #24
 8008f38:	40005000 	andmi	r5, r0, r0

08008f3c <usart_parity_config>:
 8008f3c:	68c3      	ldr	r3, [r0, #12]
 8008f3e:	f423 63c0 	bic.w	r3, r3, #1536	; 0x600
 8008f42:	60c3      	str	r3, [r0, #12]
 8008f44:	68c3      	ldr	r3, [r0, #12]
 8008f46:	430b      	orrs	r3, r1
 8008f48:	60c3      	str	r3, [r0, #12]
 8008f4a:	4770      	bx	lr

08008f4c <usart_word_length_set>:
 8008f4c:	68c3      	ldr	r3, [r0, #12]
 8008f4e:	f423 5380 	bic.w	r3, r3, #4096	; 0x1000
 8008f52:	60c3      	str	r3, [r0, #12]
 8008f54:	68c3      	ldr	r3, [r0, #12]
 8008f56:	430b      	orrs	r3, r1
 8008f58:	60c3      	str	r3, [r0, #12]
 8008f5a:	4770      	bx	lr

08008f5c <usart_stop_bit_set>:
 8008f5c:	6903      	ldr	r3, [r0, #16]
 8008f5e:	f423 5340 	bic.w	r3, r3, #12288	; 0x3000
 8008f62:	6103      	str	r3, [r0, #16]
 8008f64:	6903      	ldr	r3, [r0, #16]
 8008f66:	430b      	orrs	r3, r1
 8008f68:	6103      	str	r3, [r0, #16]
 8008f6a:	4770      	bx	lr

08008f6c <usart_transmit_config>:
 8008f6c:	68c3      	ldr	r3, [r0, #12]
 8008f6e:	f023 0308 	bic.w	r3, r3, #8
 8008f72:	60c3      	str	r3, [r0, #12]
 8008f74:	68c3      	ldr	r3, [r0, #12]
 8008f76:	f001 0108 	and.w	r1, r1, #8
 8008f7a:	4319      	orrs	r1, r3
 8008f7c:	60c1      	str	r1, [r0, #12]
 8008f7e:	4770      	bx	lr

08008f80 <usart_receive_config>:
 8008f80:	68c3      	ldr	r3, [r0, #12]
 8008f82:	f023 0304 	bic.w	r3, r3, #4
 8008f86:	60c3      	str	r3, [r0, #12]
 8008f88:	68c3      	ldr	r3, [r0, #12]
 8008f8a:	f001 0104 	and.w	r1, r1, #4
 8008f8e:	4319      	orrs	r1, r3
 8008f90:	60c1      	str	r1, [r0, #12]
 8008f92:	4770      	bx	lr

08008f94 <usart_hardware_flow_rts_config>:
 8008f94:	6943      	ldr	r3, [r0, #20]
 8008f96:	f423 7380 	bic.w	r3, r3, #256	; 0x100
 8008f9a:	6143      	str	r3, [r0, #20]
 8008f9c:	6943      	ldr	r3, [r0, #20]
 8008f9e:	f401 7180 	and.w	r1, r1, #256	; 0x100
 8008fa2:	4319      	orrs	r1, r3
 8008fa4:	6141      	str	r1, [r0, #20]
 8008fa6:	4770      	bx	lr

08008fa8 <usart_hardware_flow_cts_config>:
 8008fa8:	6943      	ldr	r3, [r0, #20]
 8008faa:	f423 7300 	bic.w	r3, r3, #512	; 0x200
 8008fae:	6143      	str	r3, [r0, #20]
 8008fb0:	6943      	ldr	r3, [r0, #20]
 8008fb2:	f401 7100 	and.w	r1, r1, #512	; 0x200
 8008fb6:	4319      	orrs	r1, r3
 8008fb8:	6141      	str	r1, [r0, #20]
 8008fba:	4770      	bx	lr

08008fbc <usart_dma_transmit_config>:
 8008fbc:	6943      	ldr	r3, [r0, #20]
 8008fbe:	f023 0380 	bic.w	r3, r3, #128	; 0x80
 8008fc2:	6143      	str	r3, [r0, #20]
 8008fc4:	6943      	ldr	r3, [r0, #20]
 8008fc6:	f001 0180 	and.w	r1, r1, #128	; 0x80
 8008fca:	4319      	orrs	r1, r3
 8008fcc:	6141      	str	r1, [r0, #20]
 8008fce:	4770      	bx	lr

08008fd0 <usart_flag_get>:
 8008fd0:	098b      	lsrs	r3, r1, #6
 8008fd2:	f001 011f 	and.w	r1, r1, #31
 8008fd6:	5818      	ldr	r0, [r3, r0]
 8008fd8:	40c8      	lsrs	r0, r1
 8008fda:	f000 0001 	and.w	r0, r0, #1
 8008fde:	4770      	bx	lr

08008fe0 <usart_flag_clear>:
 8008fe0:	098a      	lsrs	r2, r1, #6
 8008fe2:	2301      	movs	r3, #1
 8008fe4:	f001 011f 	and.w	r1, r1, #31
 8008fe8:	408b      	lsls	r3, r1
 8008fea:	43db      	mvns	r3, r3
 8008fec:	5013      	str	r3, [r2, r0]
 8008fee:	4770      	bx	lr

08008ff0 <usart_interrupt_enable>:
 8008ff0:	098a      	lsrs	r2, r1, #6
 8008ff2:	b510      	push	{r4, lr}
 8008ff4:	f001 011f 	and.w	r1, r1, #31
 8008ff8:	5814      	ldr	r4, [r2, r0]
 8008ffa:	2301      	movs	r3, #1
 8008ffc:	408b      	lsls	r3, r1
 8008ffe:	4323      	orrs	r3, r4
 8009000:	5013      	str	r3, [r2, r0]
 8009002:	bd10      	pop	{r4, pc}

08009004 <usart_interrupt_disable>:
 8009004:	b510      	push	{r4, lr}
 8009006:	098c      	lsrs	r4, r1, #6
 8009008:	2201      	movs	r2, #1
 800900a:	5823      	ldr	r3, [r4, r0]
 800900c:	f001 011f 	and.w	r1, r1, #31
 8009010:	408a      	lsls	r2, r1
 8009012:	ea23 0302 	bic.w	r3, r3, r2
 8009016:	5023      	str	r3, [r4, r0]
 8009018:	bd10      	pop	{r4, pc}

0800901a <usart_interrupt_flag_clear>:
 800901a:	0d8a      	lsrs	r2, r1, #22
 800901c:	2301      	movs	r3, #1
 800901e:	f3c1 4104 	ubfx	r1, r1, #16, #5
 8009022:	408b      	lsls	r3, r1
 8009024:	43db      	mvns	r3, r3
 8009026:	5013      	str	r3, [r2, r0]
 8009028:	4770      	bx	lr
	...

0800902c <gd32_adc_init()>:
 800902c:	b510      	push	{r4, lr}
 800902e:	f240 6009 	movw	r0, #1545	; 0x609
 8009032:	4c21      	ldr	r4, [pc, #132]	; (80090b8 <gd32_adc_init()+0x8c>)
 8009034:	f7ff fca2 	bl	800897c <rcu_periph_clock_enable>
 8009038:	2005      	movs	r0, #5
 800903a:	f7ff fcbf 	bl	80089bc <rcu_adc_clock_config>
 800903e:	4620      	mov	r0, r4
 8009040:	2201      	movs	r2, #1
 8009042:	f44f 7180 	mov.w	r1, #256	; 0x100
 8009046:	f000 fc47 	bl	80098d8 <adc_special_function_config>
 800904a:	f44f 42e0 	mov.w	r2, #28672	; 0x7000
 800904e:	4620      	mov	r0, r4
 8009050:	2102      	movs	r1, #2
 8009052:	f000 fcd9 	bl	8009a08 <adc_external_trigger_source_config>
 8009056:	2100      	movs	r1, #0
 8009058:	4620      	mov	r0, r4
 800905a:	f000 fc65 	bl	8009928 <adc_data_alignment_config>
 800905e:	2000      	movs	r0, #0
 8009060:	f000 fc2a 	bl	80098b8 <adc_mode_config>
 8009064:	2202      	movs	r2, #2
 8009066:	4611      	mov	r1, r2
 8009068:	4620      	mov	r0, r4
 800906a:	f000 fc66 	bl	800993a <adc_channel_length_config>
 800906e:	4620      	mov	r0, r4
 8009070:	2307      	movs	r3, #7
 8009072:	2210      	movs	r2, #16
 8009074:	2100      	movs	r1, #0
 8009076:	f000 fc7d 	bl	8009974 <adc_inserted_channel_config>
 800907a:	2307      	movs	r3, #7
 800907c:	4620      	mov	r0, r4
 800907e:	2211      	movs	r2, #17
 8009080:	2101      	movs	r1, #1
 8009082:	f000 fc77 	bl	8009974 <adc_inserted_channel_config>
 8009086:	2201      	movs	r2, #1
 8009088:	2102      	movs	r1, #2
 800908a:	4620      	mov	r0, r4
 800908c:	f000 fca1 	bl	80099d2 <adc_external_trigger_config>
 8009090:	f000 fc08 	bl	80098a4 <adc_tempsensor_vrefint_enable>
 8009094:	4620      	mov	r0, r4
 8009096:	f000 fbeb 	bl	8009870 <adc_enable>
 800909a:	2100      	movs	r1, #0
 800909c:	f44f 707a 	mov.w	r0, #1000	; 0x3e8
 80090a0:	f000 fb9e 	bl	80097e0 <udelay(unsigned long, unsigned long)>
 80090a4:	4620      	mov	r0, r4
 80090a6:	f000 fbeb 	bl	8009880 <adc_calibration_enable>
 80090aa:	4620      	mov	r0, r4
 80090ac:	2102      	movs	r1, #2
 80090ae:	e8bd 4010 	ldmia.w	sp!, {r4, lr}
 80090b2:	f000 bcba 	b.w	8009a2a <adc_software_trigger_enable>
 80090b6:	bf00      	nop
 80090b8:	40012400 	andmi	r2, r1, r0, lsl #8

080090bc <gd32_adc_gettemp()>:
 80090bc:	b508      	push	{r3, lr}
 80090be:	4b14      	ldr	r3, [pc, #80]	; (8009110 <gd32_adc_gettemp()+0x54>)
 80090c0:	ed9f 7a14 	vldr	s14, [pc, #80]	; 8009114 <gd32_adc_gettemp()+0x58>
 80090c4:	eddf 6a14 	vldr	s13, [pc, #80]	; 8009118 <gd32_adc_gettemp()+0x5c>
 80090c8:	4814      	ldr	r0, [pc, #80]	; (800911c <gd32_adc_gettemp()+0x60>)
 80090ca:	f203 433c 	addw	r3, r3, #1084	; 0x43c
 80090ce:	edd3 7a00 	vldr	s15, [r3]
 80090d2:	eef8 7a67 	vcvt.f32.u32	s15, s15
 80090d6:	ed2d 8b02 	vpush	{d8}
 80090da:	ee27 7a67 	vnmul.f32	s14, s14, s15
 80090de:	eddf 7a10 	vldr	s15, [pc, #64]	; 8009120 <gd32_adc_gettemp()+0x64>
 80090e2:	eee7 7a26 	vfma.f32	s15, s14, s13
 80090e6:	2102      	movs	r1, #2
 80090e8:	ed9f 7a0e 	vldr	s14, [pc, #56]	; 8009124 <gd32_adc_gettemp()+0x68>
 80090ec:	ee67 7a87 	vmul.f32	s15, s15, s14
 80090f0:	ed9f 7a0d 	vldr	s14, [pc, #52]	; 8009128 <gd32_adc_gettemp()+0x6c>
 80090f4:	ee87 8a87 	vdiv.f32	s16, s15, s14
 80090f8:	eef3 7a09 	vmov.f32	s15, #57	; 0x41c80000  25.0
 80090fc:	ee38 8a27 	vadd.f32	s16, s16, s15
 8009100:	f000 fc93 	bl	8009a2a <adc_software_trigger_enable>
 8009104:	eeb0 0a48 	vmov.f32	s0, s16
 8009108:	ecbd 8b02 	vpop	{d8}
 800910c:	bd08      	pop	{r3, pc}
 800910e:	bf00      	nop
 8009110:	40012000 	andmi	r2, r1, r0
 8009114:	40533333 	subsmi	r3, r3, r3, lsr r3
 8009118:	39800000 	stmibcc	r0, {}	; <UNPREDICTABLE>
 800911c:	40012400 	andmi	r2, r1, r0, lsl #8
 8009120:	3fb70a3d 	svccc	0x00b70a3d
 8009124:	447a0000 	ldrbtmi	r0, [sl], #-0
 8009128:	4089999a 	umullmi	r9, r9, sl, r9	; <UNPREDICTABLE>

0800912c <_stop() [clone .isra.0]>:
 800912c:	b508      	push	{r3, lr}
 800912e:	4806      	ldr	r0, [pc, #24]	; (8009148 <_stop() [clone .isra.0]+0x1c>)
 8009130:	f000 fd2a 	bl	8009b88 <i2c_stop_on_bus>
 8009134:	4905      	ldr	r1, [pc, #20]	; (800914c <_stop() [clone .isra.0]+0x20>)
 8009136:	f640 73ff 	movw	r3, #4095	; 0xfff
 800913a:	f8d1 2400 	ldr.w	r2, [r1, #1024]	; 0x400
 800913e:	0592      	lsls	r2, r2, #22
 8009140:	d501      	bpl.n	8009146 <_stop() [clone .isra.0]+0x1a>
 8009142:	3b01      	subs	r3, #1
 8009144:	d1f9      	bne.n	800913a <_stop() [clone .isra.0]+0xe>
 8009146:	bd08      	pop	{r3, pc}
 8009148:	40005400 	andmi	r5, r0, r0, lsl #8
 800914c:	40005000 	andmi	r5, r0, r0

08009150 <gd32_i2c_begin>:
 8009150:	b510      	push	{r4, lr}
 8009152:	f240 7015 	movw	r0, #1813	; 0x715
 8009156:	f7ff fc11 	bl	800897c <rcu_periph_clock_enable>
 800915a:	4c16      	ldr	r4, [pc, #88]	; (80091b4 <gd32_i2c_begin+0x64>)
 800915c:	f240 6003 	movw	r0, #1539	; 0x603
 8009160:	f7ff fc0c 	bl	800897c <rcu_periph_clock_enable>
 8009164:	f240 6003 	movw	r0, #1539	; 0x603
 8009168:	f7ff fc08 	bl	800897c <rcu_periph_clock_enable>
 800916c:	4620      	mov	r0, r4
 800916e:	f44f 7380 	mov.w	r3, #256	; 0x100
 8009172:	2203      	movs	r2, #3
 8009174:	211c      	movs	r1, #28
 8009176:	f7ff fb73 	bl	8008860 <gpio_init>
 800917a:	f44f 7300 	mov.w	r3, #512	; 0x200
 800917e:	2203      	movs	r2, #3
 8009180:	4620      	mov	r0, r4
 8009182:	211c      	movs	r1, #28
 8009184:	f7ff fb6c 	bl	8008860 <gpio_init>
 8009188:	f5a4 4438 	sub.w	r4, r4, #47104	; 0xb800
 800918c:	2101      	movs	r1, #1
 800918e:	2002      	movs	r0, #2
 8009190:	f7ff fbbc 	bl	800890c <gpio_pin_remap_config>
 8009194:	4908      	ldr	r1, [pc, #32]	; (80091b8 <gd32_i2c_begin+0x68>)
 8009196:	4620      	mov	r0, r4
 8009198:	2200      	movs	r2, #0
 800919a:	f000 fc53 	bl	8009a44 <i2c_clock_config>
 800919e:	4620      	mov	r0, r4
 80091a0:	f000 fce8 	bl	8009b74 <i2c_enable>
 80091a4:	4620      	mov	r0, r4
 80091a6:	f44f 6180 	mov.w	r1, #1024	; 0x400
 80091aa:	e8bd 4010 	ldmia.w	sp!, {r4, lr}
 80091ae:	f000 bccd 	b.w	8009b4c <i2c_ack_config>
 80091b2:	bf00      	nop
 80091b4:	40010c00 	andmi	r0, r1, r0, lsl #24
 80091b8:	00061a80 	andeq	r1, r6, r0, lsl #21

080091bc <gd32_i2c_set_baudrate>:
 80091bc:	4601      	mov	r1, r0
 80091be:	2200      	movs	r2, #0
 80091c0:	4801      	ldr	r0, [pc, #4]	; (80091c8 <gd32_i2c_set_baudrate+0xc>)
 80091c2:	f000 bc3f 	b.w	8009a44 <i2c_clock_config>
 80091c6:	bf00      	nop
 80091c8:	40005400 	andmi	r5, r0, r0, lsl #8

080091cc <gd32_i2c_set_address>:
 80091cc:	4b01      	ldr	r3, [pc, #4]	; (80091d4 <gd32_i2c_set_address+0x8>)
 80091ce:	0040      	lsls	r0, r0, #1
 80091d0:	7018      	strb	r0, [r3, #0]
 80091d2:	4770      	bx	lr
 80091d4:	20002790 	mulcs	r0, r0, r7

080091d8 <gd32_i2c_write>:
 80091d8:	b5f8      	push	{r3, r4, r5, r6, r7, lr}
 80091da:	4f30      	ldr	r7, [pc, #192]	; (800929c <gd32_i2c_write+0xc4>)
 80091dc:	4604      	mov	r4, r0
 80091de:	460d      	mov	r5, r1
 80091e0:	f640 76ff 	movw	r6, #4095	; 0xfff
 80091e4:	f240 6101 	movw	r1, #1537	; 0x601
 80091e8:	4638      	mov	r0, r7
 80091ea:	f000 fcd7 	bl	8009b9c <i2c_flag_get>
 80091ee:	bb90      	cbnz	r0, 8009256 <gd32_i2c_write+0x7e>
 80091f0:	482a      	ldr	r0, [pc, #168]	; (800929c <gd32_i2c_write+0xc4>)
 80091f2:	4f2a      	ldr	r7, [pc, #168]	; (800929c <gd32_i2c_write+0xc4>)
 80091f4:	f000 fcc3 	bl	8009b7e <i2c_start_on_bus>
 80091f8:	f640 76ff 	movw	r6, #4095	; 0xfff
 80091fc:	f44f 61a0 	mov.w	r1, #1280	; 0x500
 8009200:	4638      	mov	r0, r7
 8009202:	f000 fccb 	bl	8009b9c <i2c_flag_get>
 8009206:	b370      	cbz	r0, 8009266 <gd32_i2c_write+0x8e>
 8009208:	4b25      	ldr	r3, [pc, #148]	; (80092a0 <gd32_i2c_write+0xc8>)
 800920a:	4824      	ldr	r0, [pc, #144]	; (800929c <gd32_i2c_write+0xc4>)
 800920c:	7819      	ldrb	r1, [r3, #0]
 800920e:	4f23      	ldr	r7, [pc, #140]	; (800929c <gd32_i2c_write+0xc4>)
 8009210:	f06f 0201 	mvn.w	r2, #1
 8009214:	f000 fca6 	bl	8009b64 <i2c_master_addressing>
 8009218:	f640 76ff 	movw	r6, #4095	; 0xfff
 800921c:	f240 5101 	movw	r1, #1281	; 0x501
 8009220:	4638      	mov	r0, r7
 8009222:	f000 fcbb 	bl	8009b9c <i2c_flag_get>
 8009226:	b308      	cbz	r0, 800926c <gd32_i2c_write+0x94>
 8009228:	481c      	ldr	r0, [pc, #112]	; (800929c <gd32_i2c_write+0xc4>)
 800922a:	4f1c      	ldr	r7, [pc, #112]	; (800929c <gd32_i2c_write+0xc4>)
 800922c:	f240 5101 	movw	r1, #1281	; 0x501
 8009230:	f000 fcbc 	bl	8009bac <i2c_flag_clear>
 8009234:	f640 76ff 	movw	r6, #4095	; 0xfff
 8009238:	f240 5107 	movw	r1, #1287	; 0x507
 800923c:	4638      	mov	r0, r7
 800923e:	f000 fcad 	bl	8009b9c <i2c_flag_get>
 8009242:	2801      	cmp	r0, #1
 8009244:	d115      	bne.n	8009272 <gd32_i2c_write+0x9a>
 8009246:	4f15      	ldr	r7, [pc, #84]	; (800929c <gd32_i2c_write+0xc4>)
 8009248:	4425      	add	r5, r4
 800924a:	42a5      	cmp	r5, r4
 800924c:	d114      	bne.n	8009278 <gd32_i2c_write+0xa0>
 800924e:	f7ff ff6d 	bl	800912c <_stop() [clone .isra.0]>
 8009252:	2000      	movs	r0, #0
 8009254:	e005      	b.n	8009262 <gd32_i2c_write+0x8a>
 8009256:	3e01      	subs	r6, #1
 8009258:	d1c4      	bne.n	80091e4 <gd32_i2c_write+0xc>
 800925a:	f7ff ff67 	bl	800912c <_stop() [clone .isra.0]>
 800925e:	f04f 30ff 	mov.w	r0, #4294967295	; 0xffffffff
 8009262:	4240      	negs	r0, r0
 8009264:	bdf8      	pop	{r3, r4, r5, r6, r7, pc}
 8009266:	3e01      	subs	r6, #1
 8009268:	d1c8      	bne.n	80091fc <gd32_i2c_write+0x24>
 800926a:	e7f6      	b.n	800925a <gd32_i2c_write+0x82>
 800926c:	3e01      	subs	r6, #1
 800926e:	d1d5      	bne.n	800921c <gd32_i2c_write+0x44>
 8009270:	e7f3      	b.n	800925a <gd32_i2c_write+0x82>
 8009272:	3e01      	subs	r6, #1
 8009274:	d1e0      	bne.n	8009238 <gd32_i2c_write+0x60>
 8009276:	e7f0      	b.n	800925a <gd32_i2c_write+0x82>
 8009278:	f814 1b01 	ldrb.w	r1, [r4], #1
 800927c:	4638      	mov	r0, r7
 800927e:	f000 fc88 	bl	8009b92 <i2c_data_transmit>
 8009282:	f640 76ff 	movw	r6, #4095	; 0xfff
 8009286:	f240 5102 	movw	r1, #1282	; 0x502
 800928a:	4638      	mov	r0, r7
 800928c:	f000 fc86 	bl	8009b9c <i2c_flag_get>
 8009290:	2800      	cmp	r0, #0
 8009292:	d1da      	bne.n	800924a <gd32_i2c_write+0x72>
 8009294:	3e01      	subs	r6, #1
 8009296:	d1f6      	bne.n	8009286 <gd32_i2c_write+0xae>
 8009298:	e7df      	b.n	800925a <gd32_i2c_write+0x82>
 800929a:	bf00      	nop
 800929c:	40005400 	andmi	r5, r0, r0, lsl #8
 80092a0:	20002790 	mulcs	r0, r0, r7

080092a4 <gd32_i2c_read>:
 80092a4:	e92d 43f8 	stmdb	sp!, {r3, r4, r5, r6, r7, r8, r9, lr}
 80092a8:	4f4e      	ldr	r7, [pc, #312]	; (80093e4 <gd32_i2c_read+0x140>)
 80092aa:	4680      	mov	r8, r0
 80092ac:	460c      	mov	r4, r1
 80092ae:	f640 75ff 	movw	r5, #4095	; 0xfff
 80092b2:	f240 6101 	movw	r1, #1537	; 0x601
 80092b6:	4638      	mov	r0, r7
 80092b8:	f000 fc70 	bl	8009b9c <i2c_flag_get>
 80092bc:	4606      	mov	r6, r0
 80092be:	bb10      	cbnz	r0, 8009306 <gd32_i2c_read+0x62>
 80092c0:	2c02      	cmp	r4, #2
 80092c2:	d104      	bne.n	80092ce <gd32_i2c_read+0x2a>
 80092c4:	4847      	ldr	r0, [pc, #284]	; (80093e4 <gd32_i2c_read+0x140>)
 80092c6:	f44f 6100 	mov.w	r1, #2048	; 0x800
 80092ca:	f000 fc45 	bl	8009b58 <i2c_ackpos_config>
 80092ce:	4845      	ldr	r0, [pc, #276]	; (80093e4 <gd32_i2c_read+0x140>)
 80092d0:	4f44      	ldr	r7, [pc, #272]	; (80093e4 <gd32_i2c_read+0x140>)
 80092d2:	f000 fc54 	bl	8009b7e <i2c_start_on_bus>
 80092d6:	f640 75ff 	movw	r5, #4095	; 0xfff
 80092da:	f44f 61a0 	mov.w	r1, #1280	; 0x500
 80092de:	4638      	mov	r0, r7
 80092e0:	f000 fc5c 	bl	8009b9c <i2c_flag_get>
 80092e4:	b1b8      	cbz	r0, 8009316 <gd32_i2c_read+0x72>
 80092e6:	4b40      	ldr	r3, [pc, #256]	; (80093e8 <gd32_i2c_read+0x144>)
 80092e8:	483e      	ldr	r0, [pc, #248]	; (80093e4 <gd32_i2c_read+0x140>)
 80092ea:	7819      	ldrb	r1, [r3, #0]
 80092ec:	2201      	movs	r2, #1
 80092ee:	f000 fc39 	bl	8009b64 <i2c_master_addressing>
 80092f2:	2c02      	cmp	r4, #2
 80092f4:	d803      	bhi.n	80092fe <gd32_i2c_read+0x5a>
 80092f6:	483b      	ldr	r0, [pc, #236]	; (80093e4 <gd32_i2c_read+0x140>)
 80092f8:	2100      	movs	r1, #0
 80092fa:	f000 fc27 	bl	8009b4c <i2c_ack_config>
 80092fe:	4f39      	ldr	r7, [pc, #228]	; (80093e4 <gd32_i2c_read+0x140>)
 8009300:	f640 75ff 	movw	r5, #4095	; 0xfff
 8009304:	e00c      	b.n	8009320 <gd32_i2c_read+0x7c>
 8009306:	3d01      	subs	r5, #1
 8009308:	d1d3      	bne.n	80092b2 <gd32_i2c_read+0xe>
 800930a:	f7ff ff0f 	bl	800912c <_stop() [clone .isra.0]>
 800930e:	2604      	movs	r6, #4
 8009310:	4630      	mov	r0, r6
 8009312:	e8bd 83f8 	ldmia.w	sp!, {r3, r4, r5, r6, r7, r8, r9, pc}
 8009316:	3d01      	subs	r5, #1
 8009318:	d1df      	bne.n	80092da <gd32_i2c_read+0x36>
 800931a:	e7f6      	b.n	800930a <gd32_i2c_read+0x66>
 800931c:	3d01      	subs	r5, #1
 800931e:	d0f4      	beq.n	800930a <gd32_i2c_read+0x66>
 8009320:	f240 5101 	movw	r1, #1281	; 0x501
 8009324:	4638      	mov	r0, r7
 8009326:	f000 fc39 	bl	8009b9c <i2c_flag_get>
 800932a:	2800      	cmp	r0, #0
 800932c:	d0f6      	beq.n	800931c <gd32_i2c_read+0x78>
 800932e:	482d      	ldr	r0, [pc, #180]	; (80093e4 <gd32_i2c_read+0x140>)
 8009330:	f240 5101 	movw	r1, #1281	; 0x501
 8009334:	f000 fc3a 	bl	8009bac <i2c_flag_clear>
 8009338:	2c01      	cmp	r4, #1
 800933a:	d102      	bne.n	8009342 <gd32_i2c_read+0x9e>
 800933c:	4829      	ldr	r0, [pc, #164]	; (80093e4 <gd32_i2c_read+0x140>)
 800933e:	f000 fc23 	bl	8009b88 <i2c_stop_on_bus>
 8009342:	4d28      	ldr	r5, [pc, #160]	; (80093e4 <gd32_i2c_read+0x140>)
 8009344:	f640 77ff 	movw	r7, #4095	; 0xfff
 8009348:	e01b      	b.n	8009382 <gd32_i2c_read+0xde>
 800934a:	f1b9 0901 	subs.w	r9, r9, #1
 800934e:	d0dc      	beq.n	800930a <gd32_i2c_read+0x66>
 8009350:	f240 5102 	movw	r1, #1282	; 0x502
 8009354:	4628      	mov	r0, r5
 8009356:	f000 fc21 	bl	8009b9c <i2c_flag_get>
 800935a:	2800      	cmp	r0, #0
 800935c:	d0f5      	beq.n	800934a <gd32_i2c_read+0xa6>
 800935e:	2100      	movs	r1, #0
 8009360:	4628      	mov	r0, r5
 8009362:	f000 fbf3 	bl	8009b4c <i2c_ack_config>
 8009366:	f240 5106 	movw	r1, #1286	; 0x506
 800936a:	4628      	mov	r0, r5
 800936c:	f000 fc16 	bl	8009b9c <i2c_flag_get>
 8009370:	b368      	cbz	r0, 80093ce <gd32_i2c_read+0x12a>
 8009372:	4628      	mov	r0, r5
 8009374:	f000 fc0f 	bl	8009b96 <i2c_data_receive>
 8009378:	f808 0b01 	strb.w	r0, [r8], #1
 800937c:	3c01      	subs	r4, #1
 800937e:	f640 77fe 	movw	r7, #4094	; 0xffe
 8009382:	bb34      	cbnz	r4, 80093d2 <gd32_i2c_read+0x12e>
 8009384:	4a19      	ldr	r2, [pc, #100]	; (80093ec <gd32_i2c_read+0x148>)
 8009386:	f640 73ff 	movw	r3, #4095	; 0xfff
 800938a:	f8d2 4400 	ldr.w	r4, [r2, #1024]	; 0x400
 800938e:	f414 7400 	ands.w	r4, r4, #512	; 0x200
 8009392:	d123      	bne.n	80093dc <gd32_i2c_read+0x138>
 8009394:	4813      	ldr	r0, [pc, #76]	; (80093e4 <gd32_i2c_read+0x140>)
 8009396:	f44f 6180 	mov.w	r1, #1024	; 0x400
 800939a:	f000 fbd7 	bl	8009b4c <i2c_ack_config>
 800939e:	4811      	ldr	r0, [pc, #68]	; (80093e4 <gd32_i2c_read+0x140>)
 80093a0:	4621      	mov	r1, r4
 80093a2:	f000 fbd9 	bl	8009b58 <i2c_ackpos_config>
 80093a6:	e7b3      	b.n	8009310 <gd32_i2c_read+0x6c>
 80093a8:	2c02      	cmp	r4, #2
 80093aa:	d1dc      	bne.n	8009366 <gd32_i2c_read+0xc2>
 80093ac:	f640 79ff 	movw	r9, #4095	; 0xfff
 80093b0:	e002      	b.n	80093b8 <gd32_i2c_read+0x114>
 80093b2:	f1b9 0901 	subs.w	r9, r9, #1
 80093b6:	d0a8      	beq.n	800930a <gd32_i2c_read+0x66>
 80093b8:	f240 5102 	movw	r1, #1282	; 0x502
 80093bc:	4628      	mov	r0, r5
 80093be:	f000 fbed 	bl	8009b9c <i2c_flag_get>
 80093c2:	2800      	cmp	r0, #0
 80093c4:	d0f5      	beq.n	80093b2 <gd32_i2c_read+0x10e>
 80093c6:	4628      	mov	r0, r5
 80093c8:	f000 fbde 	bl	8009b88 <i2c_stop_on_bus>
 80093cc:	e7cb      	b.n	8009366 <gd32_i2c_read+0xc2>
 80093ce:	3f01      	subs	r7, #1
 80093d0:	d09b      	beq.n	800930a <gd32_i2c_read+0x66>
 80093d2:	2c03      	cmp	r4, #3
 80093d4:	d1e8      	bne.n	80093a8 <gd32_i2c_read+0x104>
 80093d6:	f640 79ff 	movw	r9, #4095	; 0xfff
 80093da:	e7b9      	b.n	8009350 <gd32_i2c_read+0xac>
 80093dc:	3b01      	subs	r3, #1
 80093de:	d1d4      	bne.n	800938a <gd32_i2c_read+0xe6>
 80093e0:	e795      	b.n	800930e <gd32_i2c_read+0x6a>
 80093e2:	bf00      	nop
 80093e4:	40005400 	andmi	r5, r0, r0, lsl #8
 80093e8:	20002790 	mulcs	r0, r0, r7
 80093ec:	40005000 	andmi	r5, r0, r0

080093f0 <gd32_spi_dma_begin()>:
 80093f0:	b530      	push	{r4, r5, lr}
 80093f2:	f240 6002 	movw	r0, #1538	; 0x602
 80093f6:	b089      	sub	sp, #36	; 0x24
 80093f8:	f7ff fac0 	bl	800897c <rcu_periph_clock_enable>
 80093fc:	f240 6003 	movw	r0, #1539	; 0x603
 8009400:	f7ff fabc 	bl	800897c <rcu_periph_clock_enable>
 8009404:	f240 700f 	movw	r0, #1807	; 0x70f
 8009408:	f7ff fab8 	bl	800897c <rcu_periph_clock_enable>
 800940c:	f44f 60c0 	mov.w	r0, #1536	; 0x600
 8009410:	f7ff fab4 	bl	800897c <rcu_periph_clock_enable>
 8009414:	482a      	ldr	r0, [pc, #168]	; (80094c0 <gd32_spi_dma_begin()+0xd0>)
 8009416:	4c2b      	ldr	r4, [pc, #172]	; (80094c4 <gd32_spi_dma_begin()+0xd4>)
 8009418:	2338      	movs	r3, #56	; 0x38
 800941a:	2203      	movs	r2, #3
 800941c:	2118      	movs	r1, #24
 800941e:	f7ff fa1f 	bl	8008860 <gpio_init>
 8009422:	f44f 4300 	mov.w	r3, #32768	; 0x8000
 8009426:	2203      	movs	r2, #3
 8009428:	4827      	ldr	r0, [pc, #156]	; (80094c8 <gd32_spi_dma_begin()+0xd8>)
 800942a:	2118      	movs	r1, #24
 800942c:	f7ff fa18 	bl	8008860 <gpio_init>
 8009430:	2101      	movs	r1, #1
 8009432:	4826      	ldr	r0, [pc, #152]	; (80094cc <gd32_spi_dma_begin()+0xdc>)
 8009434:	f7ff fa6a 	bl	800890c <gpio_pin_remap_config>
 8009438:	4620      	mov	r0, r4
 800943a:	f000 fc0f 	bl	8009c5c <i2s_disable>
 800943e:	2300      	movs	r3, #0
 8009440:	461a      	mov	r2, r3
 8009442:	4620      	mov	r0, r4
 8009444:	4922      	ldr	r1, [pc, #136]	; (80094d0 <gd32_spi_dma_begin()+0xe0>)
 8009446:	f000 fbd2 	bl	8009bee <i2s_psc_config>
 800944a:	2300      	movs	r3, #0
 800944c:	2210      	movs	r2, #16
 800944e:	f44f 7100 	mov.w	r1, #512	; 0x200
 8009452:	4620      	mov	r0, r4
 8009454:	f000 fbbc 	bl	8009bd0 <i2s_init>
 8009458:	4620      	mov	r0, r4
 800945a:	f000 fbfa 	bl	8009c52 <i2s_enable>
 800945e:	f504 34e4 	add.w	r4, r4, #116736	; 0x1c800
 8009462:	f240 5001 	movw	r0, #1281	; 0x501
 8009466:	f7ff fa89 	bl	800897c <rcu_periph_clock_enable>
 800946a:	2101      	movs	r1, #1
 800946c:	4620      	mov	r0, r4
 800946e:	f7ff f8a5 	bl	80085bc <dma_deinit>
 8009472:	a801      	add	r0, sp, #4
 8009474:	f7ff f8be 	bl	80085f4 <dma_struct_para_init>
 8009478:	4916      	ldr	r1, [pc, #88]	; (80094d4 <gd32_spi_dma_begin()+0xe4>)
 800947a:	f44f 6380 	mov.w	r3, #1024	; 0x400
 800947e:	2501      	movs	r5, #1
 8009480:	9304      	str	r3, [sp, #16]
 8009482:	f44f 5200 	mov.w	r2, #8192	; 0x2000
 8009486:	f44f 7380 	mov.w	r3, #256	; 0x100
 800948a:	e9cd 1301 	strd	r1, r3, [sp, #4]
 800948e:	9206      	str	r2, [sp, #24]
 8009490:	4629      	mov	r1, r5
 8009492:	aa01      	add	r2, sp, #4
 8009494:	4620      	mov	r0, r4
 8009496:	f8ad 301c 	strh.w	r3, [sp, #28]
 800949a:	f88d 501e 	strb.w	r5, [sp, #30]
 800949e:	f7ff f8b5 	bl	800860c <dma_init>
 80094a2:	4629      	mov	r1, r5
 80094a4:	4620      	mov	r0, r4
 80094a6:	f7ff f8eb 	bl	8008680 <dma_circulation_disable>
 80094aa:	4629      	mov	r1, r5
 80094ac:	4620      	mov	r0, r4
 80094ae:	f7ff f8f7 	bl	80086a0 <dma_memory_to_memory_disable>
 80094b2:	4b09      	ldr	r3, [pc, #36]	; (80094d8 <gd32_spi_dma_begin()+0xe8>)
 80094b4:	2200      	movs	r2, #0
 80094b6:	f8c3 2420 	str.w	r2, [r3, #1056]	; 0x420
 80094ba:	b009      	add	sp, #36	; 0x24
 80094bc:	bd30      	pop	{r4, r5, pc}
 80094be:	bf00      	nop
 80094c0:	40010c00 	andmi	r0, r1, r0, lsl #24
 80094c4:	40003c00 	andmi	r3, r0, r0, lsl #24
 80094c8:	40010800 	andmi	r0, r1, r0, lsl #16
 80094cc:	00300400 	eorseq	r0, r0, r0, lsl #8
 80094d0:	00030d40 	andeq	r0, r3, r0, asr #26
 80094d4:	40003c0c 	andmi	r3, r0, ip, lsl #24
 80094d8:	40020000 	andmi	r0, r2, r0

080094dc <gd32_spi_dma_set_speed_hz(unsigned long)>:
 80094dc:	b538      	push	{r3, r4, r5, lr}
 80094de:	4c08      	ldr	r4, [pc, #32]	; (8009500 <gd32_spi_dma_set_speed_hz(unsigned long)+0x24>)
 80094e0:	4605      	mov	r5, r0
 80094e2:	4620      	mov	r0, r4
 80094e4:	f000 fbba 	bl	8009c5c <i2s_disable>
 80094e8:	2300      	movs	r3, #0
 80094ea:	4620      	mov	r0, r4
 80094ec:	461a      	mov	r2, r3
 80094ee:	0969      	lsrs	r1, r5, #5
 80094f0:	f000 fb7d 	bl	8009bee <i2s_psc_config>
 80094f4:	4620      	mov	r0, r4
 80094f6:	e8bd 4038 	ldmia.w	sp!, {r3, r4, r5, lr}
 80094fa:	f000 bbaa 	b.w	8009c52 <i2s_enable>
 80094fe:	bf00      	nop
 8009500:	40003c00 	andmi	r3, r0, r0, lsl #24

08009504 <gd32_spi_dma_tx_prepare(unsigned long*)>:
 8009504:	f44f 43c0 	mov.w	r3, #24576	; 0x6000
 8009508:	6003      	str	r3, [r0, #0]
 800950a:	4801      	ldr	r0, [pc, #4]	; (8009510 <gd32_spi_dma_tx_prepare(unsigned long*)+0xc>)
 800950c:	4770      	bx	lr
 800950e:	bf00      	nop
 8009510:	20002794 	mulcs	r0, r4, r7

08009514 <gd32_spi_dma_tx_start(unsigned char const*, unsigned long)>:
 8009514:	4a0a      	ldr	r2, [pc, #40]	; (8009540 <gd32_spi_dma_tx_start(unsigned char const*, unsigned long)+0x2c>)
 8009516:	f8d2 341c 	ldr.w	r3, [r2, #1052]	; 0x41c
 800951a:	3101      	adds	r1, #1
 800951c:	f023 0301 	bic.w	r3, r3, #1
 8009520:	f8c2 341c 	str.w	r3, [r2, #1052]	; 0x41c
 8009524:	f3c1 014f 	ubfx	r1, r1, #1, #16
 8009528:	f043 0301 	orr.w	r3, r3, #1
 800952c:	f8c2 0428 	str.w	r0, [r2, #1064]	; 0x428
 8009530:	f8c2 1420 	str.w	r1, [r2, #1056]	; 0x420
 8009534:	4803      	ldr	r0, [pc, #12]	; (8009544 <gd32_spi_dma_tx_start(unsigned char const*, unsigned long)+0x30>)
 8009536:	f8c2 341c 	str.w	r3, [r2, #1052]	; 0x41c
 800953a:	2100      	movs	r1, #0
 800953c:	f000 bb93 	b.w	8009c66 <spi_dma_enable>
 8009540:	40020000 	andmi	r0, r2, r0
 8009544:	40003c00 	andmi	r3, r0, r0, lsl #24

08009548 <gd32_spi_dma_tx_is_active()>:
 8009548:	4b03      	ldr	r3, [pc, #12]	; (8009558 <gd32_spi_dma_tx_is_active()+0x10>)
 800954a:	f8d3 0420 	ldr.w	r0, [r3, #1056]	; 0x420
 800954e:	3800      	subs	r0, #0
 8009550:	bf18      	it	ne
 8009552:	2001      	movne	r0, #1
 8009554:	4770      	bx	lr
 8009556:	bf00      	nop
 8009558:	40020000 	andmi	r0, r2, r0

0800955c <gd32_uart_begin>:
 800955c:	b5f8      	push	{r3, r4, r5, r6, r7, lr}
 800955e:	461e      	mov	r6, r3
 8009560:	4b6a      	ldr	r3, [pc, #424]	; (800970c <gd32_uart_begin+0x1b0>)
 8009562:	4298      	cmp	r0, r3
 8009564:	4604      	mov	r4, r0
 8009566:	460f      	mov	r7, r1
 8009568:	4615      	mov	r5, r2
 800956a:	f000 8094 	beq.w	8009696 <gd32_uart_begin+0x13a>
 800956e:	d820      	bhi.n	80095b2 <gd32_uart_begin+0x56>
 8009570:	f5a3 6300 	sub.w	r3, r3, #2048	; 0x800
 8009574:	4298      	cmp	r0, r3
 8009576:	d075      	beq.n	8009664 <gd32_uart_begin+0x108>
 8009578:	f240 7012 	movw	r0, #1810	; 0x712
 800957c:	f7ff f9fe 	bl	800897c <rcu_periph_clock_enable>
 8009580:	f240 6004 	movw	r0, #1540	; 0x604
 8009584:	f7ff f9fa 	bl	800897c <rcu_periph_clock_enable>
 8009588:	f44f 60c0 	mov.w	r0, #1536	; 0x600
 800958c:	f7ff f9f6 	bl	800897c <rcu_periph_clock_enable>
 8009590:	485f      	ldr	r0, [pc, #380]	; (8009710 <gd32_uart_begin+0x1b4>)
 8009592:	f44f 6380 	mov.w	r3, #1024	; 0x400
 8009596:	2203      	movs	r2, #3
 8009598:	2118      	movs	r1, #24
 800959a:	f7ff f961 	bl	8008860 <gpio_init>
 800959e:	485c      	ldr	r0, [pc, #368]	; (8009710 <gd32_uart_begin+0x1b4>)
 80095a0:	2104      	movs	r1, #4
 80095a2:	f44f 6300 	mov.w	r3, #2048	; 0x800
 80095a6:	2203      	movs	r2, #3
 80095a8:	f7ff f95a 	bl	8008860 <gpio_init>
 80095ac:	4859      	ldr	r0, [pc, #356]	; (8009714 <gd32_uart_begin+0x1b8>)
 80095ae:	2101      	movs	r1, #1
 80095b0:	e01d      	b.n	80095ee <gd32_uart_begin+0x92>
 80095b2:	4b59      	ldr	r3, [pc, #356]	; (8009718 <gd32_uart_begin+0x1bc>)
 80095b4:	4298      	cmp	r0, r3
 80095b6:	f000 8087 	beq.w	80096c8 <gd32_uart_begin+0x16c>
 80095ba:	f240 600e 	movw	r0, #1550	; 0x60e
 80095be:	f7ff f9dd 	bl	800897c <rcu_periph_clock_enable>
 80095c2:	f240 6003 	movw	r0, #1539	; 0x603
 80095c6:	f7ff f9d9 	bl	800897c <rcu_periph_clock_enable>
 80095ca:	f44f 60c0 	mov.w	r0, #1536	; 0x600
 80095ce:	f7ff f9d5 	bl	800897c <rcu_periph_clock_enable>
 80095d2:	4852      	ldr	r0, [pc, #328]	; (800971c <gd32_uart_begin+0x1c0>)
 80095d4:	2340      	movs	r3, #64	; 0x40
 80095d6:	2203      	movs	r2, #3
 80095d8:	2118      	movs	r1, #24
 80095da:	f7ff f941 	bl	8008860 <gpio_init>
 80095de:	484f      	ldr	r0, [pc, #316]	; (800971c <gd32_uart_begin+0x1c0>)
 80095e0:	2104      	movs	r1, #4
 80095e2:	2380      	movs	r3, #128	; 0x80
 80095e4:	2203      	movs	r2, #3
 80095e6:	f7ff f93b 	bl	8008860 <gpio_init>
 80095ea:	2101      	movs	r1, #1
 80095ec:	2004      	movs	r0, #4
 80095ee:	f7ff f98d 	bl	800890c <gpio_pin_remap_config>
 80095f2:	4620      	mov	r0, r4
 80095f4:	f7ff fc3a 	bl	8008e6c <usart_deinit>
 80095f8:	68e3      	ldr	r3, [r4, #12]
 80095fa:	f423 5300 	bic.w	r3, r3, #8192	; 0x2000
 80095fe:	60e3      	str	r3, [r4, #12]
 8009600:	4639      	mov	r1, r7
 8009602:	4620      	mov	r0, r4
 8009604:	f7ff fc72 	bl	8008eec <usart_baudrate_set>
 8009608:	f1a5 0309 	sub.w	r3, r5, #9
 800960c:	4259      	negs	r1, r3
 800960e:	4159      	adcs	r1, r3
 8009610:	0309      	lsls	r1, r1, #12
 8009612:	4620      	mov	r0, r4
 8009614:	f7ff fc9a 	bl	8008f4c <usart_word_length_set>
 8009618:	9906      	ldr	r1, [sp, #24]
 800961a:	1e8a      	subs	r2, r1, #2
 800961c:	4251      	negs	r1, r2
 800961e:	4151      	adcs	r1, r2
 8009620:	0349      	lsls	r1, r1, #13
 8009622:	4620      	mov	r0, r4
 8009624:	f7ff fc9a 	bl	8008f5c <usart_stop_bit_set>
 8009628:	2e01      	cmp	r6, #1
 800962a:	d069      	beq.n	8009700 <gd32_uart_begin+0x1a4>
 800962c:	2e02      	cmp	r6, #2
 800962e:	d16a      	bne.n	8009706 <gd32_uart_begin+0x1aa>
 8009630:	f44f 6180 	mov.w	r1, #1024	; 0x400
 8009634:	4620      	mov	r0, r4
 8009636:	f7ff fc81 	bl	8008f3c <usart_parity_config>
 800963a:	2100      	movs	r1, #0
 800963c:	4620      	mov	r0, r4
 800963e:	f7ff fca9 	bl	8008f94 <usart_hardware_flow_rts_config>
 8009642:	2100      	movs	r1, #0
 8009644:	4620      	mov	r0, r4
 8009646:	f7ff fcaf 	bl	8008fa8 <usart_hardware_flow_cts_config>
 800964a:	2104      	movs	r1, #4
 800964c:	4620      	mov	r0, r4
 800964e:	f7ff fc97 	bl	8008f80 <usart_receive_config>
 8009652:	2108      	movs	r1, #8
 8009654:	4620      	mov	r0, r4
 8009656:	f7ff fc89 	bl	8008f6c <usart_transmit_config>
 800965a:	68e3      	ldr	r3, [r4, #12]
 800965c:	f443 5300 	orr.w	r3, r3, #8192	; 0x2000
 8009660:	60e3      	str	r3, [r4, #12]
 8009662:	bdf8      	pop	{r3, r4, r5, r6, r7, pc}
 8009664:	f240 7011 	movw	r0, #1809	; 0x711
 8009668:	f7ff f988 	bl	800897c <rcu_periph_clock_enable>
 800966c:	f240 6002 	movw	r0, #1538	; 0x602
 8009670:	f7ff f984 	bl	800897c <rcu_periph_clock_enable>
 8009674:	f44f 60c0 	mov.w	r0, #1536	; 0x600
 8009678:	f7ff f980 	bl	800897c <rcu_periph_clock_enable>
 800967c:	4828      	ldr	r0, [pc, #160]	; (8009720 <gd32_uart_begin+0x1c4>)
 800967e:	2304      	movs	r3, #4
 8009680:	2203      	movs	r2, #3
 8009682:	2118      	movs	r1, #24
 8009684:	f7ff f8ec 	bl	8008860 <gpio_init>
 8009688:	4825      	ldr	r0, [pc, #148]	; (8009720 <gd32_uart_begin+0x1c4>)
 800968a:	2308      	movs	r3, #8
 800968c:	2203      	movs	r2, #3
 800968e:	2104      	movs	r1, #4
 8009690:	f7ff f8e6 	bl	8008860 <gpio_init>
 8009694:	e7ad      	b.n	80095f2 <gd32_uart_begin+0x96>
 8009696:	f240 7013 	movw	r0, #1811	; 0x713
 800969a:	f7ff f96f 	bl	800897c <rcu_periph_clock_enable>
 800969e:	f240 6004 	movw	r0, #1540	; 0x604
 80096a2:	f7ff f96b 	bl	800897c <rcu_periph_clock_enable>
 80096a6:	f44f 60c0 	mov.w	r0, #1536	; 0x600
 80096aa:	f7ff f967 	bl	800897c <rcu_periph_clock_enable>
 80096ae:	4818      	ldr	r0, [pc, #96]	; (8009710 <gd32_uart_begin+0x1b4>)
 80096b0:	f44f 6380 	mov.w	r3, #1024	; 0x400
 80096b4:	2203      	movs	r2, #3
 80096b6:	2118      	movs	r1, #24
 80096b8:	f7ff f8d2 	bl	8008860 <gpio_init>
 80096bc:	4814      	ldr	r0, [pc, #80]	; (8009710 <gd32_uart_begin+0x1b4>)
 80096be:	f44f 6300 	mov.w	r3, #2048	; 0x800
 80096c2:	2203      	movs	r2, #3
 80096c4:	2104      	movs	r1, #4
 80096c6:	e7e3      	b.n	8009690 <gd32_uart_begin+0x134>
 80096c8:	f240 7014 	movw	r0, #1812	; 0x714
 80096cc:	f7ff f956 	bl	800897c <rcu_periph_clock_enable>
 80096d0:	f240 6004 	movw	r0, #1540	; 0x604
 80096d4:	f7ff f952 	bl	800897c <rcu_periph_clock_enable>
 80096d8:	f240 6005 	movw	r0, #1541	; 0x605
 80096dc:	f7ff f94e 	bl	800897c <rcu_periph_clock_enable>
 80096e0:	f44f 60c0 	mov.w	r0, #1536	; 0x600
 80096e4:	f7ff f94a 	bl	800897c <rcu_periph_clock_enable>
 80096e8:	4809      	ldr	r0, [pc, #36]	; (8009710 <gd32_uart_begin+0x1b4>)
 80096ea:	f44f 5380 	mov.w	r3, #4096	; 0x1000
 80096ee:	2203      	movs	r2, #3
 80096f0:	2118      	movs	r1, #24
 80096f2:	f7ff f8b5 	bl	8008860 <gpio_init>
 80096f6:	2304      	movs	r3, #4
 80096f8:	480a      	ldr	r0, [pc, #40]	; (8009724 <gd32_uart_begin+0x1c8>)
 80096fa:	2203      	movs	r2, #3
 80096fc:	4619      	mov	r1, r3
 80096fe:	e7c7      	b.n	8009690 <gd32_uart_begin+0x134>
 8009700:	f44f 61c0 	mov.w	r1, #1536	; 0x600
 8009704:	e796      	b.n	8009634 <gd32_uart_begin+0xd8>
 8009706:	2100      	movs	r1, #0
 8009708:	e794      	b.n	8009634 <gd32_uart_begin+0xd8>
 800970a:	bf00      	nop
 800970c:	40004c00 	andmi	r4, r0, r0, lsl #24
 8009710:	40011000 	andmi	r1, r1, r0
 8009714:	00140010 	andseq	r0, r4, r0, lsl r0
 8009718:	40005000 	andmi	r5, r0, r0
 800971c:	40010c00 	andmi	r0, r1, r0, lsl #24
 8009720:	40010800 	andmi	r0, r1, r0, lsl #16
 8009724:	40011400 	andmi	r1, r1, r0, lsl #8

08009728 <uart0_puts>:
 8009728:	b510      	push	{r4, lr}
 800972a:	1e44      	subs	r4, r0, #1
 800972c:	f814 3f01 	ldrb.w	r3, [r4, #1]!
 8009730:	b903      	cbnz	r3, 8009734 <uart0_puts+0xc>
 8009732:	bd10      	pop	{r4, pc}
 8009734:	2b0a      	cmp	r3, #10
 8009736:	d102      	bne.n	800973e <uart0_puts+0x16>
 8009738:	200d      	movs	r0, #13
 800973a:	f000 f879 	bl	8009830 <uart0_putc>
 800973e:	7820      	ldrb	r0, [r4, #0]
 8009740:	f000 f876 	bl	8009830 <uart0_putc>
 8009744:	e7f2      	b.n	800972c <uart0_puts+0x4>
	...

08009748 <mac_address_get(unsigned char*)>:
 8009748:	4a07      	ldr	r2, [pc, #28]	; (8009768 <mac_address_get(unsigned char*)+0x20>)
 800974a:	f8d2 37e8 	ldr.w	r3, [r2, #2024]	; 0x7e8
 800974e:	f8d2 27ec 	ldr.w	r2, [r2, #2028]	; 0x7ec
 8009752:	7042      	strb	r2, [r0, #1]
 8009754:	0e1a      	lsrs	r2, r3, #24
 8009756:	7082      	strb	r2, [r0, #2]
 8009758:	0c1a      	lsrs	r2, r3, #16
 800975a:	2102      	movs	r1, #2
 800975c:	70c2      	strb	r2, [r0, #3]
 800975e:	0a1a      	lsrs	r2, r3, #8
 8009760:	7001      	strb	r1, [r0, #0]
 8009762:	7102      	strb	r2, [r0, #4]
 8009764:	7143      	strb	r3, [r0, #5]
 8009766:	4770      	bx	lr
 8009768:	1ffff000 	svcne	0x00fff000

0800976c <systick_config>:
 800976c:	4b0c      	ldr	r3, [pc, #48]	; (80097a0 <systick_config+0x34>)
 800976e:	f44f 727a 	mov.w	r2, #1000	; 0x3e8
 8009772:	681b      	ldr	r3, [r3, #0]
 8009774:	fbb3 f3f2 	udiv	r3, r3, r2
 8009778:	3b01      	subs	r3, #1
 800977a:	f1b3 7f80 	cmp.w	r3, #16777216	; 0x1000000
 800977e:	d20d      	bcs.n	800979c <systick_config+0x30>
 8009780:	f04f 22e0 	mov.w	r2, #3758153728	; 0xe000e000
 8009784:	21f0      	movs	r1, #240	; 0xf0
 8009786:	6153      	str	r3, [r2, #20]
 8009788:	4b06      	ldr	r3, [pc, #24]	; (80097a4 <systick_config+0x38>)
 800978a:	2007      	movs	r0, #7
 800978c:	f883 1023 	strb.w	r1, [r3, #35]	; 0x23
 8009790:	2100      	movs	r1, #0
 8009792:	6191      	str	r1, [r2, #24]
 8009794:	6110      	str	r0, [r2, #16]
 8009796:	f883 1023 	strb.w	r1, [r3, #35]	; 0x23
 800979a:	4770      	bx	lr
 800979c:	e7fe      	b.n	800979c <systick_config+0x30>
 800979e:	bf00      	nop
 80097a0:	2000106c 	andcs	r1, r0, ip, rrx
 80097a4:	e000ed00 	and	lr, r0, r0, lsl #26

080097a8 <SysTick_Handler>:
 80097a8:	4a02      	ldr	r2, [pc, #8]	; (80097b4 <SysTick_Handler+0xc>)
 80097aa:	6813      	ldr	r3, [r2, #0]
 80097ac:	3301      	adds	r3, #1
 80097ae:	6013      	str	r3, [r2, #0]
 80097b0:	4770      	bx	lr
 80097b2:	bf00      	nop
 80097b4:	20008794 	mulcs	r0, r4, r7

080097b8 <udelay_init()>:
 80097b8:	4a07      	ldr	r2, [pc, #28]	; (80097d8 <udelay_init()+0x20>)
 80097ba:	f8d2 30fc 	ldr.w	r3, [r2, #252]	; 0xfc
 80097be:	f043 7380 	orr.w	r3, r3, #16777216	; 0x1000000
 80097c2:	f8c2 30fc 	str.w	r3, [r2, #252]	; 0xfc
 80097c6:	4b05      	ldr	r3, [pc, #20]	; (80097dc <udelay_init()+0x24>)
 80097c8:	2200      	movs	r2, #0
 80097ca:	605a      	str	r2, [r3, #4]
 80097cc:	681a      	ldr	r2, [r3, #0]
 80097ce:	f042 0201 	orr.w	r2, r2, #1
 80097d2:	601a      	str	r2, [r3, #0]
 80097d4:	4770      	bx	lr
 80097d6:	bf00      	nop
 80097d8:	e000ed00 	and	lr, r0, r0, lsl #26
 80097dc:	e0001000 	and	r1, r0, r0

080097e0 <udelay(unsigned long, unsigned long)>:
 80097e0:	2378      	movs	r3, #120	; 0x78
 80097e2:	b530      	push	{r4, r5, lr}
 80097e4:	4358      	muls	r0, r3
 80097e6:	b909      	cbnz	r1, 80097ec <udelay(unsigned long, unsigned long)+0xc>
 80097e8:	4b08      	ldr	r3, [pc, #32]	; (800980c <udelay(unsigned long, unsigned long)+0x2c>)
 80097ea:	6859      	ldr	r1, [r3, #4]
 80097ec:	4c07      	ldr	r4, [pc, #28]	; (800980c <udelay(unsigned long, unsigned long)+0x2c>)
 80097ee:	2300      	movs	r3, #0
 80097f0:	6862      	ldr	r2, [r4, #4]
 80097f2:	4291      	cmp	r1, r2
 80097f4:	d0fc      	beq.n	80097f0 <udelay(unsigned long, unsigned long)+0x10>
 80097f6:	bf2a      	itet	cs
 80097f8:	f102 35ff 	addcs.w	r5, r2, #4294967295	; 0xffffffff
 80097fc:	189b      	addcc	r3, r3, r2
 80097fe:	195b      	addcs	r3, r3, r5
 8009800:	1a5b      	subs	r3, r3, r1
 8009802:	4283      	cmp	r3, r0
 8009804:	d300      	bcc.n	8009808 <udelay(unsigned long, unsigned long)+0x28>
 8009806:	bd30      	pop	{r4, r5, pc}
 8009808:	4611      	mov	r1, r2
 800980a:	e7f1      	b.n	80097f0 <udelay(unsigned long, unsigned long)+0x10>
 800980c:	e0001000 	and	r1, r0, r0

08009810 <uart0_init>:
 8009810:	b507      	push	{r0, r1, r2, lr}
 8009812:	2301      	movs	r3, #1
 8009814:	9300      	str	r3, [sp, #0]
 8009816:	4805      	ldr	r0, [pc, #20]	; (800982c <uart0_init+0x1c>)
 8009818:	2300      	movs	r3, #0
 800981a:	2208      	movs	r2, #8
 800981c:	f44f 31e1 	mov.w	r1, #115200	; 0x1c200
 8009820:	f7ff fe9c 	bl	800955c <gd32_uart_begin>
 8009824:	b003      	add	sp, #12
 8009826:	f85d fb04 	ldr.w	pc, [sp], #4
 800982a:	bf00      	nop
 800982c:	40013800 	andmi	r3, r1, r0, lsl #16

08009830 <uart0_putc>:
 8009830:	280a      	cmp	r0, #10
 8009832:	b538      	push	{r3, r4, r5, lr}
 8009834:	4604      	mov	r4, r0
 8009836:	d10a      	bne.n	800984e <uart0_putc+0x1e>
 8009838:	4d0b      	ldr	r5, [pc, #44]	; (8009868 <uart0_putc+0x38>)
 800983a:	2107      	movs	r1, #7
 800983c:	4628      	mov	r0, r5
 800983e:	f7ff fbc7 	bl	8008fd0 <usart_flag_get>
 8009842:	2800      	cmp	r0, #0
 8009844:	d0f9      	beq.n	800983a <uart0_putc+0xa>
 8009846:	4b09      	ldr	r3, [pc, #36]	; (800986c <uart0_putc+0x3c>)
 8009848:	220d      	movs	r2, #13
 800984a:	f8c3 2804 	str.w	r2, [r3, #2052]	; 0x804
 800984e:	4d06      	ldr	r5, [pc, #24]	; (8009868 <uart0_putc+0x38>)
 8009850:	2107      	movs	r1, #7
 8009852:	4628      	mov	r0, r5
 8009854:	f7ff fbbc 	bl	8008fd0 <usart_flag_get>
 8009858:	2800      	cmp	r0, #0
 800985a:	d0f9      	beq.n	8009850 <uart0_putc+0x20>
 800985c:	4b03      	ldr	r3, [pc, #12]	; (800986c <uart0_putc+0x3c>)
 800985e:	b2e4      	uxtb	r4, r4
 8009860:	f8c3 4804 	str.w	r4, [r3, #2052]	; 0x804
 8009864:	bd38      	pop	{r3, r4, r5, pc}
 8009866:	bf00      	nop
 8009868:	40013800 	andmi	r3, r1, r0, lsl #16
 800986c:	40013000 	andmi	r3, r1, r0

08009870 <adc_enable>:
 8009870:	6883      	ldr	r3, [r0, #8]
 8009872:	07db      	lsls	r3, r3, #31
 8009874:	bf5e      	ittt	pl
 8009876:	6883      	ldrpl	r3, [r0, #8]
 8009878:	f043 0301 	orrpl.w	r3, r3, #1
 800987c:	6083      	strpl	r3, [r0, #8]
 800987e:	4770      	bx	lr

08009880 <adc_calibration_enable>:
 8009880:	6883      	ldr	r3, [r0, #8]
 8009882:	f043 0308 	orr.w	r3, r3, #8
 8009886:	f100 0208 	add.w	r2, r0, #8
 800988a:	6083      	str	r3, [r0, #8]
 800988c:	6813      	ldr	r3, [r2, #0]
 800988e:	0719      	lsls	r1, r3, #28
 8009890:	d4fc      	bmi.n	800988c <adc_calibration_enable+0xc>
 8009892:	6883      	ldr	r3, [r0, #8]
 8009894:	f043 0304 	orr.w	r3, r3, #4
 8009898:	6083      	str	r3, [r0, #8]
 800989a:	6813      	ldr	r3, [r2, #0]
 800989c:	075b      	lsls	r3, r3, #29
 800989e:	d4fc      	bmi.n	800989a <adc_calibration_enable+0x1a>
 80098a0:	4770      	bx	lr
	...

080098a4 <adc_tempsensor_vrefint_enable>:
 80098a4:	4a03      	ldr	r2, [pc, #12]	; (80098b4 <adc_tempsensor_vrefint_enable+0x10>)
 80098a6:	f8d2 3408 	ldr.w	r3, [r2, #1032]	; 0x408
 80098aa:	f443 0300 	orr.w	r3, r3, #8388608	; 0x800000
 80098ae:	f8c2 3408 	str.w	r3, [r2, #1032]	; 0x408
 80098b2:	4770      	bx	lr
 80098b4:	40012000 	andmi	r2, r1, r0

080098b8 <adc_mode_config>:
 80098b8:	4b06      	ldr	r3, [pc, #24]	; (80098d4 <adc_mode_config+0x1c>)
 80098ba:	f8d3 2404 	ldr.w	r2, [r3, #1028]	; 0x404
 80098be:	f422 2270 	bic.w	r2, r2, #983040	; 0xf0000
 80098c2:	f8c3 2404 	str.w	r2, [r3, #1028]	; 0x404
 80098c6:	f8d3 2404 	ldr.w	r2, [r3, #1028]	; 0x404
 80098ca:	4302      	orrs	r2, r0
 80098cc:	f8c3 2404 	str.w	r2, [r3, #1028]	; 0x404
 80098d0:	4770      	bx	lr
 80098d2:	bf00      	nop
 80098d4:	40012000 	andmi	r2, r1, r0

080098d8 <adc_special_function_config>:
 80098d8:	b510      	push	{r4, lr}
 80098da:	f401 7380 	and.w	r3, r1, #256	; 0x100
 80098de:	f401 6480 	and.w	r4, r1, #1024	; 0x400
 80098e2:	f001 0102 	and.w	r1, r1, #2
 80098e6:	b17a      	cbz	r2, 8009908 <adc_special_function_config+0x30>
 80098e8:	b11b      	cbz	r3, 80098f2 <adc_special_function_config+0x1a>
 80098ea:	6843      	ldr	r3, [r0, #4]
 80098ec:	f443 7380 	orr.w	r3, r3, #256	; 0x100
 80098f0:	6043      	str	r3, [r0, #4]
 80098f2:	b11c      	cbz	r4, 80098fc <adc_special_function_config+0x24>
 80098f4:	6843      	ldr	r3, [r0, #4]
 80098f6:	f443 6380 	orr.w	r3, r3, #1024	; 0x400
 80098fa:	6043      	str	r3, [r0, #4]
 80098fc:	b119      	cbz	r1, 8009906 <adc_special_function_config+0x2e>
 80098fe:	6883      	ldr	r3, [r0, #8]
 8009900:	f043 0302 	orr.w	r3, r3, #2
 8009904:	6083      	str	r3, [r0, #8]
 8009906:	bd10      	pop	{r4, pc}
 8009908:	b11b      	cbz	r3, 8009912 <adc_special_function_config+0x3a>
 800990a:	6843      	ldr	r3, [r0, #4]
 800990c:	f423 7380 	bic.w	r3, r3, #256	; 0x100
 8009910:	6043      	str	r3, [r0, #4]
 8009912:	b11c      	cbz	r4, 800991c <adc_special_function_config+0x44>
 8009914:	6843      	ldr	r3, [r0, #4]
 8009916:	f423 6380 	bic.w	r3, r3, #1024	; 0x400
 800991a:	6043      	str	r3, [r0, #4]
 800991c:	2900      	cmp	r1, #0
 800991e:	d0f2      	beq.n	8009906 <adc_special_function_config+0x2e>
 8009920:	6883      	ldr	r3, [r0, #8]
 8009922:	f023 0302 	bic.w	r3, r3, #2
 8009926:	e7ed      	b.n	8009904 <adc_special_function_config+0x2c>

08009928 <adc_data_alignment_config>:
 8009928:	6883      	ldr	r3, [r0, #8]
 800992a:	b119      	cbz	r1, 8009934 <adc_data_alignment_config+0xc>
 800992c:	f443 6300 	orr.w	r3, r3, #2048	; 0x800
 8009930:	6083      	str	r3, [r0, #8]
 8009932:	4770      	bx	lr
 8009934:	f423 6300 	bic.w	r3, r3, #2048	; 0x800
 8009938:	e7fa      	b.n	8009930 <adc_data_alignment_config+0x8>

0800993a <adc_channel_length_config>:
 800993a:	2901      	cmp	r1, #1
 800993c:	d002      	beq.n	8009944 <adc_channel_length_config+0xa>
 800993e:	2902      	cmp	r1, #2
 8009940:	d00c      	beq.n	800995c <adc_channel_length_config+0x22>
 8009942:	4770      	bx	lr
 8009944:	6ac3      	ldr	r3, [r0, #44]	; 0x2c
 8009946:	f423 0370 	bic.w	r3, r3, #15728640	; 0xf00000
 800994a:	62c3      	str	r3, [r0, #44]	; 0x2c
 800994c:	3a01      	subs	r2, #1
 800994e:	6ac3      	ldr	r3, [r0, #44]	; 0x2c
 8009950:	0512      	lsls	r2, r2, #20
 8009952:	f402 0270 	and.w	r2, r2, #15728640	; 0xf00000
 8009956:	431a      	orrs	r2, r3
 8009958:	62c2      	str	r2, [r0, #44]	; 0x2c
 800995a:	4770      	bx	lr
 800995c:	6b83      	ldr	r3, [r0, #56]	; 0x38
 800995e:	f423 1340 	bic.w	r3, r3, #3145728	; 0x300000
 8009962:	6383      	str	r3, [r0, #56]	; 0x38
 8009964:	3a01      	subs	r2, #1
 8009966:	6b83      	ldr	r3, [r0, #56]	; 0x38
 8009968:	0512      	lsls	r2, r2, #20
 800996a:	f402 1240 	and.w	r2, r2, #3145728	; 0x300000
 800996e:	431a      	orrs	r2, r3
 8009970:	6382      	str	r2, [r0, #56]	; 0x38
 8009972:	4770      	bx	lr

08009974 <adc_inserted_channel_config>:
 8009974:	b530      	push	{r4, r5, lr}
 8009976:	6b85      	ldr	r5, [r0, #56]	; 0x38
 8009978:	6b84      	ldr	r4, [r0, #56]	; 0x38
 800997a:	f3c5 5501 	ubfx	r5, r5, #20, #2
 800997e:	3103      	adds	r1, #3
 8009980:	1b49      	subs	r1, r1, r5
 8009982:	eb01 0181 	add.w	r1, r1, r1, lsl #2
 8009986:	251f      	movs	r5, #31
 8009988:	408d      	lsls	r5, r1
 800998a:	ea24 0405 	bic.w	r4, r4, r5
 800998e:	fa02 f101 	lsl.w	r1, r2, r1
 8009992:	4321      	orrs	r1, r4
 8009994:	2a09      	cmp	r2, #9
 8009996:	6381      	str	r1, [r0, #56]	; 0x38
 8009998:	d80b      	bhi.n	80099b2 <adc_inserted_channel_config+0x3e>
 800999a:	6901      	ldr	r1, [r0, #16]
 800999c:	eb02 0242 	add.w	r2, r2, r2, lsl #1
 80099a0:	2407      	movs	r4, #7
 80099a2:	4094      	lsls	r4, r2
 80099a4:	ea21 0104 	bic.w	r1, r1, r4
 80099a8:	fa03 f202 	lsl.w	r2, r3, r2
 80099ac:	430a      	orrs	r2, r1
 80099ae:	6102      	str	r2, [r0, #16]
 80099b0:	bd30      	pop	{r4, r5, pc}
 80099b2:	2a11      	cmp	r2, #17
 80099b4:	d8fc      	bhi.n	80099b0 <adc_inserted_channel_config+0x3c>
 80099b6:	2103      	movs	r1, #3
 80099b8:	f06f 051d 	mvn.w	r5, #29
 80099bc:	fb11 5202 	smlabb	r2, r1, r2, r5
 80099c0:	68c4      	ldr	r4, [r0, #12]
 80099c2:	2107      	movs	r1, #7
 80099c4:	4091      	lsls	r1, r2
 80099c6:	ea24 0101 	bic.w	r1, r4, r1
 80099ca:	4093      	lsls	r3, r2
 80099cc:	430b      	orrs	r3, r1
 80099ce:	60c3      	str	r3, [r0, #12]
 80099d0:	e7ee      	b.n	80099b0 <adc_inserted_channel_config+0x3c>

080099d2 <adc_external_trigger_config>:
 80099d2:	f001 0301 	and.w	r3, r1, #1
 80099d6:	f001 0102 	and.w	r1, r1, #2
 80099da:	b152      	cbz	r2, 80099f2 <adc_external_trigger_config+0x20>
 80099dc:	b11b      	cbz	r3, 80099e6 <adc_external_trigger_config+0x14>
 80099de:	6883      	ldr	r3, [r0, #8]
 80099e0:	f443 1380 	orr.w	r3, r3, #1048576	; 0x100000
 80099e4:	6083      	str	r3, [r0, #8]
 80099e6:	b119      	cbz	r1, 80099f0 <adc_external_trigger_config+0x1e>
 80099e8:	6883      	ldr	r3, [r0, #8]
 80099ea:	f443 4300 	orr.w	r3, r3, #32768	; 0x8000
 80099ee:	6083      	str	r3, [r0, #8]
 80099f0:	4770      	bx	lr
 80099f2:	b11b      	cbz	r3, 80099fc <adc_external_trigger_config+0x2a>
 80099f4:	6883      	ldr	r3, [r0, #8]
 80099f6:	f423 1380 	bic.w	r3, r3, #1048576	; 0x100000
 80099fa:	6083      	str	r3, [r0, #8]
 80099fc:	2900      	cmp	r1, #0
 80099fe:	d0f7      	beq.n	80099f0 <adc_external_trigger_config+0x1e>
 8009a00:	6883      	ldr	r3, [r0, #8]
 8009a02:	f423 4300 	bic.w	r3, r3, #32768	; 0x8000
 8009a06:	e7f2      	b.n	80099ee <adc_external_trigger_config+0x1c>

08009a08 <adc_external_trigger_source_config>:
 8009a08:	2901      	cmp	r1, #1
 8009a0a:	d002      	beq.n	8009a12 <adc_external_trigger_source_config+0xa>
 8009a0c:	2902      	cmp	r1, #2
 8009a0e:	d008      	beq.n	8009a22 <adc_external_trigger_source_config+0x1a>
 8009a10:	4770      	bx	lr
 8009a12:	6883      	ldr	r3, [r0, #8]
 8009a14:	f423 2360 	bic.w	r3, r3, #917504	; 0xe0000
 8009a18:	6083      	str	r3, [r0, #8]
 8009a1a:	6883      	ldr	r3, [r0, #8]
 8009a1c:	4313      	orrs	r3, r2
 8009a1e:	6083      	str	r3, [r0, #8]
 8009a20:	4770      	bx	lr
 8009a22:	6883      	ldr	r3, [r0, #8]
 8009a24:	f423 43e0 	bic.w	r3, r3, #28672	; 0x7000
 8009a28:	e7f6      	b.n	8009a18 <adc_external_trigger_source_config+0x10>

08009a2a <adc_software_trigger_enable>:
 8009a2a:	07ca      	lsls	r2, r1, #31
 8009a2c:	bf42      	ittt	mi
 8009a2e:	6883      	ldrmi	r3, [r0, #8]
 8009a30:	f443 0380 	orrmi.w	r3, r3, #4194304	; 0x400000
 8009a34:	6083      	strmi	r3, [r0, #8]
 8009a36:	078b      	lsls	r3, r1, #30
 8009a38:	bf42      	ittt	mi
 8009a3a:	6883      	ldrmi	r3, [r0, #8]
 8009a3c:	f443 1300 	orrmi.w	r3, r3, #2097152	; 0x200000
 8009a40:	6083      	strmi	r3, [r0, #8]
 8009a42:	4770      	bx	lr

08009a44 <i2c_clock_config>:
 8009a44:	b570      	push	{r4, r5, r6, lr}
 8009a46:	4604      	mov	r4, r0
 8009a48:	4616      	mov	r6, r2
 8009a4a:	460d      	mov	r5, r1
 8009a4c:	b901      	cbnz	r1, 8009a50 <i2c_clock_config+0xc>
 8009a4e:	e7fe      	b.n	8009a4e <i2c_clock_config+0xa>
 8009a50:	2002      	movs	r0, #2
 8009a52:	f7fe ffed 	bl	8008a30 <rcu_clock_freq_get>
 8009a56:	4a39      	ldr	r2, [pc, #228]	; (8009b3c <i2c_clock_config+0xf8>)
 8009a58:	4939      	ldr	r1, [pc, #228]	; (8009b40 <i2c_clock_config+0xfc>)
 8009a5a:	fbb0 f1f1 	udiv	r1, r0, r1
 8009a5e:	4290      	cmp	r0, r2
 8009a60:	bf34      	ite	cc
 8009a62:	460b      	movcc	r3, r1
 8009a64:	233c      	movcs	r3, #60	; 0x3c
 8009a66:	6862      	ldr	r2, [r4, #4]
 8009a68:	f022 027f 	bic.w	r2, r2, #127	; 0x7f
 8009a6c:	431a      	orrs	r2, r3
 8009a6e:	6062      	str	r2, [r4, #4]
 8009a70:	4a34      	ldr	r2, [pc, #208]	; (8009b44 <i2c_clock_config+0x100>)
 8009a72:	4295      	cmp	r5, r2
 8009a74:	d816      	bhi.n	8009aa4 <i2c_clock_config+0x60>
 8009a76:	3101      	adds	r1, #1
 8009a78:	293b      	cmp	r1, #59	; 0x3b
 8009a7a:	d90d      	bls.n	8009a98 <i2c_clock_config+0x54>
 8009a7c:	233c      	movs	r3, #60	; 0x3c
 8009a7e:	6223      	str	r3, [r4, #32]
 8009a80:	006d      	lsls	r5, r5, #1
 8009a82:	fbb0 f0f5 	udiv	r0, r0, r5
 8009a86:	2804      	cmp	r0, #4
 8009a88:	69e3      	ldr	r3, [r4, #28]
 8009a8a:	bf38      	it	cc
 8009a8c:	2004      	movcc	r0, #4
 8009a8e:	f3c0 000b 	ubfx	r0, r0, #0, #12
 8009a92:	4318      	orrs	r0, r3
 8009a94:	61e0      	str	r0, [r4, #28]
 8009a96:	bd70      	pop	{r4, r5, r6, pc}
 8009a98:	2902      	cmp	r1, #2
 8009a9a:	d801      	bhi.n	8009aa0 <i2c_clock_config+0x5c>
 8009a9c:	2302      	movs	r3, #2
 8009a9e:	e7ee      	b.n	8009a7e <i2c_clock_config+0x3a>
 8009aa0:	6221      	str	r1, [r4, #32]
 8009aa2:	e7ed      	b.n	8009a80 <i2c_clock_config+0x3c>
 8009aa4:	4a28      	ldr	r2, [pc, #160]	; (8009b48 <i2c_clock_config+0x104>)
 8009aa6:	4295      	cmp	r5, r2
 8009aa8:	f44f 717a 	mov.w	r1, #1000	; 0x3e8
 8009aac:	d824      	bhi.n	8009af8 <i2c_clock_config+0xb4>
 8009aae:	f44f 7296 	mov.w	r2, #300	; 0x12c
 8009ab2:	4353      	muls	r3, r2
 8009ab4:	fbb3 f3f1 	udiv	r3, r3, r1
 8009ab8:	3301      	adds	r3, #1
 8009aba:	6223      	str	r3, [r4, #32]
 8009abc:	b9a6      	cbnz	r6, 8009ae8 <i2c_clock_config+0xa4>
 8009abe:	eb05 0345 	add.w	r3, r5, r5, lsl #1
 8009ac2:	fbb0 f0f3 	udiv	r0, r0, r3
 8009ac6:	69e3      	ldr	r3, [r4, #28]
 8009ac8:	f423 4380 	bic.w	r3, r3, #16384	; 0x4000
 8009acc:	61e3      	str	r3, [r4, #28]
 8009ace:	f3c0 030b 	ubfx	r3, r0, #0, #12
 8009ad2:	b90b      	cbnz	r3, 8009ad8 <i2c_clock_config+0x94>
 8009ad4:	f040 0001 	orr.w	r0, r0, #1
 8009ad8:	69e3      	ldr	r3, [r4, #28]
 8009ada:	f443 4300 	orr.w	r3, r3, #32768	; 0x8000
 8009ade:	61e3      	str	r3, [r4, #28]
 8009ae0:	69e3      	ldr	r3, [r4, #28]
 8009ae2:	4303      	orrs	r3, r0
 8009ae4:	61e3      	str	r3, [r4, #28]
 8009ae6:	e7d6      	b.n	8009a96 <i2c_clock_config+0x52>
 8009ae8:	2319      	movs	r3, #25
 8009aea:	436b      	muls	r3, r5
 8009aec:	fbb0 f0f3 	udiv	r0, r0, r3
 8009af0:	69e3      	ldr	r3, [r4, #28]
 8009af2:	f443 4380 	orr.w	r3, r3, #16384	; 0x4000
 8009af6:	e7e9      	b.n	8009acc <i2c_clock_config+0x88>
 8009af8:	2278      	movs	r2, #120	; 0x78
 8009afa:	4353      	muls	r3, r2
 8009afc:	fbb3 f3f1 	udiv	r3, r3, r1
 8009b00:	3301      	adds	r3, #1
 8009b02:	6223      	str	r3, [r4, #32]
 8009b04:	b996      	cbnz	r6, 8009b2c <i2c_clock_config+0xe8>
 8009b06:	69e3      	ldr	r3, [r4, #28]
 8009b08:	f423 4380 	bic.w	r3, r3, #16384	; 0x4000
 8009b0c:	eb05 0545 	add.w	r5, r5, r5, lsl #1
 8009b10:	fbb0 f0f5 	udiv	r0, r0, r5
 8009b14:	61e3      	str	r3, [r4, #28]
 8009b16:	69e3      	ldr	r3, [r4, #28]
 8009b18:	f443 4300 	orr.w	r3, r3, #32768	; 0x8000
 8009b1c:	61e3      	str	r3, [r4, #28]
 8009b1e:	69e3      	ldr	r3, [r4, #28]
 8009b20:	4303      	orrs	r3, r0
 8009b22:	61e3      	str	r3, [r4, #28]
 8009b24:	2301      	movs	r3, #1
 8009b26:	f8c4 3090 	str.w	r3, [r4, #144]	; 0x90
 8009b2a:	e7b4      	b.n	8009a96 <i2c_clock_config+0x52>
 8009b2c:	2319      	movs	r3, #25
 8009b2e:	435d      	muls	r5, r3
 8009b30:	69e3      	ldr	r3, [r4, #28]
 8009b32:	fbb0 f0f5 	udiv	r0, r0, r5
 8009b36:	f443 4380 	orr.w	r3, r3, #16384	; 0x4000
 8009b3a:	e7eb      	b.n	8009b14 <i2c_clock_config+0xd0>
 8009b3c:	03938700 	orrseq	r8, r3, #0, 14
 8009b40:	000f4240 	andeq	r4, pc, r0, asr #4
 8009b44:	000186a0 	andeq	r8, r1, r0, lsr #13
 8009b48:	00061a80 	andeq	r1, r6, r0, lsl #21

08009b4c <i2c_ack_config>:
 8009b4c:	6803      	ldr	r3, [r0, #0]
 8009b4e:	f423 6380 	bic.w	r3, r3, #1024	; 0x400
 8009b52:	430b      	orrs	r3, r1
 8009b54:	6003      	str	r3, [r0, #0]
 8009b56:	4770      	bx	lr

08009b58 <i2c_ackpos_config>:
 8009b58:	6803      	ldr	r3, [r0, #0]
 8009b5a:	f423 6300 	bic.w	r3, r3, #2048	; 0x800
 8009b5e:	430b      	orrs	r3, r1
 8009b60:	6003      	str	r3, [r0, #0]
 8009b62:	4770      	bx	lr

08009b64 <i2c_master_addressing>:
 8009b64:	3202      	adds	r2, #2
 8009b66:	bf0c      	ite	eq
 8009b68:	f021 0101 	biceq.w	r1, r1, #1
 8009b6c:	f041 0101 	orrne.w	r1, r1, #1
 8009b70:	6101      	str	r1, [r0, #16]
 8009b72:	4770      	bx	lr

08009b74 <i2c_enable>:
 8009b74:	6803      	ldr	r3, [r0, #0]
 8009b76:	f043 0301 	orr.w	r3, r3, #1
 8009b7a:	6003      	str	r3, [r0, #0]
 8009b7c:	4770      	bx	lr

08009b7e <i2c_start_on_bus>:
 8009b7e:	6803      	ldr	r3, [r0, #0]
 8009b80:	f443 7380 	orr.w	r3, r3, #256	; 0x100
 8009b84:	6003      	str	r3, [r0, #0]
 8009b86:	4770      	bx	lr

08009b88 <i2c_stop_on_bus>:
 8009b88:	6803      	ldr	r3, [r0, #0]
 8009b8a:	f443 7300 	orr.w	r3, r3, #512	; 0x200
 8009b8e:	6003      	str	r3, [r0, #0]
 8009b90:	4770      	bx	lr

08009b92 <i2c_data_transmit>:
 8009b92:	6101      	str	r1, [r0, #16]
 8009b94:	4770      	bx	lr

08009b96 <i2c_data_receive>:
 8009b96:	6900      	ldr	r0, [r0, #16]
 8009b98:	b2c0      	uxtb	r0, r0
 8009b9a:	4770      	bx	lr

08009b9c <i2c_flag_get>:
 8009b9c:	098b      	lsrs	r3, r1, #6
 8009b9e:	f001 011f 	and.w	r1, r1, #31
 8009ba2:	5818      	ldr	r0, [r3, r0]
 8009ba4:	40c8      	lsrs	r0, r1
 8009ba6:	f000 0001 	and.w	r0, r0, #1
 8009baa:	4770      	bx	lr

08009bac <i2c_flag_clear>:
 8009bac:	f240 5301 	movw	r3, #1281	; 0x501
 8009bb0:	4299      	cmp	r1, r3
 8009bb2:	b510      	push	{r4, lr}
 8009bb4:	d102      	bne.n	8009bbc <i2c_flag_clear+0x10>
 8009bb6:	6943      	ldr	r3, [r0, #20]
 8009bb8:	6983      	ldr	r3, [r0, #24]
 8009bba:	bd10      	pop	{r4, pc}
 8009bbc:	098c      	lsrs	r4, r1, #6
 8009bbe:	2201      	movs	r2, #1
 8009bc0:	5823      	ldr	r3, [r4, r0]
 8009bc2:	f001 011f 	and.w	r1, r1, #31
 8009bc6:	408a      	lsls	r2, r1
 8009bc8:	ea23 0302 	bic.w	r3, r3, r2
 8009bcc:	5023      	str	r3, [r4, r0]
 8009bce:	e7f4      	b.n	8009bba <i2c_flag_clear+0xe>

08009bd0 <i2s_init>:
 8009bd0:	b510      	push	{r4, lr}
 8009bd2:	69c4      	ldr	r4, [r0, #28]
 8009bd4:	f424 647b 	bic.w	r4, r4, #4016	; 0xfb0
 8009bd8:	f024 0408 	bic.w	r4, r4, #8
 8009bdc:	0424      	lsls	r4, r4, #16
 8009bde:	0c24      	lsrs	r4, r4, #16
 8009be0:	431c      	orrs	r4, r3
 8009be2:	4314      	orrs	r4, r2
 8009be4:	430c      	orrs	r4, r1
 8009be6:	f444 6400 	orr.w	r4, r4, #2048	; 0x800
 8009bea:	61c4      	str	r4, [r0, #28]
 8009bec:	bd10      	pop	{r4, pc}

08009bee <i2s_psc_config>:
 8009bee:	b5f8      	push	{r3, r4, r5, r6, r7, lr}
 8009bf0:	4605      	mov	r5, r0
 8009bf2:	4616      	mov	r6, r2
 8009bf4:	461f      	mov	r7, r3
 8009bf6:	460c      	mov	r4, r1
 8009bf8:	b901      	cbnz	r1, 8009bfc <i2s_psc_config+0xe>
 8009bfa:	e7fe      	b.n	8009bfa <i2s_psc_config+0xc>
 8009bfc:	2302      	movs	r3, #2
 8009bfe:	6203      	str	r3, [r0, #32]
 8009c00:	2000      	movs	r0, #0
 8009c02:	f7fe ff15 	bl	8008a30 <rcu_clock_freq_get>
 8009c06:	f5b7 7f00 	cmp.w	r7, #512	; 0x200
 8009c0a:	f04f 030a 	mov.w	r3, #10
 8009c0e:	d11b      	bne.n	8009c48 <i2s_psc_config+0x5a>
 8009c10:	0a00      	lsrs	r0, r0, #8
 8009c12:	4358      	muls	r0, r3
 8009c14:	230a      	movs	r3, #10
 8009c16:	fbb0 f4f4 	udiv	r4, r0, r4
 8009c1a:	3405      	adds	r4, #5
 8009c1c:	fbb4 f4f3 	udiv	r4, r4, r3
 8009c20:	f004 0301 	and.w	r3, r4, #1
 8009c24:	0864      	lsrs	r4, r4, #1
 8009c26:	1ea2      	subs	r2, r4, #2
 8009c28:	2afd      	cmp	r2, #253	; 0xfd
 8009c2a:	bf92      	itee	ls
 8009c2c:	021b      	lslls	r3, r3, #8
 8009c2e:	2300      	movhi	r3, #0
 8009c30:	2402      	movhi	r4, #2
 8009c32:	431c      	orrs	r4, r3
 8009c34:	433c      	orrs	r4, r7
 8009c36:	622c      	str	r4, [r5, #32]
 8009c38:	69eb      	ldr	r3, [r5, #28]
 8009c3a:	f023 0307 	bic.w	r3, r3, #7
 8009c3e:	61eb      	str	r3, [r5, #28]
 8009c40:	69eb      	ldr	r3, [r5, #28]
 8009c42:	4333      	orrs	r3, r6
 8009c44:	61eb      	str	r3, [r5, #28]
 8009c46:	bdf8      	pop	{r3, r4, r5, r6, r7, pc}
 8009c48:	b90e      	cbnz	r6, 8009c4e <i2s_psc_config+0x60>
 8009c4a:	0940      	lsrs	r0, r0, #5
 8009c4c:	e7e1      	b.n	8009c12 <i2s_psc_config+0x24>
 8009c4e:	0980      	lsrs	r0, r0, #6
 8009c50:	e7df      	b.n	8009c12 <i2s_psc_config+0x24>

08009c52 <i2s_enable>:
 8009c52:	69c3      	ldr	r3, [r0, #28]
 8009c54:	f443 6380 	orr.w	r3, r3, #1024	; 0x400
 8009c58:	61c3      	str	r3, [r0, #28]
 8009c5a:	4770      	bx	lr

08009c5c <i2s_disable>:
 8009c5c:	69c3      	ldr	r3, [r0, #28]
 8009c5e:	f423 6380 	bic.w	r3, r3, #1024	; 0x400
 8009c62:	61c3      	str	r3, [r0, #28]
 8009c64:	4770      	bx	lr

08009c66 <spi_dma_enable>:
 8009c66:	6843      	ldr	r3, [r0, #4]
 8009c68:	b919      	cbnz	r1, 8009c72 <spi_dma_enable+0xc>
 8009c6a:	f043 0302 	orr.w	r3, r3, #2
 8009c6e:	6043      	str	r3, [r0, #4]
 8009c70:	4770      	bx	lr
 8009c72:	f043 0301 	orr.w	r3, r3, #1
 8009c76:	e7fa      	b.n	8009c6e <spi_dma_enable+0x8>

Disassembly of section .rodata:

08009c78 <vtable for RDMResponder-0xe0>:
 8009c78:	00000000 	andeq	r0, r0, r0
 8009c7c:	18002000 	stmdane	r0, {sp}
 8009c80:	00180400 	andseq	r0, r8, r0, lsl #8
 8009c84:	00000007 	andeq	r0, r0, r7
	...
 8009c90:	03020100 	movweq	r0, #8448	; 0x2100
 8009c94:	08070604 	stmdaeq	r7, {r2, r9, sl}
 8009c98:	00000009 	andeq	r0, r0, r9
 8009c9c:	03020100 	movweq	r0, #8448	; 0x2100
 8009ca0:	73696404 	cmnvc	r9, #4, 8	; 0x4000000
 8009ca4:	656c6261 	strbvs	r6, [ip, #-609]!	; 0xfffffd9f
 8009ca8:	6e650064 	cdpvs	0, 6, cr0, cr5, cr4, {3}
 8009cac:	656c6261 	strbvs	r6, [ip, #-609]!	; 0xfffffd9f
 8009cb0:	34310064 	ldrtcc	r0, [r1], #-100	; 0xffffff9c
 8009cb4:	3a34333a 	bcc	8d169a4 <_sidata+0xd0ac80>
 8009cb8:	46003930 			; <UNDEFINED> instruction: 0x46003930
 8009cbc:	20206265 	eorcs	r6, r0, r5, ror #4
 8009cc0:	30322031 	eorscc	r2, r2, r1, lsr r0
 8009cc4:	52003432 	andpl	r3, r0, #838860800	; 0x32000000
 8009cc8:	52204d44 	eorpl	r4, r0, #68, 26	; 0x1100
 8009ccc:	6f707365 	svcvs	0x00707365
 8009cd0:	7265646e 	rsbvc	r6, r5, #1845493760	; 0x6e000000
 8009cd4:	335b1b00 	cmpcc	fp, #0, 22
 8009cd8:	73256d32 			; <UNDEFINED> instruction: 0x73256d32
 8009cdc:	6d305b1b 	fldmdbxvs	r0!, {d5-d17}	;@ Deprecated
 8009ce0:	7325000a 			; <UNDEFINED> instruction: 0x7325000a
 8009ce4:	2075253a 	rsbscs	r2, r5, sl, lsr r5
 8009ce8:	20752547 	rsbscs	r2, r5, r7, asr #10
 8009cec:	5d73255b 	cfldr64pl	mvdx2, [r3, #-364]!	; 0xfffffe94
 8009cf0:	6e6f4300 	cdpvs	3, 6, cr4, cr15, cr0, {0}
 8009cf4:	20676966 	rsbcs	r6, r7, r6, ror #18
 8009cf8:	65646f6d 	strbvs	r6, [r4, #-3949]!	; 0xfffff093
 8009cfc:	754f2000 	strbvc	r2, [pc, #-0]	; 8009d04 <_etext+0x8c>
 8009d00:	74757074 	ldrbtvc	r7, [r5], #-116	; 0xffffff8c
 8009d04:	0a732520 	beq	9cd318c <_sidata+0x1cc7468>
 8009d08:	73655400 	cmnvc	r5, #0, 8
 8009d0c:	61702074 	cmnvs	r0, r4, ror r0
 8009d10:	72657474 	rsbvc	r7, r5, #116, 8	; 0x74000000
 8009d14:	203a206e 	eorscs	r2, sl, lr, rrx
 8009d18:	5b207325 	blpl	88269b4 <_sidata+0x81ac90>
 8009d1c:	0a5d7525 	beq	97671b8 <_sidata+0x175b494>
 8009d20:	4d445200 	sfmmi	f5, 2, [r4, #-0]
 8009d24:	73655220 	cmnvc	r5, #32, 4
 8009d28:	646e6f70 	strbtvs	r6, [lr], #-3952	; 0xfffff090
 8009d2c:	50207265 	eorpl	r7, r0, r5, ror #4
 8009d30:	6c657869 	stclvs	8, cr7, [r5], #-420	; 0xfffffe5c
 8009d34:	25003120 	strcs	r3, [r0, #-288]	; 0xfffffee0
 8009d38:	64253a73 	strtvs	r3, [r5], #-2675	; 0xfffff58d
 8009d3c:	64254720 	strtvs	r4, [r5], #-1824	; 0xfffff8e0
 8009d40:	00732520 	rsbseq	r2, r3, r0, lsr #10
 8009d44:	666e6f43 	strbtvs	r6, [lr], -r3, asr #30
 8009d48:	4d206769 	stcmi	7, cr6, [r0, #-420]!	; 0xfffffe5c
 8009d4c:	0065646f 	rsbeq	r6, r5, pc, ror #8
 8009d50:	253a7325 	ldrcs	r7, [sl, #-805]!	; 0xfffffcdb
 8009d54:	00000075 	andeq	r0, r0, r5, ror r0

08009d58 <vtable for RDMResponder>:
	...
 8009d60:	08000b79 	stmdaeq	r0, {r0, r3, r4, r5, r6, r8, r9, fp}
 8009d64:	08000bb9 	stmdaeq	r0, {r0, r3, r4, r5, r7, r8, r9, fp}
 8009d68:	08000a35 	stmdaeq	r0, {r0, r2, r4, r5, r9, fp}
 8009d6c:	08000a23 	stmdaeq	r0, {r0, r1, r5, r9, fp}

08009d70 <SOFTWARE_VERSION>:
 8009d70:	00302e32 	eorseq	r2, r0, r2, lsr lr

08009d74 <gamma10_0>:
 8009d74:	03020100 	movweq	r0, #8448	; 0x2100
 8009d78:	07060504 	streq	r0, [r6, -r4, lsl #10]
 8009d7c:	0b0a0908 	bleq	828c1a4 <_sidata+0x280480>
 8009d80:	0f0e0d0c 	svceq	0x000e0d0c
 8009d84:	13121110 	tstne	r2, #16, 2
 8009d88:	17161514 			; <UNDEFINED> instruction: 0x17161514
 8009d8c:	1b1a1918 	blne	86901f4 <_sidata+0x6844d0>
 8009d90:	1f1e1d1c 	svcne	0x001e1d1c
 8009d94:	23222120 			; <UNDEFINED> instruction: 0x23222120
 8009d98:	27262524 	strcs	r2, [r6, -r4, lsr #10]!
 8009d9c:	2b2a2928 	blcs	8a94244 <_sidata+0xa88520>
 8009da0:	2f2e2d2c 	svccs	0x002e2d2c
 8009da4:	33323130 	teqcc	r2, #48, 2
 8009da8:	37363534 			; <UNDEFINED> instruction: 0x37363534
 8009dac:	3b3a3938 	blcc	8e98294 <_sidata+0xe8c570>
 8009db0:	3f3e3d3c 	svccc	0x003e3d3c
 8009db4:	43424140 	movtmi	r4, #8512	; 0x2140
 8009db8:	47464544 	strbmi	r4, [r6, -r4, asr #10]
 8009dbc:	4b4a4948 	blmi	929c2e4 <_sidata+0x12905c0>
 8009dc0:	4f4e4d4c 	svcmi	0x004e4d4c
 8009dc4:	53525150 	cmppl	r2, #80, 2
 8009dc8:	57565554 			; <UNDEFINED> instruction: 0x57565554
 8009dcc:	5b5a5958 	blpl	96a0334 <_sidata+0x1694610>
 8009dd0:	5f5e5d5c 	svcpl	0x005e5d5c
 8009dd4:	63626160 	cmnvs	r2, #96, 2
 8009dd8:	67666564 	strbvs	r6, [r6, -r4, ror #10]!
 8009ddc:	6b6a6968 	blvs	9aa4384 <_sidata+0x1a98660>
 8009de0:	6f6e6d6c 	svcvs	0x006e6d6c
 8009de4:	73727170 	cmnvc	r2, #112, 2
 8009de8:	77767574 			; <UNDEFINED> instruction: 0x77767574
 8009dec:	7b7a7978 	blvc	9ea83d4 <_sidata+0x1e9c6b0>
 8009df0:	7f7e7d7c 	svcvc	0x007e7d7c
 8009df4:	83828180 	orrhi	r8, r2, #128, 2
 8009df8:	87868584 	strhi	r8, [r6, r4, lsl #11]
 8009dfc:	8b8a8988 	blhi	62ac424 <__heap_size+0x62ab424>
 8009e00:	8f8e8d8c 	svchi	0x008e8d8c
 8009e04:	93929190 	orrsls	r9, r2, #144, 2	; 0x24
 8009e08:	97969594 			; <UNDEFINED> instruction: 0x97969594
 8009e0c:	9b9a9998 	blls	66b0474 <__heap_size+0x66af474>
 8009e10:	9f9e9d9c 	svcls	0x009e9d9c
 8009e14:	a3a2a1a0 			; <UNDEFINED> instruction: 0xa3a2a1a0
 8009e18:	a7a6a5a4 	strge	sl, [r6, r4, lsr #11]!
 8009e1c:	abaaa9a8 	blge	6ab44c4 <__heap_size+0x6ab34c4>
 8009e20:	afaeadac 	svcge	0x00aeadac
 8009e24:	b3b2b1b0 			; <UNDEFINED> instruction: 0xb3b2b1b0
 8009e28:	b7b6b5b4 			; <UNDEFINED> instruction: 0xb7b6b5b4
 8009e2c:	bbbab9b8 	bllt	6eb8514 <__heap_size+0x6eb7514>
 8009e30:	bfbebdbc 	svclt	0x00bebdbc
 8009e34:	c3c2c1c0 	bicgt	ip, r2, #192, 2	; 0x30
 8009e38:	c7c6c5c4 	strbgt	ip, [r6, r4, asr #11]
 8009e3c:	cbcac9c8 	blgt	72bc564 <__heap_size+0x72bb564>
 8009e40:	cfcecdcc 	svcgt	0x00cecdcc
 8009e44:	d3d2d1d0 	bicsle	sp, r2, #208, 2	; 0x34
 8009e48:	d7d6d5d4 			; <UNDEFINED> instruction: 0xd7d6d5d4
 8009e4c:	dbdad9d8 	blle	76c05b4 <__heap_size+0x76bf5b4>
 8009e50:	dfdedddc 	svcle	0x00dedddc
 8009e54:	e3e2e1e0 	mvn	lr, #224, 2	; 0x38
 8009e58:	e7e6e5e4 	strb	lr, [r6, r4, ror #11]!
 8009e5c:	ebeae9e8 	bl	7ac4604 <__heap_size+0x7ac3604>
 8009e60:	efeeedec 	svc	0x00eeedec
 8009e64:	f3f2f1f0 	vsra.u64	<illegal reg q15.5>, q8, #14
 8009e68:	f7f6f5f4 			; <UNDEFINED> instruction: 0xf7f6f5f4
 8009e6c:	fbfaf9f8 	blx	7ec8656 <__heap_size+0x7ec7656>
 8009e70:	fffefdfc 			; <UNDEFINED> instruction: 0xfffefdfc
 8009e74:	30322d25 	eorscc	r2, r2, r5, lsr #26
 8009e78:	2d250073 	stccs	0, cr0, [r5, #-460]!	; 0xfffffe34
 8009e7c:	25207338 	strcs	r7, [r0, #-824]!	; 0xfffffcc8
 8009e80:	2064322d 	rsbcs	r3, r4, sp, lsr #4
 8009e84:	322d2547 	eorcc	r2, sp, #297795584	; 0x11c00000
 8009e88:	2d252064 	stccs	0, cr2, [r5, #-400]!	; 0xfffffe70
 8009e8c:	50007335 	andpl	r7, r0, r5, lsr r3
 8009e90:	72676f72 	rsbvc	r6, r7, #456	; 0x1c8
 8009e94:	656d6d61 	strbvs	r6, [sp, #-3425]!	; 0xfffff29f
 8009e98:	79540064 	ldmdbvc	r4, {r2, r5, r6}^
 8009e9c:	47006570 	smlsdxmi	r0, r0, r5, r6
 8009ea0:	70756f72 	rsbsvc	r6, r5, r2, ror pc
 8009ea4:	20676e69 	rsbcs	r6, r7, r9, ror #28
 8009ea8:	6e756f43 	cdpvs	15, 7, cr6, cr5, cr3, {2}
 8009eac:	614d0074 	hvcvs	53252	; 0xd004
 8009eb0:	65540070 	ldrbvs	r0, [r4, #-112]	; 0xffffff90
 8009eb4:	50207473 	eorpl	r7, r0, r3, ror r4
 8009eb8:	65747461 	ldrbvs	r7, [r4, #-1121]!	; 0xfffffb9f
 8009ebc:	50006e72 	andpl	r6, r0, r2, ror lr
 8009ec0:	72676f72 	rsbvc	r6, r7, #456	; 0x1c8
 8009ec4:	55006d61 	strpl	r6, [r0, #-3425]	; 0xfffff29f
 8009ec8:	6665646e 	strbtvs	r6, [r5], -lr, ror #8
 8009ecc:	64656e69 	strbtvs	r6, [r5], #-3689	; 0xfffff197
	...

08009ed1 <SOFTWARE_VERSION>:
 8009ed1:	00302e32 	eorseq	r2, r0, r2, lsr lr
 8009ed5:	 	andeq	r0, r0, r0

08009ed8 <vtable for RDMSensor>:
	...

08009ef0 <vtable for RDMSensorBH170>:
	...
 8009ef8:	08001c2f 	stmdaeq	r0, {r0, r1, r2, r3, r5, sl, fp, ip}
 8009efc:	08001caf 	stmdaeq	r0, {r0, r1, r2, r3, r5, r7, sl, fp, ip}
 8009f00:	08001be1 	stmdaeq	r0, {r0, r5, r6, r7, r8, r9, fp, ip}
 8009f04:	08001e2d 	stmdaeq	r0, {r0, r2, r3, r5, r9, sl, fp, ip}

08009f08 <vtable for RDMSensorMCP9808>:
	...
 8009f10:	08001c2d 	stmdaeq	r0, {r0, r2, r3, r5, sl, fp, ip}
 8009f14:	08001ca1 	stmdaeq	r0, {r0, r5, r7, sl, fp, ip}
 8009f18:	08001be7 	stmdaeq	r0, {r0, r1, r2, r5, r6, r7, r8, r9, fp, ip}
 8009f1c:	08001e19 	stmdaeq	r0, {r0, r3, r4, r9, sl, fp, ip}

08009f20 <vtable for RDMSensorHTU21DHumidity>:
	...
 8009f28:	08001c2b 	stmdaeq	r0, {r0, r1, r3, r5, sl, fp, ip}
 8009f2c:	08001c93 	stmdaeq	r0, {r0, r1, r4, r7, sl, fp, ip}
 8009f30:	08001bed 	stmdaeq	r0, {r0, r2, r3, r5, r6, r7, r8, r9, fp, ip}
 8009f34:	08001e05 	stmdaeq	r0, {r0, r2, r9, sl, fp, ip}

08009f38 <vtable for RDMSensorHTU21DTemperature>:
	...
 8009f40:	08001c29 	stmdaeq	r0, {r0, r3, r5, sl, fp, ip}
 8009f44:	08001c85 	stmdaeq	r0, {r0, r2, r7, sl, fp, ip}
 8009f48:	08001bf3 	stmdaeq	r0, {r0, r1, r4, r5, r6, r7, r8, r9, fp, ip}
 8009f4c:	08001df1 	stmdaeq	r0, {r0, r4, r5, r6, r7, r8, sl, fp, ip}

08009f50 <vtable for RDMSensorINA219Current>:
	...
 8009f58:	08001c27 	stmdaeq	r0, {r0, r1, r2, r5, sl, fp, ip}
 8009f5c:	08001c77 	stmdaeq	r0, {r0, r1, r2, r4, r5, r6, sl, fp, ip}
 8009f60:	08001bf9 	stmdaeq	r0, {r0, r3, r4, r5, r6, r7, r8, r9, fp, ip}
 8009f64:	08001dd1 	stmdaeq	r0, {r0, r4, r6, r7, r8, sl, fp, ip}

08009f68 <vtable for RDMSensorINA219Power>:
	...
 8009f70:	08001c25 	stmdaeq	r0, {r0, r2, r5, sl, fp, ip}
 8009f74:	08001c69 	stmdaeq	r0, {r0, r3, r5, r6, sl, fp, ip}
 8009f78:	08001bff 	stmdaeq	r0, {r0, r1, r2, r3, r4, r5, r6, r7, r8, r9, fp, ip}
 8009f7c:	08001dbd 	stmdaeq	r0, {r0, r2, r3, r4, r5, r7, r8, sl, fp, ip}

08009f80 <vtable for RDMSensorINA219Voltage>:
	...
 8009f88:	08001c23 	stmdaeq	r0, {r0, r1, r5, sl, fp, ip}
 8009f8c:	08001c5b 	stmdaeq	r0, {r0, r1, r3, r4, r6, sl, fp, ip}
 8009f90:	08001c05 	stmdaeq	r0, {r0, r2, sl, fp, ip}
 8009f94:	08001d9d 	stmdaeq	r0, {r0, r2, r3, r4, r7, r8, sl, fp, ip}

08009f98 <vtable for RDMSensorSI7021Humidity>:
	...
 8009fa0:	08001c21 	stmdaeq	r0, {r0, r5, sl, fp, ip}
 8009fa4:	08001c4d 	stmdaeq	r0, {r0, r2, r3, r6, sl, fp, ip}
 8009fa8:	08001c0b 	stmdaeq	r0, {r0, r1, r3, sl, fp, ip}
 8009fac:	08001d89 	stmdaeq	r0, {r0, r3, r7, r8, sl, fp, ip}

08009fb0 <vtable for RDMSensorSI7021Temperature>:
	...
 8009fb8:	08001c1f 	stmdaeq	r0, {r0, r1, r2, r3, r4, sl, fp, ip}
 8009fbc:	08001c3f 	stmdaeq	r0, {r0, r1, r2, r3, r4, r5, sl, fp, ip}
 8009fc0:	08001c11 	stmdaeq	r0, {r0, r4, sl, fp, ip}
 8009fc4:	08001d75 	stmdaeq	r0, {r0, r2, r4, r5, r6, r8, sl, fp, ip}

08009fc8 <vtable for RDMSensorThermistor>:
	...
 8009fd0:	08001c1d 	stmdaeq	r0, {r0, r2, r3, r4, sl, fp, ip}
 8009fd4:	08001c31 	stmdaeq	r0, {r0, r4, r5, sl, fp, ip}
 8009fd8:	08001c17 	stmdaeq	r0, {r0, r1, r2, r4, sl, fp, ip}
 8009fdc:	08001cc1 	stmdaeq	r0, {r0, r6, r7, sl, fp, ip}

08009fe0 <sensor::thermistor::DESCRIPTION>:
 8009fe0:	69626d41 	stmdbvs	r2!, {r0, r6, r8, sl, fp, sp, lr}^
 8009fe4:	20746e65 	rsbscs	r6, r4, r5, ror #28
 8009fe8:	706d6554 	rsbvc	r6, sp, r4, asr r5
 8009fec:	74617265 	strbtvc	r7, [r1], #-613	; 0xfffffd9b
 8009ff0:	00657275 	rsbeq	r7, r5, r5, ror r2

08009ff4 <sensor::si7021::humidity::DESCRIPTION>:
 8009ff4:	616c6552 	cmnvs	ip, r2, asr r5
 8009ff8:	65766974 	ldrbvs	r6, [r6, #-2420]!	; 0xfffff68c
 8009ffc:	6d754820 	ldclvs	8, cr4, [r5, #-128]!	; 0xffffff80
 800a000:	74696469 	strbtvc	r6, [r9], #-1129	; 0xfffffb97
 800a004:	 	stclvs	0, cr0, [r1, #-484]	; 0xfffffe1c

0800a006 <sensor::si7021::temperature::DESCRIPTION>:
 800a006:	69626d41 	stmdbvs	r2!, {r0, r6, r8, sl, fp, sp, lr}^
 800a00a:	20746e65 	rsbscs	r6, r4, r5, ror #28
 800a00e:	706d6554 	rsbvc	r6, sp, r4, asr r5
 800a012:	74617265 	strbtvc	r7, [r1], #-613	; 0xfffffd9b
 800a016:	00657275 	rsbeq	r7, r5, r5, ror r2

0800a01a <sensor::ina219::power::DESCRIPTION>:
 800a01a:	65776f50 	ldrbvs	r6, [r7, #-3920]!	; 0xfffff0b0
 800a01e:	 	svcvs	0x00560072

0800a020 <sensor::ina219::voltage::DESCRIPTION>:
 800a020:	746c6f56 	strbtvc	r6, [ip], #-3926	; 0xfffff0aa
 800a024:	00656761 	rsbeq	r6, r5, r1, ror #14

0800a028 <sensor::ina219::current::DESCRIPTION>:
 800a028:	72727543 	rsbsvc	r7, r2, #281018368	; 0x10c00000
 800a02c:	00746e65 	rsbseq	r6, r4, r5, ror #28

0800a030 <sensor::htu21d::humidity::DESCRIPTION>:
 800a030:	616c6552 	cmnvs	ip, r2, asr r5
 800a034:	65766974 	ldrbvs	r6, [r6, #-2420]!	; 0xfffff68c
 800a038:	6d754820 	ldclvs	8, cr4, [r5, #-128]!	; 0xffffff80
 800a03c:	74696469 	strbtvc	r6, [r9], #-1129	; 0xfffffb97
 800a040:	 	stclvs	0, cr0, [r1, #-484]	; 0xfffffe1c

0800a042 <sensor::htu21d::temperature::DESCRIPTION>:
 800a042:	69626d41 	stmdbvs	r2!, {r0, r6, r8, sl, fp, sp, lr}^
 800a046:	20746e65 	rsbscs	r6, r4, r5, ror #28
 800a04a:	706d6554 	rsbvc	r6, sp, r4, asr r5
 800a04e:	74617265 	strbtvc	r7, [r1], #-613	; 0xfffffd9b
 800a052:	00657275 	rsbeq	r7, r5, r5, ror r2

0800a056 <sensor::mcp9808::DESCRIPTION>:
 800a056:	69626d41 	stmdbvs	r2!, {r0, r6, r8, sl, fp, sp, lr}^
 800a05a:	20746e65 	rsbscs	r6, r4, r5, ror #28
 800a05e:	706d6554 	rsbvc	r6, sp, r4, asr r5
 800a062:	74617265 	strbtvc	r7, [r1], #-613	; 0xfffffd9b
 800a066:	00657275 	rsbeq	r7, r5, r5, ror r2

0800a06a <sensor::bh1750::DESCRIPTION>:
 800a06a:	69626d41 	stmdbvs	r2!, {r0, r6, r8, sl, fp, sp, lr}^
 800a06e:	20746e65 	rsbscs	r6, r4, r5, ror #28
 800a072:	6867694c 	stmdavs	r7!, {r2, r3, r6, r8, fp, sp, lr}^
 800a076:	50430074 	subpl	r0, r3, r4, ror r0
 800a07a:	44520055 	ldrbmi	r0, [r2], #-85	; 0xffffffab
 800a07e:	6552204d 	ldrbvs	r2, [r2, #-77]	; 0xffffffb3
 800a082:	6e6f7073 	mcrvs	0, 3, r7, cr15, cr3, {3}
 800a086:	20726564 	rsbscs	r6, r2, r4, ror #10
 800a08a:	666e6f63 	strbtvs	r6, [lr], -r3, ror #30
 800a08e:	72756769 	rsbsvc	r6, r5, #27525120	; 0x1a40000
 800a092:	6f697461 	svcvs	0x00697461
 800a096:	5020006e 	eorpl	r0, r0, lr, rrx
 800a09a:	6f746f72 	svcvs	0x00746f72
 800a09e:	206c6f63 	rsbcs	r6, ip, r3, ror #30
 800a0a2:	73726556 	cmnvc	r2, #360710144	; 0x15800000
 800a0a6:	206e6f69 	rsbcs	r6, lr, r9, ror #30
 800a0aa:	252e6425 	strcs	r6, [lr, #-1061]!	; 0xfffffbdb
 800a0ae:	20000a64 	andcs	r0, r0, r4, ror #20
 800a0b2:	20584d44 	subscs	r4, r8, r4, asr #26
 800a0b6:	72646441 	rsbvc	r6, r4, #1090519040	; 0x41000000
 800a0ba:	20737365 	rsbscs	r7, r3, r5, ror #6
 800a0be:	20202020 	eorcs	r2, r0, r0, lsr #32
 800a0c2:	25203a20 	strcs	r3, [r0, #-2592]!	; 0xfffff5e0
 800a0c6:	20000a64 	andcs	r0, r0, r4, ror #20
 800a0ca:	20584d44 	subscs	r4, r8, r4, asr #26
 800a0ce:	746f6f46 	strbtvc	r6, [pc], #-3910	; 800a0d6 <sensor::bh1750::DESCRIPTION+0x6c>
 800a0d2:	6e697270 	mcrvs	2, 3, r7, cr9, cr0, {3}
 800a0d6:	20202074 	eorcs	r2, r0, r4, ror r0
 800a0da:	25203a20 	strcs	r3, [r0, #-2592]!	; 0xfffff5e0
 800a0de:	20000a64 	andcs	r0, r0, r4, ror #20
 800a0e2:	73726550 	cmnvc	r2, #80, 10	; 0x14000000
 800a0e6:	6c616e6f 	stclvs	14, cr6, [r1], #-444	; 0xfffffe44
 800a0ea:	20797469 	rsbscs	r7, r9, r9, ror #8
 800a0ee:	6f206425 	svcvs	0x00206425
 800a0f2:	64252066 	strtvs	r2, [r5], #-102	; 0xffffff9a
 800a0f6:	2e255b20 	vmulcs.f64	d5, d5, d16
 800a0fa:	0a5d732a 	beq	9766daa <_sidata+0x175b086>
 800a0fe:	75532000 	ldrbvc	r2, [r3, #-0]
 800a102:	65442062 	strbvs	r2, [r4, #-98]	; 0xffffff9e
 800a106:	65636976 	strbvs	r6, [r3, #-2422]!	; 0xfffff68a
 800a10a:	20202073 	eorcs	r2, r0, r3, ror r0
 800a10e:	3a202020 	bcc	8812196 <_sidata+0x806472>
 800a112:	0a642520 	beq	991359a <_sidata+0x1907876>
 800a116:	65532000 	ldrbvs	r2, [r3, #-0]
 800a11a:	726f736e 	rsbvc	r7, pc, #-1207959551	; 0xb8000001
 800a11e:	20202073 	eorcs	r2, r0, r3, ror r0
 800a122:	20202020 	eorcs	r2, r0, r0, lsr #32
 800a126:	3a202020 	bcc	88121ae <_sidata+0x80648a>
 800a12a:	0a642520 	beq	99135b2 <_sidata+0x190788e>
	...

0800a130 <vtable for CpuTemperature>:
	...
 800a138:	08002c11 	stmdaeq	r0, {r0, r4, sl, fp, sp}
 800a13c:	08002c25 	stmdaeq	r0, {r0, r2, r5, sl, fp, sp}
 800a140:	08002c09 	stmdaeq	r0, {r0, r3, sl, fp, sp}
 800a144:	08002c13 	stmdaeq	r0, {r0, r1, r4, sl, fp, sp}

0800a148 <vtable for RDMDeviceResponder>:
	...
 800a150:	08000b15 	stmdaeq	r0, {r0, r2, r4, r8, r9, fp}
 800a154:	08000bcd 	stmdaeq	r0, {r0, r2, r3, r6, r7, r8, r9, fp}
 800a158:	08002c0d 	stmdaeq	r0, {r0, r2, r3, sl, fp, sp}
 800a15c:	08002c0f 	stmdaeq	r0, {r0, r1, r2, r3, sl, fp, sp}
 800a160:	2e257830 	mcrcs	8, 1, r7, cr5, cr0, {1}
 800a164:	5b207834 	blpl	882823c <_sidata+0x81c518>
 800a168:	732a2e25 			; <UNDEFINED> instruction: 0x732a2e25
 800a16c:	47000a5d 	smlsdmi	r0, sp, sl, r0
 800a170:	46323344 	ldrtmi	r3, [r2], -r4, asr #6
 800a174:	52333033 	eorspl	r3, r3, #51	; 0x33
 800a178:	6d450043 	stclvs	0, cr0, [r5, #-268]	; 0xfffffef4
 800a17c:	64646562 	strbtvs	r6, [r4], #-1378	; 0xfffffa9e
 800a180:	00006465 	andeq	r6, r0, r5, ror #8

0800a184 <RDMHandler::PID_DEFINITION_MANUFACTURER_GENERAL>:
 800a184:	00000000 	andeq	r0, r0, r0
 800a188:	08003875 	stmdaeq	r0, {r0, r2, r4, r5, r6, fp, ip, sp}
	...
 800a198:	00010000 	andeq	r0, r1, r0

0800a19c <RDMHandler::PID_DEFINITIONS_SUB_DEVICES>:
 800a19c:	00000060 	andeq	r0, r0, r0, rrx
 800a1a0:	080033cd 	stmdaeq	r0, {r0, r2, r3, r6, r7, r8, r9, ip, sp}
	...
 800a1b0:	00010100 	andeq	r0, r1, r0, lsl #2
 800a1b4:	000000c0 	andeq	r0, r0, r0, asr #1
 800a1b8:	0800356d 	stmdaeq	r0, {r0, r2, r3, r5, r6, r8, sl, ip, sp}
	...
 800a1c8:	00010100 	andeq	r0, r1, r0, lsl #2
 800a1cc:	00001000 	andeq	r1, r0, r0
 800a1d0:	0800358d 	stmdaeq	r0, {r0, r2, r3, r7, r8, sl, ip, sp}
 800a1d4:	00000000 	andeq	r0, r0, r0
 800a1d8:	0800390d 	stmdaeq	r0, {r0, r2, r3, r8, fp, ip, sp}
 800a1dc:	00000000 	andeq	r0, r0, r0
 800a1e0:	00010100 	andeq	r0, r1, r0, lsl #2
 800a1e4:	00000050 	andeq	r0, r0, r0, asr r0
 800a1e8:	08003331 	stmdaeq	r0, {r0, r4, r5, r8, r9, ip, sp}
	...
 800a1f8:	00010100 	andeq	r0, r1, r0, lsl #2
 800a1fc:	00000070 	andeq	r0, r0, r0, ror r0
 800a200:	080034f9 	stmdaeq	r0, {r0, r3, r4, r5, r6, r7, sl, ip, sp}
	...
 800a210:	00010100 	andeq	r0, r1, r0, lsl #2
 800a214:	000000e0 	andeq	r0, r0, r0, ror #1
 800a218:	080035c1 	stmdaeq	r0, {r0, r6, r7, r8, sl, ip, sp}
 800a21c:	00000000 	andeq	r0, r0, r0
 800a220:	080039d1 	stmdaeq	r0, {r0, r4, r6, r7, r8, fp, ip, sp}
 800a224:	00000000 	andeq	r0, r0, r0
 800a228:	00010100 	andeq	r0, r1, r0, lsl #2
 800a22c:	000000e1 	andeq	r0, r0, r1, ror #1
 800a230:	08003a21 	stmdaeq	r0, {r0, r5, r9, fp, ip, sp}
	...
 800a240:	00010101 	andeq	r0, r1, r1, lsl #2
 800a244:	000000f0 	strdeq	r0, [r0], -r0	; <UNPREDICTABLE>
 800a248:	080035fd 	stmdaeq	r0, {r0, r2, r3, r4, r5, r6, r7, r8, sl, ip, sp}
 800a24c:	00000000 	andeq	r0, r0, r0
 800a250:	08003aa1 	stmdaeq	r0, {r0, r5, r7, r9, fp, ip, sp}
 800a254:	00000000 	andeq	r0, r0, r0
 800a258:	00010100 	andeq	r0, r1, r0, lsl #2

0800a25c <RDMHandler::PID_DEFINITIONS>:
 800a25c:	00000060 	andeq	r0, r0, r0, rrx
 800a260:	080033cd 	stmdaeq	r0, {r0, r2, r3, r6, r7, r8, r9, ip, sp}
	...
 800a270:	01010000 	mrseq	r0, (UNDEF: 1)
 800a274:	00000080 	andeq	r0, r0, r0, lsl #1
 800a278:	08003515 	stmdaeq	r0, {r0, r2, r4, r8, sl, ip, sp}
	...
 800a288:	01010100 	mrseq	r0, (UNDEF: 17)
 800a28c:	00000081 	andeq	r0, r0, r1, lsl #1
 800a290:	0800370d 	stmdaeq	r0, {r0, r2, r3, r8, r9, sl, ip, sp}
	...
 800a2a0:	01010100 	mrseq	r0, (UNDEF: 17)
 800a2a4:	00000082 	andeq	r0, r0, r2, lsl #1
 800a2a8:	08003531 	stmdaeq	r0, {r0, r4, r5, r8, sl, ip, sp}
 800a2ac:	00000000 	andeq	r0, r0, r0
 800a2b0:	08003da9 	stmdaeq	r0, {r0, r3, r5, r7, r8, sl, fp, ip, sp}
 800a2b4:	00000000 	andeq	r0, r0, r0
 800a2b8:	01010100 	mrseq	r0, (UNDEF: 17)
 800a2bc:	00000090 	muleq	r0, r0, r0
 800a2c0:	08003439 	stmdaeq	r0, {r0, r3, r4, r5, sl, ip, sp}
 800a2c4:	00000000 	andeq	r0, r0, r0
 800a2c8:	08003d75 	stmdaeq	r0, {r0, r2, r4, r5, r6, r8, sl, fp, ip, sp}
 800a2cc:	00000000 	andeq	r0, r0, r0
 800a2d0:	01010100 	mrseq	r0, (UNDEF: 17)
 800a2d4:	00001000 	andeq	r1, r0, r0
 800a2d8:	0800358d 	stmdaeq	r0, {r0, r2, r3, r7, r8, sl, ip, sp}
 800a2dc:	00000000 	andeq	r0, r0, r0
 800a2e0:	0800390d 	stmdaeq	r0, {r0, r2, r3, r8, fp, ip, sp}
 800a2e4:	00000000 	andeq	r0, r0, r0
 800a2e8:	01010000 	mrseq	r0, (UNDEF: 1)
 800a2ec:	00001001 	andeq	r1, r0, r1
	...
 800a2f8:	080038c1 	stmdaeq	r0, {r0, r6, r7, fp, ip, sp}
 800a2fc:	00000000 	andeq	r0, r0, r0
 800a300:	01010100 	mrseq	r0, (UNDEF: 17)
 800a304:	00000050 	andeq	r0, r0, r0, asr r0
 800a308:	08003331 	stmdaeq	r0, {r0, r4, r5, r8, r9, ip, sp}
	...
 800a318:	00010000 	andeq	r0, r1, r0
 800a31c:	00000051 	andeq	r0, r0, r1, asr r0
 800a320:	080037fd 	stmdaeq	r0, {r0, r2, r3, r4, r5, r6, r7, r8, r9, sl, ip, sp}
	...
 800a330:	00010002 	andeq	r0, r1, r2
 800a334:	00000070 	andeq	r0, r0, r0, ror r0
 800a338:	080034f9 	stmdaeq	r0, {r0, r3, r4, r5, r6, r7, sl, ip, sp}
	...
 800a348:	00010100 	andeq	r0, r1, r0, lsl #2
 800a34c:	000000a0 	andeq	r0, r0, r0, lsr #1
 800a350:	080035a1 	stmdaeq	r0, {r0, r5, r7, r8, sl, ip, sp}
	...
 800a360:	00010100 	andeq	r0, r1, r0, lsl #2
 800a364:	000000b0 	strheq	r0, [r0], -r0	; <UNPREDICTABLE>
 800a368:	080035a1 	stmdaeq	r0, {r0, r5, r7, r8, sl, ip, sp}
 800a36c:	00000000 	andeq	r0, r0, r0
 800a370:	08003989 	stmdaeq	r0, {r0, r3, r7, r8, fp, ip, sp}
 800a374:	00000000 	andeq	r0, r0, r0
 800a378:	00010100 	andeq	r0, r1, r0, lsl #2
 800a37c:	000000c0 	andeq	r0, r0, r0, asr #1
 800a380:	0800356d 	stmdaeq	r0, {r0, r2, r3, r5, r6, r8, sl, ip, sp}
	...
 800a390:	00010000 	andeq	r0, r1, r0
 800a394:	000000c1 	andeq	r0, r0, r1, asr #1
 800a398:	08003fdd 	stmdaeq	r0, {r0, r2, r3, r4, r6, r7, r8, r9, sl, fp, ip, sp}
	...
 800a3a8:	00010100 	andeq	r0, r1, r0, lsl #2
 800a3ac:	000000c2 	andeq	r0, r0, r2, asr #1
 800a3b0:	0800373d 	stmdaeq	r0, {r0, r2, r3, r4, r5, r8, r9, sl, ip, sp}
	...
 800a3c0:	00010100 	andeq	r0, r1, r0, lsl #2
 800a3c4:	000000e0 	andeq	r0, r0, r0, ror #1
 800a3c8:	080035c1 	stmdaeq	r0, {r0, r6, r7, r8, sl, ip, sp}
 800a3cc:	00000000 	andeq	r0, r0, r0
 800a3d0:	080039d1 	stmdaeq	r0, {r0, r4, r6, r7, r8, fp, ip, sp}
 800a3d4:	00000000 	andeq	r0, r0, r0
 800a3d8:	00010100 	andeq	r0, r1, r0, lsl #2
 800a3dc:	000000e1 	andeq	r0, r0, r1, ror #1
 800a3e0:	08003a21 	stmdaeq	r0, {r0, r5, r9, fp, ip, sp}
	...
 800a3f0:	00010101 	andeq	r0, r1, r1, lsl #2
 800a3f4:	000000f0 	strdeq	r0, [r0], -r0	; <UNPREDICTABLE>
 800a3f8:	080035fd 	stmdaeq	r0, {r0, r2, r3, r4, r5, r6, r7, r8, sl, ip, sp}
 800a3fc:	00000000 	andeq	r0, r0, r0
 800a400:	08003aa1 	stmdaeq	r0, {r0, r5, r7, r9, fp, ip, sp}
 800a404:	00000000 	andeq	r0, r0, r0
 800a408:	00010000 	andeq	r0, r1, r0
 800a40c:	00000120 	andeq	r0, r0, r0, lsr #2
 800a410:	08003759 	stmdaeq	r0, {r0, r3, r4, r6, r8, r9, sl, ip, sp}
	...
 800a420:	00010100 	andeq	r0, r1, r0, lsl #2
 800a424:	00000121 	andeq	r0, r0, r1, lsr #2
 800a428:	08003d01 	stmdaeq	r0, {r0, r8, sl, fp, ip, sp}
	...
 800a438:	00010102 	andeq	r0, r1, r2, lsl #2
 800a43c:	00000200 	andeq	r0, r0, r0, lsl #4
 800a440:	08003aed 	stmdaeq	r0, {r0, r2, r3, r5, r6, r7, r9, fp, ip, sp}
	...
 800a450:	00010101 	andeq	r0, r1, r1, lsl #2
 800a454:	00000201 	andeq	r0, r0, r1, lsl #4
 800a458:	08003e25 	stmdaeq	r0, {r0, r2, r5, r9, sl, fp, ip, sp}
 800a45c:	00000000 	andeq	r0, r0, r0
 800a460:	08003ea5 	stmdaeq	r0, {r0, r2, r5, r7, r9, sl, fp, ip, sp}
 800a464:	00000000 	andeq	r0, r0, r0
 800a468:	00010101 	andeq	r0, r1, r1, lsl #2
 800a46c:	00000202 	andeq	r0, r0, r2, lsl #4
	...
 800a478:	08003f75 	stmdaeq	r0, {r0, r2, r4, r5, r6, r8, r9, sl, fp, ip, sp}
 800a47c:	00000000 	andeq	r0, r0, r0
 800a480:	00010100 	andeq	r0, r1, r0, lsl #2
 800a484:	00000400 	andeq	r0, r0, r0, lsl #8
 800a488:	08003631 	stmdaeq	r0, {r0, r4, r5, r9, sl, ip, sp}
 800a48c:	00000000 	andeq	r0, r0, r0
 800a490:	08003b89 	stmdaeq	r0, {r0, r3, r7, r8, r9, fp, ip, sp}
 800a494:	00000000 	andeq	r0, r0, r0
 800a498:	00010100 	andeq	r0, r1, r0, lsl #2
 800a49c:	00000500 	andeq	r0, r0, r0, lsl #10
 800a4a0:	08003659 	stmdaeq	r0, {r0, r3, r4, r6, r9, sl, ip, sp}
 800a4a4:	00000000 	andeq	r0, r0, r0
 800a4a8:	08003b91 	stmdaeq	r0, {r0, r4, r7, r8, r9, fp, ip, sp}
 800a4ac:	00000000 	andeq	r0, r0, r0
 800a4b0:	00010100 	andeq	r0, r1, r0, lsl #2
 800a4b4:	00000501 	andeq	r0, r0, r1, lsl #10
 800a4b8:	08003671 	stmdaeq	r0, {r0, r4, r5, r6, r9, sl, ip, sp}
 800a4bc:	00000000 	andeq	r0, r0, r0
 800a4c0:	08003bdd 	stmdaeq	r0, {r0, r2, r3, r4, r6, r7, r8, r9, fp, ip, sp}
 800a4c4:	00000000 	andeq	r0, r0, r0
 800a4c8:	00010100 	andeq	r0, r1, r0, lsl #2
 800a4cc:	00000603 	andeq	r0, r0, r3, lsl #12
 800a4d0:	08003689 	stmdaeq	r0, {r0, r3, r7, r9, sl, ip, sp}
 800a4d4:	00000000 	andeq	r0, r0, r0
 800a4d8:	08003c25 	stmdaeq	r0, {r0, r2, r5, sl, fp, ip, sp}
 800a4dc:	00000000 	andeq	r0, r0, r0
 800a4e0:	00010100 	andeq	r0, r1, r0, lsl #2
 800a4e4:	00001010 	andeq	r1, r0, r0, lsl r0
 800a4e8:	080036dd 	stmdaeq	r0, {r0, r2, r3, r4, r6, r7, r9, sl, ip, sp}
 800a4ec:	00000000 	andeq	r0, r0, r0
 800a4f0:	08003c85 	stmdaeq	r0, {r0, r2, r7, sl, fp, ip, sp}
 800a4f4:	00000000 	andeq	r0, r0, r0
 800a4f8:	00010100 	andeq	r0, r1, r0, lsl #2
 800a4fc:	00001020 	andeq	r1, r0, r0, lsr #32
 800a500:	080036eb 	stmdaeq	r0, {r0, r1, r3, r5, r6, r7, r9, sl, ip, sp}
 800a504:	00000000 	andeq	r0, r0, r0
 800a508:	08003ffb 	stmdaeq	r0, {r0, r1, r3, r4, r5, r6, r7, r8, r9, sl, fp, ip, sp}
 800a50c:	00000000 	andeq	r0, r0, r0
 800a510:	00010100 	andeq	r0, r1, r0, lsl #2
 800a514:	00001021 	andeq	r1, r0, r1, lsr #32
 800a518:	08003cb3 	stmdaeq	r0, {r0, r1, r4, r5, r7, sl, fp, ip, sp}
	...
 800a528:	00010101 	andeq	r0, r1, r1, lsl #2
 800a52c:	00001040 	andeq	r1, r0, r0, asr #32
 800a530:	080042f1 	stmdaeq	r0, {r0, r4, r5, r6, r7, r9, lr}
 800a534:	00000000 	andeq	r0, r0, r0
 800a538:	08004305 	stmdaeq	r0, {r0, r2, r8, r9, lr}
 800a53c:	00000000 	andeq	r0, r0, r0
 800a540:	00010100 	andeq	r0, r1, r0, lsl #2

0800a544 <UID_ALL>:
 800a544:	ffffffff 			; <UNDEFINED> instruction: 0xffffffff
 800a548:	6f4effff 	svcvs	0x004effff
 800a54c:	66656420 	strbtvs	r6, [r5], -r0, lsr #8
 800a550:	74696e69 	strbtvc	r6, [r9], #-3689	; 0xfffff197
 800a554:	006e6f69 	rsbeq	r6, lr, r9, ror #30
 800a558:	65746e49 	ldrbvs	r6, [r4, #-3657]!	; 0xfffff1b7
 800a55c:	7469736e 	strbtvc	r7, [r9], #-878	; 0xfffffc92
 800a560:	6e490079 	mcrvs	0, 2, r0, cr9, cr9, {3}
 800a564:	736e6574 	cmnvc	lr, #116, 10	; 0x1d000000
 800a568:	20797469 	rsbscs	r7, r9, r9, ror #8
 800a56c:	7473614d 	ldrbtvc	r6, [r3], #-333	; 0xfffffeb3
 800a570:	50007265 	andpl	r7, r0, r5, ror #4
 800a574:	54006e61 	strpl	r6, [r0], #-3681	; 0xfffff19f
 800a578:	00746c69 	rsbseq	r6, r4, r9, ror #24
 800a57c:	6f6c6f43 	svcvs	0x006c6f43
 800a580:	68572072 	ldmdavs	r7, {r1, r4, r5, r6, sp}^
 800a584:	006c6565 	rsbeq	r6, ip, r5, ror #10
 800a588:	74627553 	strbtvc	r7, [r2], #-1363	; 0xfffffaad
 800a58c:	74636172 	strbtvc	r6, [r3], #-370	; 0xfffffe8e
 800a590:	20657669 	rsbcs	r7, r5, r9, ror #12
 800a594:	6f6c6f43 	svcvs	0x006c6f43
 800a598:	694d2072 	stmdbvs	sp, {r1, r4, r5, r6, sp}^
 800a59c:	20726578 	rsbscs	r6, r2, r8, ror r5
 800a5a0:	209380e2 	addscs	r8, r3, r2, ror #1
 800a5a4:	6e617943 	vnmulvs.f16	s15, s2, s6	; <UNPREDICTABLE>
 800a5a8:	756c422f 	strbvc	r4, [ip, #-559]!	; 0xfffffdd1
 800a5ac:	75530065 	ldrbvc	r0, [r3, #-101]	; 0xffffff9b
 800a5b0:	61727462 	cmnvs	r2, r2, ror #8
 800a5b4:	76697463 	strbtvc	r7, [r9], -r3, ror #8
 800a5b8:	6f432065 	svcvs	0x00432065
 800a5bc:	20726f6c 	rsbscs	r6, r2, ip, ror #30
 800a5c0:	6578694d 	ldrbvs	r6, [r8, #-2381]!	; 0xfffff6b3
 800a5c4:	80e22072 	rschi	r2, r2, r2, ror r0
 800a5c8:	65592093 	ldrbvs	r2, [r9, #-147]	; 0xffffff6d
 800a5cc:	776f6c6c 	strbvc	r6, [pc, -ip, ror #24]!
 800a5d0:	626d412f 	rsbvs	r4, sp, #-1073741813	; 0xc000000b
 800a5d4:	53007265 	movwpl	r7, #613	; 0x265
 800a5d8:	72746275 	rsbsvc	r6, r4, #1342177287	; 0x50000007
 800a5dc:	69746361 	ldmdbvs	r4!, {r0, r5, r6, r8, r9, sp, lr}^
 800a5e0:	43206576 			; <UNDEFINED> instruction: 0x43206576
 800a5e4:	726f6c6f 	rsbvc	r6, pc, #28416	; 0x6f00
 800a5e8:	78694d20 	stmdavc	r9!, {r5, r8, sl, fp, lr}^
 800a5ec:	2d207265 	sfmcs	f7, 4, [r0, #-404]!	; 0xfffffe6c
 800a5f0:	67614d20 	strbvs	r4, [r1, -r0, lsr #26]!
 800a5f4:	61746e65 	cmnvs	r4, r5, ror #28
 800a5f8:	64644100 	strbtvs	r4, [r4], #-256	; 0xffffff00
 800a5fc:	76697469 	strbtvc	r7, [r9], -r9, ror #8
 800a600:	6f432065 	svcvs	0x00432065
 800a604:	20726f6c 	rsbscs	r6, r2, ip, ror #30
 800a608:	6578694d 	ldrbvs	r6, [r8, #-2381]!	; 0xfffff6b3
 800a60c:	202d2072 	eorcs	r2, sp, r2, ror r0
 800a610:	00646552 	rsbeq	r6, r4, r2, asr r5
 800a614:	69646441 	stmdbvs	r4!, {r0, r6, sl, sp, lr}^
 800a618:	65766974 	ldrbvs	r6, [r6, #-2420]!	; 0xfffff68c
 800a61c:	6c6f4320 	stclvs	3, cr4, [pc], #-128	; 800a5a4 <UID_ALL+0x60>
 800a620:	4d20726f 	sfmmi	f7, 4, [r0, #-444]!	; 0xfffffe44
 800a624:	72657869 	rsbvc	r7, r5, #6881280	; 0x690000
 800a628:	47202d20 	strmi	r2, [r0, -r0, lsr #26]!
 800a62c:	6e656572 	mcrvs	5, 3, r6, cr5, cr2, {3}
 800a630:	64644100 	strbtvs	r4, [r4], #-256	; 0xffffff00
 800a634:	76697469 	strbtvc	r7, [r9], -r9, ror #8
 800a638:	6f432065 	svcvs	0x00432065
 800a63c:	20726f6c 	rsbscs	r6, r2, ip, ror #30
 800a640:	6578694d 	ldrbvs	r6, [r8, #-2381]!	; 0xfffff6b3
 800a644:	202d2072 	eorcs	r2, sp, r2, ror r0
 800a648:	65756c42 	ldrbvs	r6, [r5, #-3138]!	; 0xfffff3be
 800a64c:	6c6f4300 	stclvs	3, cr4, [pc], #-0	; 800a654 <UID_ALL+0x110>
 800a650:	5420726f 	strtpl	r7, [r0], #-623	; 0xfffffd91
 800a654:	65706d65 	ldrbvs	r6, [r0, #-3429]!	; 0xfffff29b
 800a658:	75746172 	ldrbvc	r6, [r4, #-370]!	; 0xfffffe8e
 800a65c:	43206572 			; <UNDEFINED> instruction: 0x43206572
 800a660:	6572726f 	ldrbvs	r7, [r2, #-623]!	; 0xfffffd91
 800a664:	6f697463 	svcvs	0x00697463
 800a668:	6441006e 	strbvs	r0, [r1], #-110	; 0xffffff92
 800a66c:	69746964 	ldmdbvs	r4!, {r2, r5, r6, r8, fp, sp, lr}^
 800a670:	43206576 			; <UNDEFINED> instruction: 0x43206576
 800a674:	726f6c6f 	rsbvc	r6, pc, #28416	; 0x6f00
 800a678:	78694d20 	stmdavc	r9!, {r5, r8, sl, fp, lr}^
 800a67c:	2d207265 	sfmcs	f7, 4, [r0, #-404]!	; 0xfffffe6c
 800a680:	626d4120 	rsbvs	r4, sp, #32, 2
 800a684:	41007265 	tstmi	r0, r5, ror #4
 800a688:	74696464 	strbtvc	r6, [r9], #-1124	; 0xfffffb9c
 800a68c:	20657669 	rsbcs	r7, r5, r9, ror #12
 800a690:	6f6c6f43 	svcvs	0x006c6f43
 800a694:	694d2072 	stmdbvs	sp, {r1, r4, r5, r6, sp}^
 800a698:	20726578 	rsbscs	r6, r2, r8, ror r5
 800a69c:	6857202d 	ldmdavs	r7, {r0, r2, r3, r5, sp}^
 800a6a0:	00657469 	rsbeq	r7, r5, r9, ror #8
 800a6a4:	69646441 	stmdbvs	r4!, {r0, r6, sl, sp, lr}^
 800a6a8:	65766974 	ldrbvs	r6, [r6, #-2420]!	; 0xfffff68c
 800a6ac:	6c6f4320 	stclvs	3, cr4, [pc], #-128	; 800a634 <UID_ALL+0xf0>
 800a6b0:	4d20726f 	sfmmi	f7, 4, [r0, #-444]!	; 0xfffffe44
 800a6b4:	72657869 	rsbvc	r7, r5, #6881280	; 0x690000
 800a6b8:	57202d20 	strpl	r2, [r0, -r0, lsr #26]!
 800a6bc:	206d7261 	rsbcs	r7, sp, r1, ror #4
 800a6c0:	74696857 	strbtvc	r6, [r9], #-2135	; 0xfffff7a9
 800a6c4:	64410065 	strbvs	r0, [r1], #-101	; 0xffffff9b
 800a6c8:	69746964 	ldmdbvs	r4!, {r2, r5, r6, r8, fp, sp, lr}^
 800a6cc:	43206576 			; <UNDEFINED> instruction: 0x43206576
 800a6d0:	726f6c6f 	rsbvc	r6, pc, #28416	; 0x6f00
 800a6d4:	78694d20 	stmdavc	r9!, {r5, r8, sl, fp, lr}^
 800a6d8:	2d207265 	sfmcs	f7, 4, [r0, #-404]!	; 0xfffffe6c
 800a6dc:	6f6f4320 	svcvs	0x006f4320
 800a6e0:	6857206c 	ldmdavs	r7, {r2, r3, r5, r6, sp}^
 800a6e4:	00657469 	rsbeq	r7, r5, r9, ror #8
 800a6e8:	74627553 	strbtvc	r7, [r2], #-1363	; 0xfffffaad
 800a6ec:	74636172 	strbtvc	r6, [r3], #-370	; 0xfffffe8e
 800a6f0:	20657669 	rsbcs	r7, r5, r9, ror #12
 800a6f4:	6f6c6f43 	svcvs	0x006c6f43
 800a6f8:	694d2072 	stmdbvs	sp, {r1, r4, r5, r6, sp}^
 800a6fc:	20726578 	rsbscs	r6, r2, r8, ror r5
 800a700:	5655202d 	ldrbpl	r2, [r5], -sp, lsr #32
 800a704:	65754800 	ldrbvs	r4, [r5, #-2048]!	; 0xfffff800
 800a708:	74615300 	strbtvc	r5, [r1], #-768	; 0xfffffd00
 800a70c:	74617275 	strbtvc	r7, [r1], #-629	; 0xfffffd8b
 800a710:	006e6f69 	rsbeq	r6, lr, r9, ror #30
 800a714:	74617453 	strbtvc	r7, [r1], #-1107	; 0xfffffbad
 800a718:	67206369 	strvs	r6, [r0, -r9, ror #6]!
 800a71c:	206f626f 	rsbcs	r6, pc, pc, ror #4
 800a720:	65656877 	strbvs	r6, [r5, #-2167]!	; 0xfffff789
 800a724:	6f52006c 	svcvs	0x0052006c
 800a728:	69746174 	ldmdbvs	r4!, {r2, r4, r5, r6, r8, sp, lr}^
 800a72c:	6720676e 	strvs	r6, [r0, -lr, ror #14]!
 800a730:	206f626f 	rsbcs	r6, pc, pc, ror #4
 800a734:	65656877 	strbvs	r6, [r5, #-2167]!	; 0xfffff789
 800a738:	7250006c 	subsvc	r0, r0, #108	; 0x6c
 800a73c:	206d7369 	rsbcs	r7, sp, r9, ror #6
 800a740:	65656877 	strbvs	r6, [r5, #-2167]!	; 0xfffff789
 800a744:	6645006c 	strbvs	r0, [r5], -ip, rrx
 800a748:	74636566 	strbtvc	r6, [r3], #-1382	; 0xfffffa9a
 800a74c:	68772073 	ldmdavs	r7!, {r0, r1, r4, r5, r6, sp}^
 800a750:	006c6565 	rsbeq	r6, ip, r5, ror #10
 800a754:	6d616542 	cfstr64vs	mvdx6, [r1, #-264]!	; 0xfffffef8
 800a758:	7a697320 	bvc	9a673e0 <_sidata+0x1a5b6bc>
 800a75c:	72692065 	rsbvc	r2, r9, #101	; 0x65
 800a760:	45007369 	strmi	r7, [r0, #-873]	; 0xfffffc97
 800a764:	2f656764 	svccs	0x00656764
 800a768:	736e654c 	cmnvc	lr, #76, 10	; 0x13000000
 800a76c:	636f6620 	cmnvs	pc, #32, 12	; 0x2000000
 800a770:	46007375 			; <UNDEFINED> instruction: 0x46007375
 800a774:	74736f72 	ldrbtvc	r6, [r3], #-3954	; 0xfffff08e
 800a778:	6669442f 	strbtvs	r4, [r9], -pc, lsr #8
 800a77c:	69737566 	ldmdbvs	r3!, {r1, r2, r5, r6, r8, sl, ip, sp, lr}^
 800a780:	53006e6f 	movwpl	r6, #3695	; 0xe6f
 800a784:	626f7274 	rsbvs	r7, pc, #116, 4	; 0x40000007
 800a788:	68532f65 	ldmdavs	r3, {r0, r2, r5, r6, r8, r9, sl, fp, sp}^
 800a78c:	65747475 	ldrbvs	r7, [r4, #-1141]!	; 0xfffffb8b
 800a790:	6f5a0072 	svcvs	0x005a0072
 800a794:	6c206d6f 	stcvs	13, cr6, [r0], #-444	; 0xfffffe44
 800a798:	00736e65 	rsbseq	r6, r3, r5, ror #28
 800a79c:	6d617246 	sfmvs	f7, 2, [r1, #-280]!	; 0xfffffee8
 800a7a0:	20676e69 	rsbcs	r6, r7, r9, ror #28
 800a7a4:	74756873 	ldrbtvc	r6, [r5], #-2163	; 0xfffff78d
 800a7a8:	00726574 	rsbseq	r6, r2, r4, ror r5
 800a7ac:	6d617246 	sfmvs	f7, 2, [r1, #-280]!	; 0xfffffee8
 800a7b0:	20676e69 	rsbcs	r6, r7, r9, ror #28
 800a7b4:	74756873 	ldrbtvc	r6, [r5], #-2163	; 0xfffff78d
 800a7b8:	20726574 	rsbscs	r6, r2, r4, ror r5
 800a7bc:	61746f72 	cmnvs	r4, r2, ror pc
 800a7c0:	6e6f6974 			; <UNDEFINED> instruction: 0x6e6f6974
 800a7c4:	756f4400 	strbvc	r4, [pc, #-1024]!	; 800a3cc <RDMHandler::PID_DEFINITIONS+0x170>
 800a7c8:	00726573 	rsbseq	r6, r2, r3, ror r5
 800a7cc:	6e726142 	rpwvssm	f6, f2, f2
 800a7d0:	6f6f4420 	svcvs	0x006f4420
 800a7d4:	614c0072 	hvcvs	49154	; 0xc002
 800a7d8:	6320706d 			; <UNDEFINED> instruction: 0x6320706d
 800a7dc:	72746e6f 	rsbsvc	r6, r4, #1776	; 0x6f0
 800a7e0:	66206c6f 	strtvs	r6, [r0], -pc, ror #24
 800a7e4:	74636e75 	strbtvc	r6, [r3], #-3701	; 0xfffff18b
 800a7e8:	736e6f69 	cmnvc	lr, #420	; 0x1a4
 800a7ec:	78694600 	stmdavc	r9!, {r9, sl, lr}^
 800a7f0:	65727574 	ldrbvs	r7, [r2, #-1396]!	; 0xfffffa8c
 800a7f4:	6e6f6320 	cdpvs	3, 6, cr6, cr15, cr0, {1}
 800a7f8:	6c6f7274 	sfmvs	f7, 2, [pc], #-464	; 800a630 <UID_ALL+0xec>
 800a7fc:	61686320 	cmnvs	r8, r0, lsr #6
 800a800:	6c656e6e 	stclvs	14, cr6, [r5], #-440	; 0xfffffe48
 800a804:	63614d00 	cmnvs	r1, #0, 26
 800a808:	63206f72 			; <UNDEFINED> instruction: 0x63206f72
 800a80c:	72746e6f 	rsbsvc	r6, r4, #1776	; 0x6f0
 800a810:	52006c6f 	andpl	r6, r0, #28416	; 0x6f00
 800a814:	79616c65 	stmdbvc	r1!, {r0, r2, r5, r6, sl, fp, sp, lr}^
 800a818:	20726f20 	rsbscs	r6, r2, r0, lsr #30
 800a81c:	65776f70 	ldrbvs	r6, [r7, #-3952]!	; 0xfffff090
 800a820:	6f632072 	svcvs	0x00632072
 800a824:	6f72746e 	svcvs	0x0072746e
 800a828:	6146006c 	cmpvs	r6, ip, rrx
 800a82c:	6f63206e 	svcvs	0x0063206e
 800a830:	6f72746e 	svcvs	0x0072746e
 800a834:	6548006c 	strbvs	r0, [r8, #-108]	; 0xffffff94
 800a838:	72657461 	rsbvc	r7, r5, #1627389952	; 0x61000000
 800a83c:	6e6f6320 	cdpvs	3, 6, cr6, cr15, cr0, {1}
 800a840:	6c6f7274 	sfmvs	f7, 2, [pc], #-464	; 800a678 <UID_ALL+0x134>
 800a844:	756f4600 	strbvc	r4, [pc, #-1536]!	; 800a24c <RDMHandler::PID_DEFINITIONS_SUB_DEVICES+0xb0>
 800a848:	6961746e 	stmdbvs	r1!, {r1, r2, r3, r5, r6, sl, ip, sp, lr}^
 800a84c:	6177206e 	cmnvs	r7, lr, rrx
 800a850:	20726574 	rsbscs	r6, r2, r4, ror r5
 800a854:	706d7570 	rsbvc	r7, sp, r0, ror r5
 800a858:	6e6f6320 	cdpvs	3, 6, cr6, cr15, cr0, {1}
 800a85c:	6c6f7274 	sfmvs	f7, 2, [pc], #-464	; 800a694 <UID_ALL+0x150>
 800a860:	6c530020 	mrrcvs	0, 2, r0, r3, cr0
 800a864:	6420746f 	strtvs	r7, [r0], #-1135	; 0xfffffb91
 800a868:	63657269 	cmnvs	r5, #-1879048186	; 0x90000006
 800a86c:	20796c74 	rsbscs	r6, r9, r4, ror ip
 800a870:	746e6f63 	strbtvc	r6, [lr], #-3939	; 0xfffff09d
 800a874:	736c6f72 	cmnvc	ip, #456	; 0x1c8
 800a878:	72617020 	rsbvc	r7, r1, #32
 800a87c:	74656d61 	strbtvc	r6, [r5], #-3425	; 0xfffff29f
 800a880:	28207265 	stmdacs	r0!, {r0, r2, r5, r6, r9, ip, sp, lr}
 800a884:	72706572 	rsbsvc	r6, r0, #478150656	; 0x1c800000
 800a888:	6e657365 	cdpvs	3, 6, cr7, cr5, cr5, {3}
 800a88c:	43207374 			; <UNDEFINED> instruction: 0x43207374
 800a890:	7372616f 	cmnvc	r2, #-1073741797	; 0xc000001b
 800a894:	6f662065 	svcvs	0x00662065
 800a898:	36312072 			; <UNDEFINED> instruction: 0x36312072
 800a89c:	7469622d 	strbtvc	r6, [r9], #-557	; 0xfffffdd3
 800a8a0:	72617020 	rsbvc	r7, r1, #32
 800a8a4:	74656d61 	strbtvc	r6, [r5], #-3425	; 0xfffff29f
 800a8a8:	29737265 	ldmdbcs	r3!, {r0, r2, r5, r6, r9, ip, sp, lr}^
 800a8ac:	6e694600 	cdpvs	6, 6, cr4, cr9, cr0, {0}
 800a8b0:	66202c65 	strtvs	r2, [r0], -r5, ror #24
 800a8b4:	3120726f 			; <UNDEFINED> instruction: 0x3120726f
 800a8b8:	69622d36 	stmdbvs	r2!, {r1, r2, r4, r5, r8, sl, fp, sp}^
 800a8bc:	61702074 	cmnvs	r0, r4, ror r0
 800a8c0:	656d6172 	strbvs	r6, [sp, #-370]!	; 0xfffffe8e
 800a8c4:	73726574 	cmnvc	r2, #116, 10	; 0x1d000000
 800a8c8:	6f6c5300 	svcvs	0x006c5300
 800a8cc:	65732074 	ldrbvs	r2, [r3, #-116]!	; 0xffffff8c
 800a8d0:	74207374 	strtvc	r7, [r0], #-884	; 0xfffffc8c
 800a8d4:	6e696d69 	cdpvs	13, 6, cr6, cr9, cr9, {3}
 800a8d8:	61762067 	cmnvs	r6, r7, rrx
 800a8dc:	2065756c 	rsbcs	r7, r5, ip, ror #10
 800a8e0:	20726f66 	rsbscs	r6, r2, r6, ror #30
 800a8e4:	6f737361 	svcvs	0x00737361
 800a8e8:	74616963 	strbtvc	r6, [r1], #-2403	; 0xfffff69d
 800a8ec:	70206465 	eorvc	r6, r0, r5, ror #8
 800a8f0:	6d617261 	sfmvs	f7, 2, [r1, #-388]!	; 0xfffffe7c
 800a8f4:	72657465 	rsbvc	r7, r5, #1694498816	; 0x65000000
 800a8f8:	6f6c5300 	svcvs	0x006c5300
 800a8fc:	65732074 	ldrbvs	r2, [r3, #-116]!	; 0xffffff8c
 800a900:	73207374 			; <UNDEFINED> instruction: 0x73207374
 800a904:	64656570 	strbtvs	r6, [r5], #-1392	; 0xfffffa90
 800a908:	6c65762f 	stclvs	6, cr7, [r5], #-188	; 0xffffff44
 800a90c:	7469636f 	strbtvc	r6, [r9], #-879	; 0xfffffc91
 800a910:	6f662079 	svcvs	0x00662079
 800a914:	73612072 	cmnvc	r1, #114	; 0x72
 800a918:	69636f73 	stmdbvs	r3!, {r0, r1, r4, r5, r6, r8, r9, sl, fp, sp, lr}^
 800a91c:	64657461 	strbtvs	r7, [r5], #-1121	; 0xfffffb9f
 800a920:	72617020 	rsbvc	r7, r1, #32
 800a924:	74656d61 	strbtvc	r6, [r5], #-3425	; 0xfffff29f
 800a928:	53007265 	movwpl	r7, #613	; 0x265
 800a92c:	20746f6c 	rsbscs	r6, r4, ip, ror #30
 800a930:	766f7270 			; <UNDEFINED> instruction: 0x766f7270
 800a934:	73656469 	cmnvc	r5, #1761607680	; 0x69000000
 800a938:	6e6f6320 	cdpvs	3, 6, cr6, cr15, cr0, {1}
 800a93c:	6c6f7274 	sfmvs	f7, 2, [pc], #-464	; 800a774 <UID_ALL+0x230>
 800a940:	646f6d2f 	strbtvs	r6, [pc], #-3375	; 800a948 <UID_ALL+0x404>
 800a944:	6e692065 	cdpvs	0, 6, cr2, cr9, cr5, {3}
 800a948:	66206f66 	strtvs	r6, [r0], -r6, ror #30
 800a94c:	7020726f 	eorvc	r7, r0, pc, ror #4
 800a950:	6d617261 	sfmvs	f7, 2, [r1, #-388]!	; 0xfffffe7c
 800a954:	72657465 	rsbvc	r7, r5, #1694498816	; 0x65000000
 800a958:	6f6c5300 	svcvs	0x006c5300
 800a95c:	65732074 	ldrbvs	r2, [r3, #-116]!	; 0xffffff8c
 800a960:	69207374 	stmdbvs	r0!, {r2, r4, r5, r6, r8, r9, ip, sp, lr}
 800a964:	7865646e 	stmdavc	r5!, {r1, r2, r3, r5, r6, sl, sp, lr}^
 800a968:	736f7020 	cmnvc	pc, #32
 800a96c:	6f697469 	svcvs	0x00697469
 800a970:	6f66206e 	svcvs	0x0066206e
 800a974:	73612072 	cmnvc	r1, #114	; 0x72
 800a978:	69636f73 	stmdbvs	r3!, {r0, r1, r4, r5, r6, r8, r9, sl, fp, sp, lr}^
 800a97c:	64657461 	strbtvs	r7, [r5], #-1121	; 0xfffffb9f
 800a980:	72617020 	rsbvc	r7, r1, #32
 800a984:	74656d61 	strbtvc	r6, [r5], #-3425	; 0xfffff29f
 800a988:	53007265 	movwpl	r7, #613	; 0x265
 800a98c:	20746f6c 	rsbscs	r6, r4, ip, ror #30
 800a990:	73746573 	cmnvc	r4, #482344960	; 0x1cc00000
 800a994:	746f7220 	strbtvc	r7, [pc], #-544	; 800a99c <UID_ALL+0x458>
 800a998:	6f697461 	svcvs	0x00697461
 800a99c:	7073206e 	rsbsvc	r2, r3, lr, rrx
 800a9a0:	20646565 	rsbcs	r6, r4, r5, ror #10
 800a9a4:	20726f66 	rsbscs	r6, r2, r6, ror #30
 800a9a8:	6f737361 	svcvs	0x00737361
 800a9ac:	74616963 	strbtvc	r6, [r1], #-2403	; 0xfffff69d
 800a9b0:	70206465 	eorvc	r6, r0, r5, ror #8
 800a9b4:	6d617261 	sfmvs	f7, 2, [r1, #-388]!	; 0xfffffe7c
 800a9b8:	72657465 	rsbvc	r7, r5, #1694498816	; 0x65000000
 800a9bc:	6d6f4300 	stclvs	3, cr4, [pc, #-0]	; 800a9c4 <UID_ALL+0x480>
 800a9c0:	656e6962 	strbvs	r6, [lr, #-2402]!	; 0xfffff69e
 800a9c4:	6e692064 	cdpvs	0, 6, cr2, cr9, cr4, {3}
 800a9c8:	2f786564 	svccs	0x00786564
 800a9cc:	61746f72 	cmnvs	r4, r2, ror pc
 800a9d0:	6e6f6974 			; <UNDEFINED> instruction: 0x6e6f6974
 800a9d4:	6e6f6320 	cdpvs	3, 6, cr6, cr15, cr0, {1}
 800a9d8:	6c6f7274 	sfmvs	f7, 2, [pc], #-464	; 800a810 <UID_ALL+0x2cc>
 800a9dc:	00000000 	andeq	r0, r0, r0

0800a9e0 <s_tTableC2>:
 800a9e0:	00000001 	andeq	r0, r0, r1
 800a9e4:	0800a558 	stmdaeq	r0, {r3, r4, r6, r8, sl, sp, pc}
 800a9e8:	00000002 	andeq	r0, r0, r2
 800a9ec:	0800a562 	stmdaeq	r0, {r1, r5, r6, r8, sl, sp, pc}
 800a9f0:	00000101 	andeq	r0, r0, r1, lsl #2
 800a9f4:	0800a573 	stmdaeq	r0, {r0, r1, r4, r5, r6, r8, sl, sp, pc}
 800a9f8:	00000102 	andeq	r0, r0, r2, lsl #2
 800a9fc:	0800a577 	stmdaeq	r0, {r0, r1, r2, r4, r5, r6, r8, sl, sp, pc}
 800aa00:	00000201 	andeq	r0, r0, r1, lsl #4
 800aa04:	0800a57c 	stmdaeq	r0, {r2, r3, r4, r5, r6, r8, sl, sp, pc}
 800aa08:	00000202 	andeq	r0, r0, r2, lsl #4
 800aa0c:	0800a588 	stmdaeq	r0, {r3, r7, r8, sl, sp, pc}
 800aa10:	00000203 	andeq	r0, r0, r3, lsl #4
 800aa14:	0800a5ae 	stmdaeq	r0, {r1, r2, r3, r5, r7, r8, sl, sp, pc}
 800aa18:	00000204 	andeq	r0, r0, r4, lsl #4
 800aa1c:	0800a5d7 	stmdaeq	r0, {r0, r1, r2, r4, r6, r7, r8, sl, sp, pc}
 800aa20:	00000205 	andeq	r0, r0, r5, lsl #4
 800aa24:	0800a5f9 	stmdaeq	r0, {r0, r3, r4, r5, r6, r7, r8, sl, sp, pc}
 800aa28:	00000206 	andeq	r0, r0, r6, lsl #4
 800aa2c:	0800a614 	stmdaeq	r0, {r2, r4, r9, sl, sp, pc}
 800aa30:	00000207 	andeq	r0, r0, r7, lsl #4
 800aa34:	0800a631 	stmdaeq	r0, {r0, r4, r5, r9, sl, sp, pc}
 800aa38:	00000208 	andeq	r0, r0, r8, lsl #4
 800aa3c:	0800a64d 	stmdaeq	r0, {r0, r2, r3, r6, r9, sl, sp, pc}
 800aa40:	00000211 	andeq	r0, r0, r1, lsl r2
 800aa44:	0800a66a 	stmdaeq	r0, {r1, r3, r5, r6, r9, sl, sp, pc}
 800aa48:	00000212 	andeq	r0, r0, r2, lsl r2
 800aa4c:	0800a687 	stmdaeq	r0, {r0, r1, r2, r7, r9, sl, sp, pc}
 800aa50:	00000213 	andeq	r0, r0, r3, lsl r2
 800aa54:	0800a6a4 	stmdaeq	r0, {r2, r5, r7, r9, sl, sp, pc}
 800aa58:	00000214 	andeq	r0, r0, r4, lsl r2
 800aa5c:	0800a6c6 	stmdaeq	r0, {r1, r2, r6, r7, r9, sl, sp, pc}
 800aa60:	00000215 	andeq	r0, r0, r5, lsl r2
 800aa64:	0800a6e8 	stmdaeq	r0, {r3, r5, r6, r7, r9, sl, sp, pc}
 800aa68:	00000216 	andeq	r0, r0, r6, lsl r2
 800aa6c:	0800a705 	stmdaeq	r0, {r0, r2, r8, r9, sl, sp, pc}
 800aa70:	00000217 	andeq	r0, r0, r7, lsl r2
 800aa74:	0800a709 	stmdaeq	r0, {r0, r3, r8, r9, sl, sp, pc}
 800aa78:	00000301 	andeq	r0, r0, r1, lsl #6
 800aa7c:	0800a714 	stmdaeq	r0, {r2, r4, r8, r9, sl, sp, pc}
 800aa80:	00000302 	andeq	r0, r0, r2, lsl #6
 800aa84:	0800a726 	stmdaeq	r0, {r1, r2, r5, r8, r9, sl, sp, pc}
 800aa88:	00000303 	andeq	r0, r0, r3, lsl #6
 800aa8c:	0800a73a 	stmdaeq	r0, {r1, r3, r4, r5, r8, r9, sl, sp, pc}
 800aa90:	00000304 	andeq	r0, r0, r4, lsl #6
 800aa94:	0800a746 	stmdaeq	r0, {r1, r2, r6, r8, r9, sl, sp, pc}
 800aa98:	00000401 	andeq	r0, r0, r1, lsl #8
 800aa9c:	0800a754 	stmdaeq	r0, {r2, r4, r6, r8, r9, sl, sp, pc}
 800aaa0:	00000402 	andeq	r0, r0, r2, lsl #8
 800aaa4:	0800a763 	stmdaeq	r0, {r0, r1, r5, r6, r8, r9, sl, sp, pc}
 800aaa8:	00000403 	andeq	r0, r0, r3, lsl #8
 800aaac:	0800a773 	stmdaeq	r0, {r0, r1, r4, r5, r6, r8, r9, sl, sp, pc}
 800aab0:	00000404 	andeq	r0, r0, r4, lsl #8
 800aab4:	0800a783 	stmdaeq	r0, {r0, r1, r7, r8, r9, sl, sp, pc}
 800aab8:	00000405 	andeq	r0, r0, r5, lsl #8
 800aabc:	0800a792 	stmdaeq	r0, {r1, r4, r7, r8, r9, sl, sp, pc}
 800aac0:	00000406 	andeq	r0, r0, r6, lsl #8
 800aac4:	0800a79c 	stmdaeq	r0, {r2, r3, r4, r7, r8, r9, sl, sp, pc}
 800aac8:	00000407 	andeq	r0, r0, r7, lsl #8
 800aacc:	0800a7ac 	stmdaeq	r0, {r2, r3, r5, r7, r8, r9, sl, sp, pc}
 800aad0:	00000408 	andeq	r0, r0, r8, lsl #8
 800aad4:	0800a7c5 	stmdaeq	r0, {r0, r2, r6, r7, r8, r9, sl, sp, pc}
 800aad8:	00000409 	andeq	r0, r0, r9, lsl #8
 800aadc:	0800a7cc 	stmdaeq	r0, {r2, r3, r6, r7, r8, r9, sl, sp, pc}
 800aae0:	00000501 	andeq	r0, r0, r1, lsl #10
 800aae4:	0800a7d6 	stmdaeq	r0, {r1, r2, r4, r6, r7, r8, r9, sl, sp, pc}
 800aae8:	00000502 	andeq	r0, r0, r2, lsl #10
 800aaec:	0800a7ed 	stmdaeq	r0, {r0, r2, r3, r5, r6, r7, r8, r9, sl, sp, pc}
 800aaf0:	00000504 	andeq	r0, r0, r4, lsl #10
 800aaf4:	0800a805 	stmdaeq	r0, {r0, r2, fp, sp, pc}
 800aaf8:	00000505 	andeq	r0, r0, r5, lsl #10
 800aafc:	0800a813 	stmdaeq	r0, {r0, r1, r4, fp, sp, pc}
 800ab00:	00000506 	andeq	r0, r0, r6, lsl #10
 800ab04:	0800a82a 	stmdaeq	r0, {r1, r3, r5, fp, sp, pc}
 800ab08:	00000507 	andeq	r0, r0, r7, lsl #10
 800ab0c:	0800a836 	stmdaeq	r0, {r1, r2, r4, r5, fp, sp, pc}
 800ab10:	00000508 	andeq	r0, r0, r8, lsl #10
 800ab14:	0800a845 	stmdaeq	r0, {r0, r2, r6, fp, sp, pc}
 800ab18:	0000ffff 	strdeq	pc, [r0], -pc	; <UNPREDICTABLE>
 800ab1c:	0800a54a 	stmdaeq	r0, {r1, r3, r6, r8, sl, sp, pc}

0800ab20 <RDMConst::MANUFACTURER_ID>:
 800ab20:	 	strbtvc	r0, [r8], #-80	; 0xffffffb0

0800ab22 <RDMConst::MANUFACTURER_NAME>:
 800ab22:	70747468 	rsbsvc	r7, r4, r8, ror #8
 800ab26:	772f2f3a 			; <UNDEFINED> instruction: 0x772f2f3a
 800ab2a:	6f2e7777 	svcvs	0x002e7777
 800ab2e:	676e6172 			; <UNDEFINED> instruction: 0x676e6172
 800ab32:	2d697065 	stclcs	0, cr7, [r9, #-404]!	; 0xfffffe6c
 800ab36:	2e786d64 	cdpcs	13, 7, cr6, cr8, cr4, {3}
 800ab3a:	0067726f 	rsbeq	r7, r7, pc, ror #4
 800ab3e:	204d4452 	subcs	r4, sp, r2, asr r4
 800ab42:	69766544 	ldmdbvs	r6!, {r2, r6, r8, sl, sp, lr}^
 800ab46:	63206563 			; <UNDEFINED> instruction: 0x63206563
 800ab4a:	69666e6f 	stmdbvs	r6!, {r0, r1, r2, r3, r5, r6, r9, sl, fp, sp, lr}^
 800ab4e:	61727567 	cmnvs	r2, r7, ror #10
 800ab52:	6e6f6974 			; <UNDEFINED> instruction: 0x6e6f6974
 800ab56:	614d2000 	mrsvs	r2, (UNDEF: 77)
 800ab5a:	6166756e 	cmnvs	r6, lr, ror #10
 800ab5e:	72757463 	rsbsvc	r7, r5, #1660944384	; 0x63000000
 800ab62:	4e207265 	cdpmi	2, 2, cr7, cr0, cr5, {3}
 800ab66:	20656d61 	rsbcs	r6, r5, r1, ror #26
 800ab6a:	2e25203a 	mcrcs	0, 1, r2, cr5, cr10, {1}
 800ab6e:	000a732a 	andeq	r7, sl, sl, lsr #6
 800ab72:	6e614d20 	cdpvs	13, 6, cr4, cr1, cr0, {1}
 800ab76:	63616675 	cmnvs	r1, #122683392	; 0x7500000
 800ab7a:	65727574 	ldrbvs	r7, [r2, #-1396]!	; 0xfffffa8c
 800ab7e:	44492072 	strbmi	r2, [r9], #-114	; 0xffffff8e
 800ab82:	3a202020 	bcc	8812c0a <_sidata+0x806ee6>
 800ab86:	322e2520 	eorcc	r2, lr, #32, 10	; 0x8000000
 800ab8a:	322e2558 	eorcc	r2, lr, #88, 10	; 0x16000000
 800ab8e:	20000a58 	andcs	r0, r0, r8, asr sl
 800ab92:	69726553 	ldmdbvs	r2!, {r0, r1, r4, r6, r8, sl, sp, lr}^
 800ab96:	4e206c61 	cdpmi	12, 2, cr6, cr0, cr1, {3}
 800ab9a:	65626d75 	strbvs	r6, [r2, #-3445]!	; 0xfffff28b
 800ab9e:	20202072 	eorcs	r2, r0, r2, ror r0
 800aba2:	203a2020 	eorscs	r2, sl, r0, lsr #32
 800aba6:	58322e25 	ldmdapl	r2!, {r0, r2, r5, r9, sl, fp, sp}
 800abaa:	58322e25 	ldmdapl	r2!, {r0, r2, r5, r9, sl, fp, sp}
 800abae:	58322e25 	ldmdapl	r2!, {r0, r2, r5, r9, sl, fp, sp}
 800abb2:	58322e25 	ldmdapl	r2!, {r0, r2, r5, r9, sl, fp, sp}
 800abb6:	5220000a 	eorpl	r0, r0, #10
 800abba:	20746f6f 	rsbscs	r6, r4, pc, ror #30
 800abbe:	6562616c 	strbvs	r6, [r2, #-364]!	; 0xfffffe94
 800abc2:	2020206c 	eorcs	r2, r0, ip, rrx
 800abc6:	20202020 	eorcs	r2, r0, r0, lsr #32
 800abca:	25203a20 	strcs	r3, [r0, #-2592]!	; 0xfffff5e0
 800abce:	0a732a2e 	beq	9cd548e <_sidata+0x1cc976a>
 800abd2:	72502000 	subsvc	r2, r0, #0
 800abd6:	6375646f 	cmnvs	r5, #1862270976	; 0x6f000000
 800abda:	61432074 	hvcvs	12804	; 0x3204
 800abde:	6f676574 	svcvs	0x00676574
 800abe2:	20207972 	eorcs	r7, r0, r2, ror r9
 800abe6:	2e25203a 	mcrcs	0, 1, r2, cr5, cr10, {1}
 800abea:	2e255832 	mcrcs	8, 1, r5, cr5, cr2, {1}
 800abee:	000a5832 	andeq	r5, sl, r2, lsr r8
 800abf2:	6f725020 	svcvs	0x00725020
 800abf6:	74637564 	strbtvc	r7, [r3], #-1380	; 0xfffffa9c
 800abfa:	74654420 	strbtvc	r4, [r5], #-1056	; 0xfffffbe0
 800abfe:	206c6961 	rsbcs	r6, ip, r1, ror #18
 800ac02:	3a202020 	bcc	8812c8a <_sidata+0x806f66>
 800ac06:	322e2520 	eorcc	r2, lr, #32, 10	; 0x8000000
 800ac0a:	322e2558 	eorcc	r2, lr, #88, 10	; 0x16000000
 800ac0e:	 	smlsdmi	r0, r8, sl, r0

0800ac11 <DEVICE_LABEL>:
 800ac11:	32334447 	eorscc	r4, r3, #1191182336	; 0x47000000
 800ac15:	33303346 	teqcc	r0, #402653185	; 0x18000001
 800ac19:	52204352 	eorpl	r4, r0, #1207959553	; 0x48000001
 800ac1d:	44204d44 	strtmi	r4, [r0], #-3396	; 0xfffff2bc
 800ac21:	63697665 	cmnvs	r9, #105906176	; 0x6500000
 800ac25:	69500065 	ldmdbvs	r0, {r0, r2, r5, r6}^
 800ac29:	206c6578 	rsbcs	r6, ip, r8, ror r5
 800ac2d:	20584d44 	subscs	r4, r8, r4, asr #26
 800ac31:	666e6f63 	strbtvs	r6, [lr], -r3, ror #30
 800ac35:	72756769 	rsbsvc	r6, r5, #27525120	; 0x1a40000
 800ac39:	6f697461 	svcvs	0x00697461
 800ac3d:	4f20006e 	svcmi	0x0020006e
 800ac41:	75707475 	ldrbvc	r7, [r0, #-1141]!	; 0xfffffb8b
 800ac45:	3a207374 	bcc	8827a1d <_sidata+0x81bcf9>
 800ac49:	0a642520 	beq	99140d1 <_sidata+0x19083ad>
 800ac4d:	72472000 	subvc	r2, r7, #0
 800ac51:	6970756f 	ldmdbvs	r0!, {r0, r1, r2, r3, r5, r6, r8, sl, ip, sp, lr}^
 800ac55:	6320676e 			; <UNDEFINED> instruction: 0x6320676e
 800ac59:	746e756f 	strbtvc	r7, [lr], #-1391	; 0xfffffa91
 800ac5d:	25203a20 	strcs	r3, [r0, #-2592]!	; 0xfffff5e0
 800ac61:	475b2064 	ldrbmi	r2, [fp, -r4, rrx]
 800ac65:	70756f72 	rsbsvc	r6, r5, r2, ror pc
 800ac69:	203a2073 	eorscs	r2, sl, r3, ror r0
 800ac6d:	0a5d6425 	beq	9763d09 <_sidata+0x1757fe5>
 800ac71:	 	andeq	r0, r0, r0

0800ac74 <vtable for PixelDmxParamsRdm>:
	...
 800ac7c:	0800547f 	stmdaeq	r0, {r0, r1, r2, r3, r4, r5, r6, sl, ip, lr}
 800ac80:	08005481 	stmdaeq	r0, {r0, r7, sl, ip, lr}
 800ac84:	08005469 	stmdaeq	r0, {r0, r3, r5, r6, sl, ip, lr}
 800ac88:	08005469 	stmdaeq	r0, {r0, r3, r5, r6, sl, ip, lr}
 800ac8c:	0800549d 	stmdaeq	r0, {r0, r2, r3, r4, r7, sl, ip, lr}
 800ac90:	08005459 	stmdaeq	r0, {r0, r3, r4, r6, sl, ip, lr}
 800ac94:	0800545b 	stmdaeq	r0, {r0, r1, r3, r4, r6, sl, ip, lr}
 800ac98:	08005453 	stmdaeq	r0, {r0, r1, r4, r6, sl, ip, lr}
 800ac9c:	08005455 	stmdaeq	r0, {r0, r2, r4, r6, sl, ip, lr}
 800aca0:	08005457 	stmdaeq	r0, {r0, r1, r2, r4, r6, sl, ip, lr}
 800aca4:	0800545d 	stmdaeq	r0, {r0, r2, r3, r4, r6, sl, ip, lr}
 800aca8:	08005461 	stmdaeq	r0, {r0, r5, r6, sl, ip, lr}
 800acac:	08005465 	stmdaeq	r0, {r0, r2, r5, r6, sl, ip, lr}
 800acb0:	0800546b 	stmdaeq	r0, {r0, r1, r3, r5, r6, sl, ip, lr}

0800acb4 <vtable for WS28xxDmx>:
	...
 800acbc:	080055cd 	stmdaeq	r0, {r0, r2, r3, r6, r7, r8, sl, ip, lr}
 800acc0:	08005dd5 	stmdaeq	r0, {r0, r2, r4, r6, r7, r8, sl, fp, ip, lr}
 800acc4:	08005599 	stmdaeq	r0, {r0, r3, r4, r7, r8, sl, ip, lr}
 800acc8:	080055b5 	stmdaeq	r0, {r0, r2, r4, r5, r7, r8, sl, ip, lr}
 800accc:	080055fd 	stmdaeq	r0, {r0, r2, r3, r4, r5, r6, r7, r8, sl, ip, lr}
 800acd0:	08005585 	stmdaeq	r0, {r0, r2, r7, r8, sl, ip, lr}
 800acd4:	080055f1 	stmdaeq	r0, {r0, r4, r5, r6, r7, r8, sl, ip, lr}
 800acd8:	08005d69 	stmdaeq	r0, {r0, r3, r5, r6, r8, sl, fp, ip, lr}
 800acdc:	08005ced 	stmdaeq	r0, {r0, r2, r3, r5, r6, r7, sl, fp, ip, lr}
 800ace0:	08005d61 	stmdaeq	r0, {r0, r5, r6, r8, sl, fp, ip, lr}
 800ace4:	08005d05 	stmdaeq	r0, {r0, r2, r8, sl, fp, ip, lr}
 800ace8:	08005589 	stmdaeq	r0, {r0, r3, r7, r8, sl, ip, lr}
 800acec:	08005591 	stmdaeq	r0, {r0, r4, r7, r8, sl, ip, lr}
 800acf0:	08005d91 	stmdaeq	r0, {r0, r4, r7, r8, sl, fp, ip, lr}

0800acf4 <RDMHandler::PARAMETER_DESCRIPTIONS>:
 800acf4:	02200085 	eoreq	r0, r0, #133	; 0x85
 800acf8:	00000001 	andeq	r0, r0, r1
	...
 800ad08:	0800ad83 	stmdaeq	r0, {r0, r1, r7, r8, sl, fp, sp, pc}
 800ad0c:	0201851f 	andeq	r8, r1, #130023424	; 0x7c00000
 800ad10:	00000105 	andeq	r0, r0, r5, lsl #2
	...
 800ad1c:	020000aa 	andeq	r0, r0, #170	; 0xaa
 800ad20:	00ad77a8 	adceq	r7, sp, r8, lsr #15
 800ad24:	02852008 	addeq	r2, r5, #8
 800ad28:	00010502 	andeq	r0, r1, r2, lsl #10
	...
 800ad34:	0000aa00 	andeq	sl, r0, r0, lsl #20
 800ad38:	ad62a802 	stclge	8, cr10, [r2, #-8]!
 800ad3c:	85290800 	strhi	r0, [r9, #-2048]!	; 0xfffff800
 800ad40:	01022003 	tsteq	r2, r3
	...
 800ad50:	58000000 	stmdapl	r0, {}	; <UNPREDICTABLE>
 800ad54:	1e0800ad 	cdpne	0, 0, cr0, cr8, cr13, {5}

0800ad58 <rdm::PixelMap::description>:
 800ad58:	65786950 	ldrbvs	r6, [r8, #-2384]!	; 0xfffff6b0
 800ad5c:	616d206c 	cmnvs	sp, ip, rrx
 800ad60:	 	ldmdbvs	r0, {r4, r5, r6}^

0800ad62 <rdm::PixelGroupingCount::description>:
 800ad62:	65786950 	ldrbvs	r6, [r8, #-2384]!	; 0xfffff6b0
 800ad66:	7267206c 	rsbvc	r2, r7, #108	; 0x6c
 800ad6a:	6970756f 	ldmdbvs	r0!, {r0, r1, r2, r3, r5, r6, r8, sl, ip, sp, lr}^
 800ad6e:	6320676e 			; <UNDEFINED> instruction: 0x6320676e
 800ad72:	746e756f 	strbtvc	r7, [lr], #-1391	; 0xfffffa91
	...

0800ad77 <rdm::PixelCount::description>:
 800ad77:	65786950 	ldrbvs	r6, [r8, #-2384]!	; 0xfffff6b0
 800ad7b:	6f63206c 	svcvs	0x0063206c
 800ad7f:	00746e75 	rsbseq	r6, r4, r5, ror lr

0800ad83 <rdm::PixelType::description>:
 800ad83:	65786950 	ldrbvs	r6, [r8, #-2384]!	; 0xfffff6b0
 800ad87:	7974206c 	ldmdbvc	r4!, {r2, r3, r5, r6, sp}^
 800ad8b:	59006570 	stmdbpl	r0, {r4, r5, r6, r8, sl, sp, lr}
 800ad8f:	4e007365 	cdpmi	3, 0, cr7, cr0, cr5, {3}
 800ad93:	6950006f 	ldmdbvs	r0, {r0, r1, r2, r3, r5, r6}^
 800ad97:	206c6578 	rsbcs	r6, ip, r8, ror r5
 800ad9b:	666e6f63 	strbtvs	r6, [lr], -r3, ror #30
 800ad9f:	72756769 	rsbsvc	r6, r5, #27525120	; 0x1a40000
 800ada3:	6f697461 	svcvs	0x00697461
 800ada7:	5420006e 	strtpl	r0, [r0], #-110	; 0xffffff92
 800adab:	20657079 	rsbcs	r7, r5, r9, ror r0
 800adaf:	3a202020 	bcc	8812e37 <_sidata+0x807113>
 800adb3:	20732520 	rsbscs	r2, r3, r0, lsr #10
 800adb7:	5d64255b 	cfstr64pl	mvdx2, [r4, #-364]!	; 0xfffffe94
 800adbb:	4320000a 			; <UNDEFINED> instruction: 0x4320000a
 800adbf:	746e756f 	strbtvc	r7, [lr], #-1391	; 0xfffffa91
 800adc3:	3a202020 	bcc	8812e4b <_sidata+0x807127>
 800adc7:	0a642520 	beq	991424f <_sidata+0x190852b>
 800adcb:	614d2000 	mrsvs	r2, (UNDEF: 77)
 800adcf:	6e697070 	mcrvs	0, 3, r7, cr9, cr0, {3}
 800add3:	203a2067 	eorscs	r2, sl, r7, rrx
 800add7:	5b207325 	blpl	8827a73 <_sidata+0x81bd4f>
 800addb:	0a5d6425 	beq	9763e77 <_sidata+0x1758153>
 800addf:	30542000 	subscc	r2, r4, r0
 800ade3:	20202048 	eorcs	r2, r0, r8, asr #32
 800ade7:	203a2020 	eorscs	r2, sl, r0, lsr #32
 800adeb:	66322e25 	ldrtvs	r2, [r2], -r5, lsr #28
 800adef:	78305b20 	ldmdavc	r0!, {r5, r8, r9, fp, ip, lr}
 800adf3:	0a5d5825 	beq	9760e8f <_sidata+0x175516b>
 800adf7:	31542000 	cmpcc	r4, r0
 800adfb:	20202048 	eorcs	r2, r0, r8, asr #32
 800adff:	203a2020 	eorscs	r2, sl, r0, lsr #32
 800ae03:	66322e25 	ldrtvs	r2, [r2], -r5, lsr #28
 800ae07:	78305b20 	ldmdavc	r0!, {r5, r8, r9, fp, ip, lr}
 800ae0b:	0a5d5825 	beq	9760ea7 <_sidata+0x1755183>
 800ae0f:	6c472000 	marvs	acc0, r2, r7
 800ae13:	6c61626f 	sfmvs	f6, 2, [r1], #-444	; 0xfffffe44
 800ae17:	67697242 	strbvs	r7, [r9, -r2, asr #4]!
 800ae1b:	656e7468 	strbvs	r7, [lr, #-1128]!	; 0xfffffb98
 800ae1f:	203a7373 	eorscs	r7, sl, r3, ror r3
 800ae23:	000a7525 	andeq	r7, sl, r5, lsr #10
 800ae27:	6d614720 	stclvs	7, cr4, [r1, #-128]!	; 0xffffff80
 800ae2b:	6320616d 			; <UNDEFINED> instruction: 0x6320616d
 800ae2f:	6572726f 	ldrbvs	r7, [r2, #-623]!	; 0xfffffd91
 800ae33:	6f697463 	svcvs	0x00697463
 800ae37:	7325206e 			; <UNDEFINED> instruction: 0x7325206e
 800ae3b:	4320000a 			; <UNDEFINED> instruction: 0x4320000a
 800ae3f:	6b636f6c 	blvs	98e6bf7 <_sidata+0x18daed3>
 800ae43:	7525203a 	strvc	r2, [r5, #-58]!	; 0xffffffc6
 800ae47:	0a7a4820 	beq	9e9cecf <_sidata+0x1e911ab>
	...

0800ae4c <CSWTCH.9>:
 800ae4c:	0800b360 	stmdaeq	r0, {r5, r6, r8, r9, ip, sp, pc}
 800ae50:	0800b260 	stmdaeq	r0, {r5, r6, r9, ip, sp, pc}
 800ae54:	0800b160 	stmdaeq	r0, {r5, r6, r8, ip, sp, pc}
 800ae58:	0800b060 	stmdaeq	r0, {r5, r6, ip, sp, pc}
 800ae5c:	0800af60 	stmdaeq	r0, {r5, r6, r8, r9, sl, fp, sp, pc}

0800ae60 <gamma25_5>:
 800ae60:	01010100 	mrseq	r0, (UNDEF: 17)
 800ae64:	01010101 	tsteq	r1, r1, lsl #2
 800ae68:	01010101 	tsteq	r1, r1, lsl #2
 800ae6c:	01010101 	tsteq	r1, r1, lsl #2
 800ae70:	01010101 	tsteq	r1, r1, lsl #2
 800ae74:	01010101 	tsteq	r1, r1, lsl #2
 800ae78:	01010101 	tsteq	r1, r1, lsl #2
 800ae7c:	02020202 	andeq	r0, r2, #536870912	; 0x20000000
 800ae80:	02020202 	andeq	r0, r2, #536870912	; 0x20000000
 800ae84:	03030302 	movweq	r0, #13058	; 0x3302
 800ae88:	03030303 	movweq	r0, #13059	; 0x3303
 800ae8c:	04040404 	streq	r0, [r4], #-1028	; 0xfffffbfc
 800ae90:	05050504 	streq	r0, [r5, #-1284]	; 0xfffffafc
 800ae94:	06060605 	streq	r0, [r6], -r5, lsl #12
 800ae98:	07070706 	streq	r0, [r7, -r6, lsl #14]
 800ae9c:	08080807 	stmdaeq	r8, {r0, r1, r2, fp}
 800aea0:	0a090909 	beq	824d2cc <_sidata+0x2415a8>
 800aea4:	0b0b0a0a 	bleq	82cd6d4 <_sidata+0x2c19b0>
 800aea8:	0c0c0c0b 	stceq	12, cr0, [ip], {11}
 800aeac:	0e0e0d0d 	cdpeq	13, 0, cr0, cr14, cr13, {0}
 800aeb0:	100f0f0f 	andne	r0, pc, pc, lsl #30
 800aeb4:	12111110 	andsne	r1, r1, #16, 2
 800aeb8:	14131312 	ldrne	r1, [r3], #-786	; 0xfffffcee
 800aebc:	16161514 			; <UNDEFINED> instruction: 0x16161514
 800aec0:	18181717 	ldmdane	r8, {r0, r1, r2, r4, r8, r9, sl, ip}
 800aec4:	1b1a1a19 	blne	8691730 <_sidata+0x685a0c>
 800aec8:	1e1d1c1c 	mrcne	12, 0, r1, cr13, cr12, {0}
 800aecc:	20201f1e 	eorcs	r1, r0, lr, lsl pc
 800aed0:	23232221 			; <UNDEFINED> instruction: 0x23232221
 800aed4:	26262524 	strtcs	r2, [r6], -r4, lsr #10
 800aed8:	2a292827 	bcs	8a54f7c <_sidata+0xa49258>
 800aedc:	2d2c2b2b 	fstmdbxcs	ip!, {d2-d22}	;@ Deprecated
 800aee0:	31302f2e 	teqcc	r0, lr, lsr #30
 800aee4:	35343332 	ldrcc	r3, [r4, #-818]!	; 0xfffffcce
 800aee8:	38373635 	ldmdacc	r7!, {r0, r2, r4, r5, r9, sl, ip, sp}
 800aeec:	3d3c3a39 	vldmdbcc	ip!, {s6-s62}
 800aef0:	41403f3e 	cmpmi	r0, lr, lsr pc
 800aef4:	45444342 	strbmi	r4, [r4, #-834]	; 0xfffffcbe
 800aef8:	4a494846 	bmi	925d018 <_sidata+0x12512f4>
 800aefc:	4f4e4c4b 	svcmi	0x004e4c4b
 800af00:	54535150 	ldrbpl	r5, [r3], #-336	; 0xfffffeb0
 800af04:	59585655 	ldmdbpl	r8, {r0, r2, r4, r6, r9, sl, ip, lr}^
 800af08:	5e5d5c5a 	mrcpl	12, 2, r5, cr13, cr10, {2}
 800af0c:	64636160 	strbtvs	r6, [r3], #-352	; 0xfffffea0
 800af10:	6a686765 	bvs	9a24cac <_sidata+0x1a18f88>
 800af14:	706e6d6b 	rsbvc	r6, lr, fp, ror #26
 800af18:	76747371 			; <UNDEFINED> instruction: 0x76747371
 800af1c:	7c7b7978 			; <UNDEFINED> instruction: 0x7c7b7978
 800af20:	8381807e 	orrhi	r8, r1, #126	; 0x7e
 800af24:	8a888685 	bhi	622c940 <__heap_size+0x622b940>
 800af28:	918f8d8b 	orrls	r8, pc, fp, lsl #27
 800af2c:	98969492 	ldmls	r6, {r1, r4, r7, sl, ip, pc}
 800af30:	9f9d9c9a 	svcls	0x009d9c9a
 800af34:	a7a5a3a1 	strge	sl, [r5, r1, lsr #7]!
 800af38:	afadaba9 	svcge	0x00adaba9
 800af3c:	b7b5b3b1 			; <UNDEFINED> instruction: 0xb7b5b3b1
 800af40:	bfbdbbb9 	svclt	0x00bdbbb9
 800af44:	c8c6c3c1 	stmiagt	r6, {r0, r6, r7, r8, r9, lr, pc}^
 800af48:	d0ceccca 	sbcle	ip, lr, sl, asr #25
 800af4c:	d9d7d5d3 	ldmible	r7, {r0, r1, r4, r6, r7, r8, sl, ip, lr, pc}^
 800af50:	e3e0dedc 	mvn	sp, #220, 28	; 0xdc0
 800af54:	eceae7e5 	stcl	7, cr14, [sl], #916	; 0x394
 800af58:	f6f3f1ee 			; <UNDEFINED> instruction: 0xf6f3f1ee
 800af5c:	fffdfbf8 			; <UNDEFINED> instruction: 0xfffdfbf8

0800af60 <gamma25_0>:
	...
 800af74:	01010000 	mrseq	r0, (UNDEF: 1)
 800af78:	01010101 	tsteq	r1, r1, lsl #2
 800af7c:	01010101 	tsteq	r1, r1, lsl #2
 800af80:	02020201 	andeq	r0, r2, #268435456	; 0x10000000
 800af84:	02020202 	andeq	r0, r2, #536870912	; 0x20000000
 800af88:	03030302 	movweq	r0, #13058	; 0x3302
 800af8c:	04040303 	streq	r0, [r4], #-771	; 0xfffffcfd
 800af90:	05040404 	streq	r0, [r4, #-1028]	; 0xfffffbfc
 800af94:	06050505 	streq	r0, [r5], -r5, lsl #10
 800af98:	07060606 	streq	r0, [r6, -r6, lsl #12]
 800af9c:	08070707 	stmdaeq	r7, {r0, r1, r2, r8, r9, sl}
 800afa0:	09090808 	stmdbeq	r9, {r3, fp}
 800afa4:	0a0a0a09 	beq	828d7d0 <_sidata+0x281aac>
 800afa8:	0c0c0b0b 			; <UNDEFINED> instruction: 0x0c0c0b0b
 800afac:	0e0d0d0c 	cdpeq	13, 0, cr0, cr13, cr12, {0}
 800afb0:	0f0f0f0e 	svceq	0x000f0f0e
 800afb4:	11111010 	tstne	r1, r0, lsl r0
 800afb8:	13131212 	tstne	r3, #536870913	; 0x20000001
 800afbc:	16151414 			; <UNDEFINED> instruction: 0x16151414
 800afc0:	18171716 	ldmdane	r7, {r1, r2, r4, r8, r9, sl, ip}
 800afc4:	1a1a1919 	bne	8691430 <_sidata+0x68570c>
 800afc8:	1d1c1c1b 	ldcne	12, cr1, [ip, #-108]	; 0xffffff94
 800afcc:	201f1e1e 	andscs	r1, pc, lr, lsl lr	; <UNPREDICTABLE>
 800afd0:	23222121 			; <UNDEFINED> instruction: 0x23222121
 800afd4:	26252424 	strtcs	r2, [r5], -r4, lsr #8
 800afd8:	29282827 	stmdbcs	r8!, {r0, r1, r2, r5, fp, sp}
 800afdc:	2d2c2b2a 	vstmdbcs	ip!, {d2-d22}
 800afe0:	302f2e2e 	eorcc	r2, pc, lr, lsr #28
 800afe4:	34333231 	ldrtcc	r3, [r3], #-561	; 0xfffffdcf
 800afe8:	38373635 	ldmdacc	r7!, {r0, r2, r4, r5, r9, sl, ip, sp}
 800afec:	3c3b3a39 			; <UNDEFINED> instruction: 0x3c3b3a39
 800aff0:	403f3e3d 	eorsmi	r3, pc, sp, lsr lr	; <UNPREDICTABLE>
 800aff4:	45444341 	strbmi	r4, [r4, #-833]	; 0xfffffcbf
 800aff8:	49484746 	stmdbmi	r8, {r1, r2, r6, r8, r9, sl, lr}^
 800affc:	4e4d4c4b 	cdpmi	12, 4, cr4, cr13, cr11, {2}
 800b000:	53525150 	cmppl	r2, #80, 2
 800b004:	59575655 	ldmdbpl	r7, {r0, r2, r4, r6, r9, sl, ip, lr}^
 800b008:	5e5d5b5a 	vmovpl.s8	r5, d13[2]
 800b00c:	6362615f 	cmnvs	r2, #-1073741801	; 0xc0000017
 800b010:	69686665 	stmdbvs	r8!, {r0, r2, r5, r6, r9, sl, sp, lr}^
 800b014:	6f6e6c6b 	svcvs	0x006e6c6b
 800b018:	75747271 	ldrbvc	r7, [r4, #-625]!	; 0xfffffd8f
 800b01c:	7c7a7977 			; <UNDEFINED> instruction: 0x7c7a7977
 800b020:	82817f7d 	addhi	r7, r1, #500	; 0x1f4
 800b024:	89878684 	stmibhi	r7, {r2, r7, r9, sl, pc}
 800b028:	908e8d8b 	addls	r8, lr, fp, lsl #27
 800b02c:	97969492 			; <UNDEFINED> instruction: 0x97969492
 800b030:	9f9d9b99 	svcls	0x009d9b99
 800b034:	a6a5a3a1 	strtge	sl, [r5], r1, lsr #7
 800b038:	aeacaaa8 	vfmage.f32	s20, s25, s17
 800b03c:	b6b4b2b0 			; <UNDEFINED> instruction: 0xb6b4b2b0
 800b040:	bfbdbab8 	svclt	0x00bdbab8
 800b044:	c7c5c3c1 	strbgt	ip, [r5, r1, asr #7]
 800b048:	d0ceccc9 	sbcle	ip, lr, r9, asr #25
 800b04c:	d9d7d4d2 	ldmible	r7, {r1, r4, r6, r7, sl, ip, lr, pc}^
 800b050:	e2e0dddb 	rsc	sp, r0, #14016	; 0x36c0
 800b054:	ebe9e7e4 	bl	7a84fec <__heap_size+0x7a83fec>
 800b058:	f5f3f0ee 			; <UNDEFINED> instruction: 0xf5f3f0ee
 800b05c:	fffdfaf8 			; <UNDEFINED> instruction: 0xfffdfaf8

0800b060 <gamma24_0>:
	...
 800b070:	01000000 	mrseq	r0, (UNDEF: 0)
 800b074:	01010101 	tsteq	r1, r1, lsl #2
 800b078:	01010101 	tsteq	r1, r1, lsl #2
 800b07c:	02010101 	andeq	r0, r1, #1073741824	; 0x40000000
 800b080:	02020202 	andeq	r0, r2, #536870912	; 0x20000000
 800b084:	03030202 	movweq	r0, #12802	; 0x3202
 800b088:	04030303 	streq	r0, [r3], #-771	; 0xfffffcfd
 800b08c:	04040404 	streq	r0, [r4], #-1028	; 0xfffffbfc
 800b090:	05050505 	streq	r0, [r5, #-1285]	; 0xfffffafb
 800b094:	06060606 	streq	r0, [r6], -r6, lsl #12
 800b098:	08070707 	stmdaeq	r7, {r0, r1, r2, r8, r9, sl}
 800b09c:	09090808 	stmdbeq	r9, {r3, fp}
 800b0a0:	0a0a0a09 	beq	828d8cc <_sidata+0x281ba8>
 800b0a4:	0c0b0b0b 			; <UNDEFINED> instruction: 0x0c0b0b0b
 800b0a8:	0e0d0d0c 	cdpeq	13, 0, cr0, cr13, cr12, {0}
 800b0ac:	0f0f0e0e 	svceq	0x000f0e0e
 800b0b0:	11111010 	tstne	r1, r0, lsl r0
 800b0b4:	13131212 	tstne	r3, #536870913	; 0x20000001
 800b0b8:	16151414 			; <UNDEFINED> instruction: 0x16151414
 800b0bc:	18171716 	ldmdane	r7, {r1, r2, r4, r8, r9, sl, ip}
 800b0c0:	1a1a1918 	bne	8691528 <_sidata+0x685804>
 800b0c4:	1d1c1c1b 	ldcne	12, cr1, [ip, #-108]	; 0xffffff94
 800b0c8:	201f1e1e 	andscs	r1, pc, lr, lsl lr	; <UNPREDICTABLE>
 800b0cc:	23222120 			; <UNDEFINED> instruction: 0x23222120
 800b0d0:	26252423 	strtcs	r2, [r5], -r3, lsr #8
 800b0d4:	29282727 	stmdbcs	r8!, {r0, r1, r2, r5, r8, r9, sl, sp}
 800b0d8:	2c2b2b2a 			; <UNDEFINED> instruction: 0x2c2b2b2a
 800b0dc:	302f2e2d 	eorcc	r2, pc, sp, lsr #28
 800b0e0:	34333231 	ldrtcc	r3, [r3], #-561	; 0xfffffdcf
 800b0e4:	37363535 			; <UNDEFINED> instruction: 0x37363535
 800b0e8:	3b3a3938 	blcc	8e995d0 <_sidata+0xe8d8ac>
 800b0ec:	403f3e3c 	eorsmi	r3, pc, ip, lsr lr	; <UNPREDICTABLE>
 800b0f0:	44434241 	strbmi	r4, [r3], #-577	; 0xfffffdbf
 800b0f4:	49474645 	stmdbmi	r7, {r0, r2, r6, r9, sl, lr}^
 800b0f8:	4d4c4b4a 	vstrmi	d20, [ip, #-296]	; 0xfffffed8
 800b0fc:	5251504e 	subspl	r5, r1, #78	; 0x4e
 800b100:	57565553 			; <UNDEFINED> instruction: 0x57565553
 800b104:	5c5b5a58 	mrrcpl	10, 5, r5, fp, cr8
 800b108:	62605f5e 	rsbvs	r5, r0, #376	; 0x178
 800b10c:	67666463 	strbvs	r6, [r6, -r3, ror #8]!
 800b110:	6d6c6a69 	vstmdbvs	ip!, {s13-s117}
 800b114:	7372706f 	cmnvc	r2, #111	; 0x6f
 800b118:	79787675 	ldmdbvc	r8!, {r0, r2, r4, r5, r6, r9, sl, ip, sp, lr}^
 800b11c:	7f7e7c7b 	svcvc	0x007e7c7b
 800b120:	86848381 	strhi	r8, [r4], r1, lsl #7
 800b124:	8d8b8988 	vstrhi.16	s16, [fp, #272]	; 0x110	; <UNPREDICTABLE>
 800b128:	9492908e 	ldrls	r9, [r2], #142	; 0x8e
 800b12c:	9b999795 	blls	6670f88 <__heap_size+0x666ff88>
 800b130:	a2a09e9c 	adcge	r9, r0, #156, 28	; 0x9c0
 800b134:	a9a7a6a4 	stmibge	r7!, {r2, r5, r7, r9, sl, sp, pc}
 800b138:	b1afadab 			; <UNDEFINED> instruction: 0xb1afadab
 800b13c:	b9b7b5b3 	ldmiblt	r7!, {r0, r1, r4, r5, r7, r8, sl, ip, sp, pc}
 800b140:	c1bfbdbb 			; <UNDEFINED> instruction: 0xc1bfbdbb
 800b144:	c9c7c5c3 	stmibgt	r7, {r0, r1, r6, r7, r8, sl, lr, pc}^
 800b148:	d2cfcdcb 	sbcle	ip, pc, #12992	; 0x32c0
 800b14c:	dad8d6d4 	ble	7640ca4 <__heap_size+0x763fca4>
 800b150:	e3e1dfdc 	mvn	sp, #220, 30	; 0x370
 800b154:	eceae8e5 	stcl	8, cr14, [sl], #916	; 0x394
 800b158:	f6f3f1ef 			; <UNDEFINED> instruction: 0xf6f3f1ef
 800b15c:	fffdfaf8 			; <UNDEFINED> instruction: 0xfffdfaf8

0800b160 <gamma23_0>:
	...
 800b170:	01010100 	mrseq	r0, (UNDEF: 17)
 800b174:	01010101 	tsteq	r1, r1, lsl #2
 800b178:	01010101 	tsteq	r1, r1, lsl #2
 800b17c:	02020202 	andeq	r0, r2, #536870912	; 0x20000000
 800b180:	03020202 	movweq	r0, #8706	; 0x2202
 800b184:	03030303 	movweq	r0, #13059	; 0x3303
 800b188:	04040404 	streq	r0, [r4], #-1028	; 0xfffffbfc
 800b18c:	05050504 	streq	r0, [r5, #-1284]	; 0xfffffafc
 800b190:	06060605 	streq	r0, [r6], -r5, lsl #12
 800b194:	07070707 	streq	r0, [r7, -r7, lsl #14]
 800b198:	09080808 	stmdbeq	r8, {r3, fp}
 800b19c:	0a0a0a09 	beq	828d9c8 <_sidata+0x281ca4>
 800b1a0:	0c0b0b0b 			; <UNDEFINED> instruction: 0x0c0b0b0b
 800b1a4:	0d0d0d0c 	stceq	13, cr0, [sp, #-48]	; 0xffffffd0
 800b1a8:	0f0f0e0e 	svceq	0x000f0e0e
 800b1ac:	11111010 	tstne	r1, r0, lsl r0
 800b1b0:	13131212 	tstne	r3, #536870913	; 0x20000001
 800b1b4:	15151414 	ldrne	r1, [r5, #-1044]	; 0xfffffbec
 800b1b8:	18171716 	ldmdane	r7, {r1, r2, r4, r8, r9, sl, ip}
 800b1bc:	1a1a1918 	bne	8691624 <_sidata+0x685900>
 800b1c0:	1d1c1c1b 	ldcne	12, cr1, [ip, #-108]	; 0xffffff94
 800b1c4:	201f1e1e 	andscs	r1, pc, lr, lsl lr	; <UNPREDICTABLE>
 800b1c8:	23222120 			; <UNDEFINED> instruction: 0x23222120
 800b1cc:	26252423 	strtcs	r2, [r5], -r3, lsr #8
 800b1d0:	29282726 	stmdbcs	r8!, {r1, r2, r5, r8, r9, sl, sp}
 800b1d4:	2c2b2a2a 			; <UNDEFINED> instruction: 0x2c2b2a2a
 800b1d8:	302f2e2d 	eorcc	r2, pc, sp, lsr #28
 800b1dc:	33323131 	teqcc	r2, #1073741836	; 0x4000000c
 800b1e0:	37363534 			; <UNDEFINED> instruction: 0x37363534
 800b1e4:	3b3a3938 	blcc	8e996cc <_sidata+0xe8d9a8>
 800b1e8:	3f3e3d3c 	svccc	0x003e3d3c
 800b1ec:	43424140 	movtmi	r4, #8512	; 0x2140
 800b1f0:	48474645 	stmdami	r7, {r0, r2, r6, r9, sl, lr}^
 800b1f4:	4c4b4a49 	mcrrmi	10, 4, r4, fp, cr9
 800b1f8:	51504f4e 	cmppl	r0, lr, asr #30
 800b1fc:	56555452 			; <UNDEFINED> instruction: 0x56555452
 800b200:	5b5a5957 	blpl	96a1764 <_sidata+0x1695a40>
 800b204:	605f5e5c 	subsvs	r5, pc, ip, asr lr	; <UNPREDICTABLE>
 800b208:	66646362 	strbtvs	r6, [r4], -r2, ror #6
 800b20c:	6b6a6867 	blvs	9aa53b0 <_sidata+0x1a9968c>
 800b210:	71706e6d 	cmnvc	r0, sp, ror #28
 800b214:	77757472 			; <UNDEFINED> instruction: 0x77757472
 800b218:	7d7b7a78 	vldmdbvc	fp!, {s15-s134}
 800b21c:	8382807e 	orrhi	r8, r2, #126	; 0x7e
 800b220:	8a888685 	bhi	622cc3c <__heap_size+0x622bc3c>
 800b224:	908f8d8b 	addls	r8, pc, fp, lsl #27
 800b228:	97959492 			; <UNDEFINED> instruction: 0x97959492
 800b22c:	9e9c9a99 			; <UNDEFINED> instruction: 0x9e9c9a99
 800b230:	a5a3a1a0 	strge	sl, [r3, #416]!	; 0x1a0
 800b234:	acaaa9a7 			; <UNDEFINED> instruction: 0xacaaa9a7
 800b238:	b4b2b0ae 	ldrtlt	fp, [r2], #174	; 0xae
 800b23c:	bbb9b7b6 	bllt	6e7911c <__heap_size+0x6e7811c>
 800b240:	c3c1bfbd 	bicgt	fp, r1, #756	; 0x2f4
 800b244:	cbc9c7c5 	blgt	727d160 <__heap_size+0x727c160>
 800b248:	d3d1cfcd 	bicsle	ip, r1, #820	; 0x334
 800b24c:	dcdad7d5 	ldclle	7, cr13, [sl], {213}	; 0xd5
 800b250:	e4e2e0de 	strbt	lr, [r2], #222	; 0xde
 800b254:	edebe9e6 			; <UNDEFINED> instruction: 0xedebe9e6
 800b258:	f6f4f1ef 			; <UNDEFINED> instruction: 0xf6f4f1ef
 800b25c:	fffdfaf8 			; <UNDEFINED> instruction: 0xfffdfaf8

0800b260 <gamma22_0>:
	...
 800b26c:	01000000 	mrseq	r0, (UNDEF: 0)
 800b270:	01010101 	tsteq	r1, r1, lsl #2
 800b274:	01010101 	tsteq	r1, r1, lsl #2
 800b278:	02020201 	andeq	r0, r2, #268435456	; 0x10000000
 800b27c:	02020202 	andeq	r0, r2, #536870912	; 0x20000000
 800b280:	03030303 	movweq	r0, #13059	; 0x3303
 800b284:	04040403 	streq	r0, [r4], #-1027	; 0xfffffbfd
 800b288:	05050504 	streq	r0, [r5, #-1284]	; 0xfffffafc
 800b28c:	06060605 	streq	r0, [r6], -r5, lsl #12
 800b290:	07070706 	streq	r0, [r7, -r6, lsl #14]
 800b294:	09080808 	stmdbeq	r8, {r3, fp}
 800b298:	0a0a0909 	beq	828d6c4 <_sidata+0x2819a0>
 800b29c:	0c0b0b0b 			; <UNDEFINED> instruction: 0x0c0b0b0b
 800b2a0:	0d0d0d0c 	stceq	13, cr0, [sp, #-48]	; 0xffffffd0
 800b2a4:	0f0f0e0e 	svceq	0x000f0e0e
 800b2a8:	11111010 	tstne	r1, r0, lsl r0
 800b2ac:	13131212 	tstne	r3, #536870913	; 0x20000001
 800b2b0:	16151414 			; <UNDEFINED> instruction: 0x16151414
 800b2b4:	18171716 	ldmdane	r7, {r1, r2, r4, r8, r9, sl, ip}
 800b2b8:	1a1a1919 	bne	8691724 <_sidata+0x685a00>
 800b2bc:	1d1c1c1b 	ldcne	12, cr1, [ip, #-108]	; 0xffffff94
 800b2c0:	201f1e1e 	andscs	r1, pc, lr, lsl lr	; <UNPREDICTABLE>
 800b2c4:	23222121 			; <UNDEFINED> instruction: 0x23222121
 800b2c8:	26252423 	strtcs	r2, [r5], -r3, lsr #8
 800b2cc:	29282727 	stmdbcs	r8!, {r0, r1, r2, r5, r8, r9, sl, sp}
 800b2d0:	2c2b2b2a 			; <UNDEFINED> instruction: 0x2c2b2b2a
 800b2d4:	302f2e2d 	eorcc	r2, pc, sp, lsr #28
 800b2d8:	33323131 	teqcc	r2, #1073741836	; 0x4000000c
 800b2dc:	37363534 			; <UNDEFINED> instruction: 0x37363534
 800b2e0:	3b3a3938 	blcc	8e997c8 <_sidata+0xe8daa4>
 800b2e4:	3f3e3d3c 	svccc	0x003e3d3c
 800b2e8:	43424140 	movtmi	r4, #8512	; 0x2140
 800b2ec:	47464544 	strbmi	r4, [r6, -r4, asr #10]
 800b2f0:	4c4b4a49 	mcrrmi	10, 4, r4, fp, cr9
 800b2f4:	514f4e4d 	cmppl	pc, sp, asr #28
 800b2f8:	55545352 	ldrbpl	r5, [r4, #-850]	; 0xfffffcae
 800b2fc:	5a595857 	bpl	9661460 <_sidata+0x165573c>
 800b300:	5f5e5d5b 	svcpl	0x005e5d5b
 800b304:	64636261 	strbtvs	r6, [r3], #-609	; 0xfffffd9f
 800b308:	6a696766 	bvs	9a650a8 <_sidata+0x1a59384>
 800b30c:	6f6e6d6b 	svcvs	0x006e6d6b
 800b310:	75747271 	ldrbvc	r7, [r4, #-625]!	; 0xfffffd8f
 800b314:	7b797877 	blvc	9e694f8 <_sidata+0x1e5d7d4>
 800b318:	817f7e7c 	cmnhi	pc, ip, ror lr	; <UNPREDICTABLE>
 800b31c:	87858482 	strhi	r8, [r5, r2, lsl #9]
 800b320:	8d8c8a89 	vstrhi	s16, [ip, #548]	; 0x224
 800b324:	9492918f 	ldrls	r9, [r2], #399	; 0x18f
 800b328:	9a999795 	bls	6671184 <__heap_size+0x6670184>
 800b32c:	a19f9e9c 			; <UNDEFINED> instruction: 0xa19f9e9c
 800b330:	a8a6a5a3 	stmiage	r6!, {r0, r1, r5, r7, r8, sl, sp, pc}
 800b334:	afadacaa 	svcge	0x00adacaa
 800b338:	b6b5b3b1 			; <UNDEFINED> instruction: 0xb6b5b3b1
 800b33c:	bebcbab8 			; <UNDEFINED> instruction: 0xbebcbab8
 800b340:	c5c4c2c0 	strbgt	ip, [r4, #704]	; 0x2c0
 800b344:	cdcbc9c7 	vstrgt.16	s25, [fp, #398]	; 0x18e	; <UNPREDICTABLE>
 800b348:	d5d3d1cf 	ldrble	sp, [r3, #463]	; 0x1cf
 800b34c:	dddbd9d7 	vldrle.16	s27, [fp, #430]	; 0x1ae	; <UNPREDICTABLE>
 800b350:	e5e3e1df 	strb	lr, [r3, #479]!	; 0x1df
 800b354:	eeeceae7 	vfms.f32	s29, s25, s15
 800b358:	f6f4f2f0 			; <UNDEFINED> instruction: 0xf6f4f2f0
 800b35c:	fffdfbf8 			; <UNDEFINED> instruction: 0xfffdfbf8

0800b360 <gamma21_0>:
	...
 800b36c:	01010000 	mrseq	r0, (UNDEF: 1)
 800b370:	01010101 	tsteq	r1, r1, lsl #2
 800b374:	02010101 	andeq	r0, r1, #1073741824	; 0x40000000
 800b378:	02020202 	andeq	r0, r2, #536870912	; 0x20000000
 800b37c:	03030302 	movweq	r0, #13058	; 0x3302
 800b380:	04040303 	streq	r0, [r4], #-771	; 0xfffffcfd
 800b384:	05050404 	streq	r0, [r5, #-1028]	; 0xfffffbfc
 800b388:	06060505 	streq	r0, [r6], -r5, lsl #10
 800b38c:	07070706 	streq	r0, [r7, -r6, lsl #14]
 800b390:	09080808 	stmdbeq	r8, {r3, fp}
 800b394:	0a0a0909 	beq	828d7c0 <_sidata+0x281a9c>
 800b398:	0c0b0b0b 			; <UNDEFINED> instruction: 0x0c0b0b0b
 800b39c:	0e0d0d0c 	cdpeq	13, 0, cr0, cr13, cr12, {0}
 800b3a0:	0f0f0e0e 	svceq	0x000f0e0e
 800b3a4:	11111010 	tstne	r1, r0, lsl r0
 800b3a8:	14131212 	ldrne	r1, [r3], #-530	; 0xfffffdee
 800b3ac:	16151514 			; <UNDEFINED> instruction: 0x16151514
 800b3b0:	18181716 	ldmdane	r8, {r1, r2, r4, r8, r9, sl, ip}
 800b3b4:	1b1a1919 	blne	8691820 <_sidata+0x685afc>
 800b3b8:	1d1d1c1b 	ldcne	12, cr1, [sp, #-108]	; 0xffffff94
 800b3bc:	201f1f1e 	andscs	r1, pc, lr, lsl pc	; <UNPREDICTABLE>
 800b3c0:	23222121 			; <UNDEFINED> instruction: 0x23222121
 800b3c4:	26252424 	strtcs	r2, [r5], -r4, lsr #8
 800b3c8:	29282827 	stmdbcs	r8!, {r0, r1, r2, r5, fp, sp}
 800b3cc:	2c2c2b2a 			; <UNDEFINED> instruction: 0x2c2c2b2a
 800b3d0:	302f2e2d 	eorcc	r2, pc, sp, lsr #28
 800b3d4:	33333231 	teqcc	r3, #268435459	; 0x10000003
 800b3d8:	37363534 			; <UNDEFINED> instruction: 0x37363534
 800b3dc:	3b3a3938 	blcc	8e998c4 <_sidata+0xe8dba0>
 800b3e0:	3f3e3d3c 	svccc	0x003e3d3c
 800b3e4:	43424140 	movtmi	r4, #8512	; 0x2140
 800b3e8:	47464544 	strbmi	r4, [r6, -r4, asr #10]
 800b3ec:	4c4b4948 	mcrrmi	9, 4, r4, fp, cr8	; <UNPREDICTABLE>
 800b3f0:	504f4e4d 	subpl	r4, pc, sp, asr #28
 800b3f4:	55545351 	ldrbpl	r5, [r4, #-849]	; 0xfffffcaf
 800b3f8:	5a585756 	bpl	9621158 <_sidata+0x1615434>
 800b3fc:	5f5d5c5b 	svcpl	0x005d5c5b
 800b400:	64626160 	strbtvs	r6, [r2], #-352	; 0xfffffea0
 800b404:	69686665 	stmdbvs	r8!, {r0, r2, r5, r6, r9, sl, sp, lr}^
 800b408:	6e6d6b6a 	vnmulvs.f64	d22, d13, d26
 800b40c:	74727170 	ldrbtvc	r7, [r2], #-368	; 0xfffffe90
 800b410:	79787675 	ldmdbvc	r8!, {r0, r2, r4, r5, r6, r9, sl, ip, sp, lr}^
 800b414:	7f7e7c7b 	svcvc	0x007e7c7b
 800b418:	85838281 	strhi	r8, [r3, #641]	; 0x281
 800b41c:	8b898886 	blhi	626d63c <__heap_size+0x626c63c>
 800b420:	91908e8d 	orrsls	r8, r0, sp, lsl #29
 800b424:	97969493 			; <UNDEFINED> instruction: 0x97969493
 800b428:	9e9c9b99 	vmovls.32	r9, d28[0]
 800b42c:	a5a3a1a0 	strge	sl, [r3, #416]!	; 0x1a0
 800b430:	abaaa8a6 	blge	6ab56d0 <__heap_size+0x6ab46d0>
 800b434:	b2b0afad 	adcslt	sl, r0, #692	; 0x2b4
 800b438:	b9b7b6b4 	ldmiblt	r7!, {r2, r4, r5, r7, r9, sl, ip, sp, pc}
 800b43c:	c0bfbdbb 	ldrhtgt	fp, [pc], fp
 800b440:	c8c6c4c2 	stmiagt	r6, {r1, r6, r7, sl, lr, pc}^
 800b444:	cfcdcbca 	svcgt	0x00cdcbca
 800b448:	d7d5d3d1 			; <UNDEFINED> instruction: 0xd7d5d3d1
 800b44c:	dfdddbd9 	svcle	0x00dddbd9
 800b450:	e6e4e2e1 	strbt	lr, [r4], r1, ror #5
 800b454:	eeeceae8 	vfms.f32	s29, s25, s17
 800b458:	f7f5f3f1 			; <UNDEFINED> instruction: 0xf7f5f3f1
 800b45c:	fffdfbf9 			; <UNDEFINED> instruction: 0xfffdfbf9

0800b460 <gamma20_0>:
	...
 800b46c:	01010101 	tsteq	r1, r1, lsl #2
 800b470:	01010101 	tsteq	r1, r1, lsl #2
 800b474:	02020202 	andeq	r0, r2, #536870912	; 0x20000000
 800b478:	03030202 	movweq	r0, #12802	; 0x3202
 800b47c:	04040303 	streq	r0, [r4], #-771	; 0xfffffcfd
 800b480:	05050404 	streq	r0, [r5, #-1028]	; 0xfffffbfc
 800b484:	06060505 	streq	r0, [r6], -r5, lsl #10
 800b488:	07070706 	streq	r0, [r7, -r6, lsl #14]
 800b48c:	09080808 	stmdbeq	r8, {r3, fp}
 800b490:	0a0a0909 	beq	828d8bc <_sidata+0x281b98>
 800b494:	0c0b0b0b 			; <UNDEFINED> instruction: 0x0c0b0b0b
 800b498:	0e0d0d0c 	cdpeq	13, 0, cr0, cr13, cr12, {0}
 800b49c:	100f0f0e 	andne	r0, pc, lr, lsl #30
 800b4a0:	12111110 	andsne	r1, r1, #16, 2
 800b4a4:	14131312 	ldrne	r1, [r3], #-786	; 0xfffffcee
 800b4a8:	16151514 			; <UNDEFINED> instruction: 0x16151514
 800b4ac:	18181717 	ldmdane	r8, {r0, r1, r2, r4, r8, r9, sl, ip}
 800b4b0:	1b1a1a19 	blne	8691d1c <_sidata+0x685ff8>
 800b4b4:	1e1d1c1c 	mrcne	12, 0, r1, cr13, cr12, {0}
 800b4b8:	20201f1e 	eorcs	r1, r0, lr, lsl pc
 800b4bc:	23232221 			; <UNDEFINED> instruction: 0x23232221
 800b4c0:	26262524 	strtcs	r2, [r6], -r4, lsr #10
 800b4c4:	2a292827 	bcs	8a55568 <_sidata+0xa49844>
 800b4c8:	2d2c2b2a 	vstmdbcs	ip!, {d2-d22}
 800b4cc:	302f2f2e 	eorcc	r2, pc, lr, lsr #30
 800b4d0:	34333231 	ldrtcc	r3, [r3], #-561	; 0xfffffdcf
 800b4d4:	38373635 	ldmdacc	r7!, {r0, r2, r4, r5, r9, sl, ip, sp}
 800b4d8:	3b3a3938 	blcc	8e999c0 <_sidata+0xe8dc9c>
 800b4dc:	3f3e3d3c 	svccc	0x003e3d3c
 800b4e0:	43424140 	movtmi	r4, #8512	; 0x2140
 800b4e4:	47464544 	strbmi	r4, [r6, -r4, asr #10]
 800b4e8:	4c4b4a49 	mcrrmi	10, 4, r4, fp, cr9
 800b4ec:	504f4e4d 	subpl	r4, pc, sp, asr #28
 800b4f0:	55545251 	ldrbpl	r5, [r4, #-593]	; 0xfffffdaf
 800b4f4:	59585756 	ldmdbpl	r8, {r1, r2, r4, r6, r8, r9, sl, ip, lr}^
 800b4f8:	5e5d5c5b 	mrcpl	12, 2, r5, cr13, cr11, {2}
 800b4fc:	6362615f 	cmnvs	r2, #-1073741801	; 0xc0000017
 800b500:	68676664 	stmdavs	r7!, {r2, r5, r6, r9, sl, sp, lr}^
 800b504:	6d6c6b69 	fstmdbxvs	ip!, {d22-d73}	;@ Deprecated
 800b508:	7371706f 	cmnvc	r1, #111	; 0x6f
 800b50c:	78777574 	ldmdavc	r7!, {r2, r4, r5, r6, r8, sl, ip, sp, lr}^
 800b510:	7e7c7b79 	vmovvc.s8	r7, d12[7]
 800b514:	8382807f 	orrhi	r8, r2, #127	; 0x7f
 800b518:	89888685 	stmibhi	r8, {r0, r2, r7, r9, sl, pc}
 800b51c:	8f8e8c8b 	svchi	0x008e8c8b
 800b520:	95949291 	ldrls	r9, [r4, #657]	; 0x291
 800b524:	9b9a9897 	blls	66b1788 <__heap_size+0x66b0788>
 800b528:	a2a09e9d 	adcge	r9, r0, #2512	; 0x9d0
 800b52c:	a8a6a5a3 	stmiage	r6!, {r0, r1, r5, r7, r8, sl, sp, pc}
 800b530:	afadabaa 	svcge	0x00adabaa
 800b534:	b5b4b2b0 	ldrlt	fp, [r4, #688]!	; 0x2b0
 800b538:	bcbab9b7 			; <UNDEFINED> instruction: 0xbcbab9b7
 800b53c:	c3c1c0be 	bicgt	ip, r1, #190	; 0xbe
 800b540:	cac8c7c5 	bgt	723d45c <__heap_size+0x723c45c>
 800b544:	d1cfcecc 	bicle	ip, pc, ip, asr #29
 800b548:	d9d7d5d3 	ldmible	r7, {r0, r1, r4, r6, r7, r8, sl, ip, lr, pc}^
 800b54c:	e0dedcda 	ldrsb	sp, [lr], #202	; 0xca
 800b550:	e8e6e4e2 	stmia	r6!, {r1, r5, r6, r7, sl, sp, lr, pc}^
 800b554:	efedebe9 	svc	0x00edebe9
 800b558:	f7f5f3f1 			; <UNDEFINED> instruction: 0xf7f5f3f1
 800b55c:	fffdfbf9 			; <UNDEFINED> instruction: 0xfffdfbf9

0800b560 <gamma10_0>:
 800b560:	03020100 	movweq	r0, #8448	; 0x2100
 800b564:	07060504 	streq	r0, [r6, -r4, lsl #10]
 800b568:	0b0a0908 	bleq	828d990 <_sidata+0x281c6c>
 800b56c:	0f0e0d0c 	svceq	0x000e0d0c
 800b570:	13121110 	tstne	r2, #16, 2
 800b574:	17161514 			; <UNDEFINED> instruction: 0x17161514
 800b578:	1b1a1918 	blne	86919e0 <_sidata+0x685cbc>
 800b57c:	1f1e1d1c 	svcne	0x001e1d1c
 800b580:	23222120 			; <UNDEFINED> instruction: 0x23222120
 800b584:	27262524 	strcs	r2, [r6, -r4, lsr #10]!
 800b588:	2b2a2928 	blcs	8a95a30 <_sidata+0xa89d0c>
 800b58c:	2f2e2d2c 	svccs	0x002e2d2c
 800b590:	33323130 	teqcc	r2, #48, 2
 800b594:	37363534 			; <UNDEFINED> instruction: 0x37363534
 800b598:	3b3a3938 	blcc	8e99a80 <_sidata+0xe8dd5c>
 800b59c:	3f3e3d3c 	svccc	0x003e3d3c
 800b5a0:	43424140 	movtmi	r4, #8512	; 0x2140
 800b5a4:	47464544 	strbmi	r4, [r6, -r4, asr #10]
 800b5a8:	4b4a4948 	blmi	929dad0 <_sidata+0x1291dac>
 800b5ac:	4f4e4d4c 	svcmi	0x004e4d4c
 800b5b0:	53525150 	cmppl	r2, #80, 2
 800b5b4:	57565554 			; <UNDEFINED> instruction: 0x57565554
 800b5b8:	5b5a5958 	blpl	96a1b20 <_sidata+0x1695dfc>
 800b5bc:	5f5e5d5c 	svcpl	0x005e5d5c
 800b5c0:	63626160 	cmnvs	r2, #96, 2
 800b5c4:	67666564 	strbvs	r6, [r6, -r4, ror #10]!
 800b5c8:	6b6a6968 	blvs	9aa5b70 <_sidata+0x1a99e4c>
 800b5cc:	6f6e6d6c 	svcvs	0x006e6d6c
 800b5d0:	73727170 	cmnvc	r2, #112, 2
 800b5d4:	77767574 			; <UNDEFINED> instruction: 0x77767574
 800b5d8:	7b7a7978 	blvc	9ea9bc0 <_sidata+0x1e9de9c>
 800b5dc:	7f7e7d7c 	svcvc	0x007e7d7c
 800b5e0:	83828180 	orrhi	r8, r2, #128, 2
 800b5e4:	87868584 	strhi	r8, [r6, r4, lsl #11]
 800b5e8:	8b8a8988 	blhi	62adc10 <__heap_size+0x62acc10>
 800b5ec:	8f8e8d8c 	svchi	0x008e8d8c
 800b5f0:	93929190 	orrsls	r9, r2, #144, 2	; 0x24
 800b5f4:	97969594 			; <UNDEFINED> instruction: 0x97969594
 800b5f8:	9b9a9998 	blls	66b1c60 <__heap_size+0x66b0c60>
 800b5fc:	9f9e9d9c 	svcls	0x009e9d9c
 800b600:	a3a2a1a0 			; <UNDEFINED> instruction: 0xa3a2a1a0
 800b604:	a7a6a5a4 	strge	sl, [r6, r4, lsr #11]!
 800b608:	abaaa9a8 	blge	6ab5cb0 <__heap_size+0x6ab4cb0>
 800b60c:	afaeadac 	svcge	0x00aeadac
 800b610:	b3b2b1b0 			; <UNDEFINED> instruction: 0xb3b2b1b0
 800b614:	b7b6b5b4 			; <UNDEFINED> instruction: 0xb7b6b5b4
 800b618:	bbbab9b8 	bllt	6eb9d00 <__heap_size+0x6eb8d00>
 800b61c:	bfbebdbc 	svclt	0x00bebdbc
 800b620:	c3c2c1c0 	bicgt	ip, r2, #192, 2	; 0x30
 800b624:	c7c6c5c4 	strbgt	ip, [r6, r4, asr #11]
 800b628:	cbcac9c8 	blgt	72bdd50 <__heap_size+0x72bcd50>
 800b62c:	cfcecdcc 	svcgt	0x00cecdcc
 800b630:	d3d2d1d0 	bicsle	sp, r2, #208, 2	; 0x34
 800b634:	d7d6d5d4 			; <UNDEFINED> instruction: 0xd7d6d5d4
 800b638:	dbdad9d8 	blle	76c1da0 <__heap_size+0x76c0da0>
 800b63c:	dfdedddc 	svcle	0x00dedddc
 800b640:	e3e2e1e0 	mvn	lr, #224, 2	; 0x38
 800b644:	e7e6e5e4 	strb	lr, [r6, r4, ror #11]!
 800b648:	ebeae9e8 	bl	7ac5df0 <__heap_size+0x7ac4df0>
 800b64c:	efeeedec 	svc	0x00eeedec
 800b650:	f3f2f1f0 	vsra.u64	<illegal reg q15.5>, q8, #14
 800b654:	f7f6f5f4 			; <UNDEFINED> instruction: 0xf7f6f5f4
 800b658:	fbfaf9f8 	blx	7ec9e42 <__heap_size+0x7ec8e42>
 800b65c:	fffefdfc 			; <UNDEFINED> instruction: 0xfffefdfc
 800b660:	6e6b6e55 	mcrvs	14, 3, r6, cr11, cr5, {2}
 800b664:	006e776f 	rsbeq	r7, lr, pc, ror #14

0800b668 <CSWTCH.18>:
 800b668:	02020200 	andeq	r0, r2, #0, 4
 800b66c:	04020202 	streq	r0, [r2], #-514	; 0xfffffdfe
 800b670:	 	ldrbmi	r0, [r2, -r0, lsl #10]

0800b672 <PixelType::MAPS>:
 800b672:	00424752 	subeq	r4, r2, r2, asr r7
 800b676:	00474252 	subeq	r4, r7, r2, asr r2
 800b67a:	00425247 	subeq	r5, r2, r7, asr #4
 800b67e:	00524247 	subseq	r4, r2, r7, asr #4
 800b682:	00475242 	subeq	r5, r7, r2, asr #4
 800b686:	00524742 	subseq	r4, r2, r2, asr #14

0800b68a <PixelType::TYPES>:
 800b68a:	38325357 	ldmdacc	r2!, {r0, r1, r2, r4, r6, r8, r9, ip, lr}
 800b68e:	00003130 	andeq	r3, r0, r0, lsr r1
 800b692:	38325357 	ldmdacc	r2!, {r0, r1, r2, r4, r6, r8, r9, ip, lr}
 800b696:	00003131 	andeq	r3, r0, r1, lsr r1
 800b69a:	38325357 	ldmdacc	r2!, {r0, r1, r2, r4, r6, r8, r9, ip, lr}
 800b69e:	00003231 	andeq	r3, r0, r1, lsr r2
 800b6a2:	38325357 	ldmdacc	r2!, {r0, r1, r2, r4, r6, r8, r9, ip, lr}
 800b6a6:	00423231 	subeq	r3, r2, r1, lsr r2
 800b6aa:	38325357 	ldmdacc	r2!, {r0, r1, r2, r4, r6, r8, r9, ip, lr}
 800b6ae:	00003331 	andeq	r3, r0, r1, lsr r3
 800b6b2:	38325357 	ldmdacc	r2!, {r0, r1, r2, r4, r6, r8, r9, ip, lr}
 800b6b6:	00003531 	andeq	r3, r0, r1, lsr r5
 800b6ba:	38364b53 	ldmdacc	r6!, {r0, r1, r4, r6, r8, r9, fp, lr}
 800b6be:	00003231 	andeq	r3, r0, r1, lsr r2
 800b6c2:	38364b53 	ldmdacc	r6!, {r0, r1, r4, r6, r8, r9, fp, lr}
 800b6c6:	00573231 	subseq	r3, r7, r1, lsr r2
 800b6ca:	31534355 	cmpcc	r3, r5, asr r3
 800b6ce:	00333039 	eorseq	r3, r3, r9, lsr r0
 800b6d2:	32534355 	subscc	r4, r3, #1409286145	; 0x54000001
 800b6d6:	00333039 	eorseq	r3, r3, r9, lsr r0
 800b6da:	38385343 	ldmdacc	r8!, {r0, r1, r6, r8, r9, ip, lr}
 800b6de:	00003231 	andeq	r3, r0, r1, lsr r2
 800b6e2:	31415041 	cmpcc	r1, r1, asr #32
 800b6e6:	00003230 	andeq	r3, r0, r0, lsr r2
 800b6ea:	38394b53 	ldmdacc	r9!, {r0, r1, r4, r6, r8, r9, fp, lr}
 800b6ee:	00003232 	andeq	r3, r0, r2, lsr r2
 800b6f2:	31383950 	teqcc	r8, r0, asr r9
 800b6f6:	00000033 	andeq	r0, r0, r3, lsr r0

0800b6fa <s_patternName>:
 800b6fa:	656e6f4e 	strbvs	r6, [lr, #-3918]!	; 0xfffff0b2
	...
 800b706:	61520000 	cmpvs	r2, r0
 800b70a:	6f626e69 	svcvs	0x00626e69
 800b70e:	79632077 	stmdbvc	r3!, {r0, r1, r2, r4, r5, r6, sp}^
 800b712:	00656c63 	rsbeq	r6, r5, r3, ror #24
 800b716:	61656854 	cmnvs	r5, r4, asr r8
 800b71a:	20726574 	rsbscs	r6, r2, r4, ror r5
 800b71e:	73616863 	cmnvc	r1, #6488064	; 0x630000
 800b722:	6f430065 	svcvs	0x00430065
 800b726:	72756f6c 	rsbsvc	r6, r5, #108, 30	; 0x1b0
 800b72a:	70697720 	rsbvc	r7, r9, r0, lsr #14
 800b72e:	00000065 	andeq	r0, r0, r5, rrx
 800b732:	6e616353 	mcrvs	3, 3, r6, cr1, cr3, {2}
 800b736:	0072656e 	rsbseq	r6, r2, lr, ror #10
 800b73a:	00000000 	andeq	r0, r0, r0
 800b73e:	61460000 	mrsvs	r0, (UNDEF: 70)
 800b742:	00006564 	andeq	r6, r0, r4, ror #10
	...

0800b74e <gamma10_0>:
 800b74e:	03020100 	movweq	r0, #8448	; 0x2100
 800b752:	07060504 	streq	r0, [r6, -r4, lsl #10]
 800b756:	0b0a0908 	bleq	828db7e <_sidata+0x281e5a>
 800b75a:	0f0e0d0c 	svceq	0x000e0d0c
 800b75e:	13121110 	tstne	r2, #16, 2
 800b762:	17161514 			; <UNDEFINED> instruction: 0x17161514
 800b766:	1b1a1918 	blne	8691bce <_sidata+0x685eaa>
 800b76a:	1f1e1d1c 	svcne	0x001e1d1c
 800b76e:	23222120 			; <UNDEFINED> instruction: 0x23222120
 800b772:	27262524 	strcs	r2, [r6, -r4, lsr #10]!
 800b776:	2b2a2928 	blcs	8a95c1e <_sidata+0xa89efa>
 800b77a:	2f2e2d2c 	svccs	0x002e2d2c
 800b77e:	33323130 	teqcc	r2, #48, 2
 800b782:	37363534 			; <UNDEFINED> instruction: 0x37363534
 800b786:	3b3a3938 	blcc	8e99c6e <_sidata+0xe8df4a>
 800b78a:	3f3e3d3c 	svccc	0x003e3d3c
 800b78e:	43424140 	movtmi	r4, #8512	; 0x2140
 800b792:	47464544 	strbmi	r4, [r6, -r4, asr #10]
 800b796:	4b4a4948 	blmi	929dcbe <_sidata+0x1291f9a>
 800b79a:	4f4e4d4c 	svcmi	0x004e4d4c
 800b79e:	53525150 	cmppl	r2, #80, 2
 800b7a2:	57565554 			; <UNDEFINED> instruction: 0x57565554
 800b7a6:	5b5a5958 	blpl	96a1d0e <_sidata+0x1695fea>
 800b7aa:	5f5e5d5c 	svcpl	0x005e5d5c
 800b7ae:	63626160 	cmnvs	r2, #96, 2
 800b7b2:	67666564 	strbvs	r6, [r6, -r4, ror #10]!
 800b7b6:	6b6a6968 	blvs	9aa5d5e <_sidata+0x1a9a03a>
 800b7ba:	6f6e6d6c 	svcvs	0x006e6d6c
 800b7be:	73727170 	cmnvc	r2, #112, 2
 800b7c2:	77767574 			; <UNDEFINED> instruction: 0x77767574
 800b7c6:	7b7a7978 	blvc	9ea9dae <_sidata+0x1e9e08a>
 800b7ca:	7f7e7d7c 	svcvc	0x007e7d7c
 800b7ce:	83828180 	orrhi	r8, r2, #128, 2
 800b7d2:	87868584 	strhi	r8, [r6, r4, lsl #11]
 800b7d6:	8b8a8988 	blhi	62addfe <__heap_size+0x62acdfe>
 800b7da:	8f8e8d8c 	svchi	0x008e8d8c
 800b7de:	93929190 	orrsls	r9, r2, #144, 2	; 0x24
 800b7e2:	97969594 			; <UNDEFINED> instruction: 0x97969594
 800b7e6:	9b9a9998 	blls	66b1e4e <__heap_size+0x66b0e4e>
 800b7ea:	9f9e9d9c 	svcls	0x009e9d9c
 800b7ee:	a3a2a1a0 			; <UNDEFINED> instruction: 0xa3a2a1a0
 800b7f2:	a7a6a5a4 	strge	sl, [r6, r4, lsr #11]!
 800b7f6:	abaaa9a8 	blge	6ab5e9e <__heap_size+0x6ab4e9e>
 800b7fa:	afaeadac 	svcge	0x00aeadac
 800b7fe:	b3b2b1b0 			; <UNDEFINED> instruction: 0xb3b2b1b0
 800b802:	b7b6b5b4 			; <UNDEFINED> instruction: 0xb7b6b5b4
 800b806:	bbbab9b8 	bllt	6eb9eee <__heap_size+0x6eb8eee>
 800b80a:	bfbebdbc 	svclt	0x00bebdbc
 800b80e:	c3c2c1c0 	bicgt	ip, r2, #192, 2	; 0x30
 800b812:	c7c6c5c4 	strbgt	ip, [r6, r4, asr #11]
 800b816:	cbcac9c8 	blgt	72bdf3e <__heap_size+0x72bcf3e>
 800b81a:	cfcecdcc 	svcgt	0x00cecdcc
 800b81e:	d3d2d1d0 	bicsle	sp, r2, #208, 2	; 0x34
 800b822:	d7d6d5d4 			; <UNDEFINED> instruction: 0xd7d6d5d4
 800b826:	dbdad9d8 	blle	76c1f8e <__heap_size+0x76c0f8e>
 800b82a:	dfdedddc 	svcle	0x00dedddc
 800b82e:	e3e2e1e0 	mvn	lr, #224, 2	; 0x38
 800b832:	e7e6e5e4 	strb	lr, [r6, r4, ror #11]!
 800b836:	ebeae9e8 	bl	7ac5fde <__heap_size+0x7ac4fde>
 800b83a:	efeeedec 	svc	0x00eeedec
 800b83e:	f3f2f1f0 	vsra.u64	<illegal reg q15.5>, q8, #14
 800b842:	f7f6f5f4 			; <UNDEFINED> instruction: 0xf7f6f5f4
 800b846:	fbfaf9f8 	blx	7eca030 <__heap_size+0x7ec9030>
 800b84a:	fffefdfc 			; <UNDEFINED> instruction: 0xfffefdfc
 800b84e:	46006f6c 	strmi	r6, [r0], -ip, ror #30
 800b852:	776d7269 	strbvc	r7, [sp, -r9, ror #4]!
 800b856:	20657261 	rsbcs	r7, r5, r1, ror #4
 800b85a:	2a2e2556 	bcs	8b94dba <_sidata+0xb89096>
 800b85e:	4d440073 	stclmi	0, cr0, [r4, #-460]	; 0xfffffe34
 800b862:	3a532058 	bcc	94d39ca <_sidata+0x14c7ca6>
 800b866:	20753325 	rsbscs	r3, r5, r5, lsr #6
 800b86a:	33253a46 			; <UNDEFINED> instruction: 0x33253a46
 800b86e:	 	rsbeq	r0, r0, r5, ror r0

0800b870 <s_aStorSize>:
 800b870:	00000060 	andeq	r0, r0, r0, rrx
 800b874:	00000020 	andeq	r0, r0, r0, lsr #32
 800b878:	00000040 	andeq	r0, r0, r0, asr #32
 800b87c:	00000040 	andeq	r0, r0, r0, asr #32
 800b880:	00000020 	andeq	r0, r0, r0, lsr #32
 800b884:	00000020 	andeq	r0, r0, r0, lsr #32
 800b888:	000001e0 	andeq	r0, r0, r0, ror #3
 800b88c:	00000040 	andeq	r0, r0, r0, asr #32
 800b890:	00000020 	andeq	r0, r0, r0, lsr #32
 800b894:	00000060 	andeq	r0, r0, r0, rrx
 800b898:	00000030 	andeq	r0, r0, r0, lsr r0
 800b89c:	00000020 	andeq	r0, r0, r0, lsr #32
 800b8a0:	000003b0 			; <UNDEFINED> instruction: 0x000003b0
 800b8a4:	00000030 	andeq	r0, r0, r0, lsr r0
 800b8a8:	00000040 	andeq	r0, r0, r0, asr #32
 800b8ac:	00000020 	andeq	r0, r0, r0, lsr #32
 800b8b0:	00000060 	andeq	r0, r0, r0, rrx
 800b8b4:	00000020 	andeq	r0, r0, r0, lsr #32
 800b8b8:	00000400 	andeq	r0, r0, r0, lsl #8
 800b8bc:	00000020 	andeq	r0, r0, r0, lsr #32
 800b8c0:	00000020 	andeq	r0, r0, r0, lsr #32
 800b8c4:	00000040 	andeq	r0, r0, r0, asr #32
 800b8c8:	00000060 	andeq	r0, r0, r0, rrx
 800b8cc:	00000020 	andeq	r0, r0, r0, lsr #32
 800b8d0:	00000020 	andeq	r0, r0, r0, lsr #32
 800b8d4:	00000140 	andeq	r0, r0, r0, asr #2
 800b8d8:	00000020 	andeq	r0, r0, r0, lsr #32

0800b8dc <s_aSignature>:
 800b8dc:	01567641 	cmpeq	r6, r1, asr #12
 800b8e0:	3a434d46 	bcc	90dee00 <_sidata+0x10d30dc>
 800b8e4:	74654420 	strbtvc	r4, [r5], #-1056	; 0xfffffbe0
 800b8e8:	65746365 	ldrbvs	r6, [r4, #-869]!	; 0xfffffc9b
 800b8ec:	73252064 			; <UNDEFINED> instruction: 0x73252064
 800b8f0:	74697720 	strbtvc	r7, [r9], #-1824	; 0xfffff8e0
 800b8f4:	6f742068 	svcvs	0x00742068
 800b8f8:	206c6174 	rsbcs	r6, ip, r4, ror r1
 800b8fc:	62206425 	eorvs	r6, r0, #620756992	; 0x25000000
 800b900:	73657479 	cmnvc	r5, #2030043136	; 0x79000000
 800b904:	64255b20 	strtvs	r5, [r5], #-2848	; 0xfffff4e0
 800b908:	5d426b20 	vstrpl	d22, [r2, #-128]	; 0xffffff80
 800b90c:	6f4e000a 	svcvs	0x004e000a
 800b910:	73696420 	cmnvc	r9, #32, 8	; 0x20000000
 800b914:	79616c70 	stmdbvc	r1!, {r4, r5, r6, sl, fp, sp, lr}^
 800b918:	756f6620 	strbvc	r6, [pc, #-1568]!	; 800b300 <gamma22_0+0xa0>
 800b91c:	5300646e 	movwpl	r6, #1134	; 0x46e
 800b920:	30313148 	eorscc	r3, r1, r8, asr #2
 800b924:	53530036 	cmppl	r3, #54	; 0x36
 800b928:	30333144 	eorscc	r3, r3, r4, asr #2
 800b92c:	73250036 			; <UNDEFINED> instruction: 0x73250036
 800b930:	64252820 	strtvs	r2, [r5], #-2080	; 0xfffff7e0
 800b934:	2964252c 	stmdbcs	r4!, {r2, r3, r5, r8, sl, sp}^
 800b938:	aa40000a 	bge	900b968 <_sidata+0xfffc44>
 800b93c:	00eeaaee 	rsceq	sl, lr, lr, ror #21

0800b940 <vtable for Ssd1306>:
	...
 800b948:	080076a9 	stmdaeq	r0, {r0, r3, r5, r7, r9, sl, ip, sp, lr}
 800b94c:	080076d5 	stmdaeq	r0, {r0, r2, r4, r6, r7, r9, sl, ip, sp, lr}
 800b950:	08007a59 	stmdaeq	r0, {r0, r3, r4, r6, r9, fp, ip, sp, lr}
 800b954:	080079d5 	stmdaeq	r0, {r0, r2, r4, r6, r7, r8, fp, ip, sp, lr}
 800b958:	080078bd 	stmdaeq	r0, {r0, r2, r3, r4, r5, r7, fp, ip, sp, lr}
 800b95c:	080076f9 	stmdaeq	r0, {r0, r3, r4, r5, r6, r7, r9, sl, ip, sp, lr}
 800b960:	08007735 	stmdaeq	r0, {r0, r2, r4, r5, r8, r9, sl, ip, sp, lr}
 800b964:	08007895 	stmdaeq	r0, {r0, r2, r4, r7, fp, ip, sp, lr}
 800b968:	0800783d 	stmdaeq	r0, {r0, r2, r3, r4, r5, fp, ip, sp, lr}
 800b96c:	080076ab 	stmdaeq	r0, {r0, r1, r3, r5, r7, r9, sl, ip, sp, lr}
 800b970:	08007909 	stmdaeq	r0, {r0, r3, r8, fp, ip, sp, lr}
 800b974:	08007915 	stmdaeq	r0, {r0, r2, r4, r8, fp, ip, sp, lr}
 800b978:	08007b09 	stmdaeq	r0, {r0, r3, r8, r9, fp, ip, sp, lr}
 800b97c:	080076ad 	stmdaeq	r0, {r0, r2, r3, r5, r7, r9, sl, ip, sp, lr}

0800b980 <oled_128x32_init>:
 800b980:	a880d5ae 	stmge	r0, {r1, r2, r3, r5, r7, r8, sl, ip, lr, pc}
 800b984:	4000d31f 	andmi	sp, r0, pc, lsl r3
 800b988:	0020148d 	eoreq	r1, r0, sp, lsl #9
 800b98c:	02dac8a1 	sbcseq	ip, sl, #10551296	; 0xa10000
 800b990:	f1d97f81 			; <UNDEFINED> instruction: 0xf1d97f81
 800b994:	a6a440db 	ssatge	r4, #5, fp, asr #1

0800b998 <oled_128x64_init>:
 800b998:	a880d5ae 	stmge	r0, {r1, r2, r3, r5, r7, r8, sl, ip, lr, pc}
 800b99c:	4000d33f 	andmi	sp, r0, pc, lsr r3
 800b9a0:	0020148d 	eoreq	r1, r0, sp, lsl #9
 800b9a4:	12dac8a1 	sbcsne	ip, sl, #10551296	; 0xa10000
 800b9a8:	f1d97f81 			; <UNDEFINED> instruction: 0xf1d97f81
 800b9ac:	a6a440db 	ssatge	r4, #5, fp, asr #1

0800b9b0 <_OledFont8x6>:
 800b9b0:	00000040 	andeq	r0, r0, r0, asr #32
 800b9b4:	40000000 	andmi	r0, r0, r0
 800b9b8:	005f0000 	subseq	r0, pc, r0
 800b9bc:	00400000 	subeq	r0, r0, r0
 800b9c0:	00070007 	andeq	r0, r7, r7
 800b9c4:	7f144000 	svcvc	0x00144000
 800b9c8:	00147f14 	andseq	r7, r4, r4, lsl pc
 800b9cc:	7f2a2440 	svcvc	0x002a2440
 800b9d0:	4000122a 	andmi	r1, r0, sl, lsr #4
 800b9d4:	64081323 	strvs	r1, [r8], #-803	; 0xfffffcdd
 800b9d8:	36400062 	strbcc	r0, [r0], -r2, rrx
 800b9dc:	50205649 	eorpl	r5, r0, r9, asr #12
 800b9e0:	08004000 	stmdaeq	r0, {lr}
 800b9e4:	00000307 	andeq	r0, r0, r7, lsl #6
 800b9e8:	221c0040 	andscs	r0, ip, #64	; 0x40
 800b9ec:	40000041 	andmi	r0, r0, r1, asr #32
 800b9f0:	1c224100 	stfnes	f4, [r2], #-0
 800b9f4:	2a400000 	bcs	900b9fc <_sidata+0xfffcd8>
 800b9f8:	2a1c7f1c 	bcs	872b670 <_sidata+0x71f94c>
 800b9fc:	08084000 	stmdaeq	r8, {lr}
 800ba00:	0008083e 	andeq	r0, r8, lr, lsr r8
 800ba04:	70800040 	addvc	r0, r0, r0, asr #32
 800ba08:	40000030 	andmi	r0, r0, r0, lsr r0
 800ba0c:	08080808 	stmdaeq	r8, {r3, fp}
 800ba10:	00400008 	subeq	r0, r0, r8
 800ba14:	00606000 	rsbeq	r6, r0, r0
 800ba18:	10204000 	eorne	r4, r0, r0
 800ba1c:	00020408 	andeq	r0, r2, r8, lsl #8
 800ba20:	49513e40 	ldmdbmi	r1, {r6, r9, sl, fp, ip, sp}^
 800ba24:	40003e45 	andmi	r3, r0, r5, asr #28
 800ba28:	407f4200 	rsbsmi	r4, pc, r0, lsl #4
 800ba2c:	72400000 	subvc	r0, r0, #0
 800ba30:	46494949 	strbmi	r4, [r9], -r9, asr #18
 800ba34:	41214000 			; <UNDEFINED> instruction: 0x41214000
 800ba38:	00334d49 	eorseq	r4, r3, r9, asr #26
 800ba3c:	12141840 	andsne	r1, r4, #64, 16	; 0x400000
 800ba40:	4000107f 	andmi	r1, r0, pc, ror r0
 800ba44:	45454527 	strbmi	r4, [r5, #-1319]	; 0xfffffad9
 800ba48:	3c400039 	mcrrcc	0, 3, r0, r0, cr9
 800ba4c:	3149494a 	cmpcc	r9, sl, asr #18
 800ba50:	21414000 	mrscs	r4, (UNDEF: 65)
 800ba54:	00070911 	andeq	r0, r7, r1, lsl r9
 800ba58:	49493640 	stmdbmi	r9, {r6, r9, sl, ip, sp}^
 800ba5c:	40003649 	andmi	r3, r0, r9, asr #12
 800ba60:	29494946 	stmdbcs	r9, {r1, r2, r6, r8, fp, lr}^
 800ba64:	0040001e 	subeq	r0, r0, lr, lsl r0
 800ba68:	00001400 	andeq	r1, r0, r0, lsl #8
 800ba6c:	40004000 	andmi	r4, r0, r0
 800ba70:	00000034 	andeq	r0, r0, r4, lsr r0
 800ba74:	14080040 	strne	r0, [r8], #-64	; 0xffffffc0
 800ba78:	40004122 	andmi	r4, r0, r2, lsr #2
 800ba7c:	14141414 	ldrne	r1, [r4], #-1044	; 0xfffffbec
 800ba80:	00400014 	subeq	r0, r0, r4, lsl r0
 800ba84:	08142241 	ldmdaeq	r4, {r0, r6, r9, sp}
 800ba88:	01024000 	mrseq	r4, (UNDEF: 2)
 800ba8c:	00060959 	andeq	r0, r6, r9, asr r9
 800ba90:	5d413e40 	stclpl	14, cr3, [r1, #-256]	; 0xffffff00
 800ba94:	40004e59 	andmi	r4, r0, r9, asr lr
 800ba98:	1211127c 	andsne	r1, r1, #124, 4	; 0xc0000007
 800ba9c:	7f40007c 	svcvc	0x0040007c
 800baa0:	36494949 	strbcc	r4, [r9], -r9, asr #18
 800baa4:	413e4000 	teqmi	lr, r0
 800baa8:	00224141 	eoreq	r4, r2, r1, asr #2
 800baac:	41417f40 	cmpmi	r1, r0, asr #30
 800bab0:	40003e41 	andmi	r3, r0, r1, asr #28
 800bab4:	4949497f 	stmdbmi	r9, {r0, r1, r2, r3, r4, r5, r6, r8, fp, lr}^
 800bab8:	7f400041 	svcvc	0x00400041
 800babc:	01090909 	tsteq	r9, r9, lsl #18
 800bac0:	413e4000 	teqmi	lr, r0
 800bac4:	00735141 	rsbseq	r5, r3, r1, asr #2
 800bac8:	08087f40 	stmdaeq	r8, {r6, r8, r9, sl, fp, ip, sp, lr}
 800bacc:	40007f08 	andmi	r7, r0, r8, lsl #30
 800bad0:	417f4100 	cmnmi	pc, r0, lsl #2
 800bad4:	20400000 	subcs	r0, r0, r0
 800bad8:	013f4140 	teqeq	pc, r0, asr #2
 800badc:	087f4000 	ldmdaeq	pc!, {lr}^	; <UNPREDICTABLE>
 800bae0:	00412214 	subeq	r2, r1, r4, lsl r2
 800bae4:	40407f40 	submi	r7, r0, r0, asr #30
 800bae8:	40004040 	andmi	r4, r0, r0, asr #32
 800baec:	021c027f 	andseq	r0, ip, #-268435449	; 0xf0000007
 800baf0:	7f40007f 	svcvc	0x0040007f
 800baf4:	7f100804 	svcvc	0x00100804
 800baf8:	413e4000 	teqmi	lr, r0
 800bafc:	003e4141 	eorseq	r4, lr, r1, asr #2
 800bb00:	09097f40 	stmdbeq	r9, {r6, r8, r9, sl, fp, ip, sp, lr}
 800bb04:	40000609 	andmi	r0, r0, r9, lsl #12
 800bb08:	2151413e 	cmpcs	r1, lr, lsr r1
 800bb0c:	7f40005e 	svcvc	0x0040005e
 800bb10:	46291909 	strtmi	r1, [r9], -r9, lsl #18
 800bb14:	49264000 	stmdbmi	r6!, {lr}
 800bb18:	00324949 	eorseq	r4, r2, r9, asr #18
 800bb1c:	7f010340 	svcvc	0x00010340
 800bb20:	40000301 	andmi	r0, r0, r1, lsl #6
 800bb24:	4040403f 	submi	r4, r0, pc, lsr r0
 800bb28:	1f40003f 	svcne	0x0040003f
 800bb2c:	1f204020 	svcne	0x00204020
 800bb30:	403f4000 	eorsmi	r4, pc, r0
 800bb34:	003f4038 	eorseq	r4, pc, r8, lsr r0	; <UNPREDICTABLE>
 800bb38:	08146340 	ldmdaeq	r4, {r6, r8, r9, sp, lr}
 800bb3c:	40006314 	andmi	r6, r0, r4, lsl r3
 800bb40:	04780403 	ldrbteq	r0, [r8], #-1027	; 0xfffffbfd
 800bb44:	61400003 	cmpvs	r0, r3
 800bb48:	434d4959 	movtmi	r4, #55641	; 0xd959
 800bb4c:	7f004000 	svcvc	0x00004000
 800bb50:	00414141 	subeq	r4, r1, r1, asr #2
 800bb54:	08040240 	stmdaeq	r4, {r6, r9}
 800bb58:	40002010 	andmi	r2, r0, r0, lsl r0
 800bb5c:	41414100 	mrsmi	r4, (UNDEF: 81)
 800bb60:	0440007f 	strbeq	r0, [r0], #-127	; 0xffffff81
 800bb64:	04020102 	streq	r0, [r2], #-258	; 0xfffffefe
 800bb68:	40404000 	submi	r4, r0, r0
 800bb6c:	00404040 	subeq	r4, r0, r0, asr #32
 800bb70:	07030040 	streq	r0, [r3, -r0, asr #32]
 800bb74:	40000008 	andmi	r0, r0, r8
 800bb78:	78545420 	ldmdavc	r4, {r5, sl, ip, lr}^
 800bb7c:	7f400040 	svcvc	0x00400040
 800bb80:	38444428 	stmdacc	r4, {r3, r5, sl, lr}^
 800bb84:	44384000 	ldrtmi	r4, [r8], #-0
 800bb88:	00284444 	eoreq	r4, r8, r4, asr #8
 800bb8c:	44443840 	strbmi	r3, [r4], #-2112	; 0xfffff7c0
 800bb90:	40007f28 	andmi	r7, r0, r8, lsr #30
 800bb94:	54545438 	ldrbpl	r5, [r4], #-1080	; 0xfffffbc8
 800bb98:	00400018 	subeq	r0, r0, r8, lsl r0
 800bb9c:	02097e08 	andeq	r7, r9, #8, 28	; 0x80
 800bba0:	a4184000 	ldrge	r4, [r8], #-0
 800bba4:	00789ca4 	rsbseq	r9, r8, r4, lsr #25
 800bba8:	04087f40 	streq	r7, [r8], #-3904	; 0xfffff0c0
 800bbac:	40007804 	andmi	r7, r0, r4, lsl #16
 800bbb0:	407d4400 	rsbsmi	r4, sp, r0, lsl #8
 800bbb4:	20400000 	subcs	r0, r0, r0
 800bbb8:	003d4040 	eorseq	r4, sp, r0, asr #32
 800bbbc:	107f4000 	rsbsne	r4, pc, r0
 800bbc0:	00004428 	andeq	r4, r0, r8, lsr #8
 800bbc4:	7f410040 	svcvc	0x00410040
 800bbc8:	40000040 	andmi	r0, r0, r0, asr #32
 800bbcc:	0478047c 	ldrbteq	r0, [r8], #-1148	; 0xfffffb84
 800bbd0:	7c400078 	mcrrvc	0, 7, r0, r0, cr8
 800bbd4:	78040408 	stmdavc	r4, {r3, sl}
 800bbd8:	44384000 	ldrtmi	r4, [r8], #-0
 800bbdc:	00384444 	eorseq	r4, r8, r4, asr #8
 800bbe0:	2418fc40 	ldrcs	pc, [r8], #-3136	; 0xfffff3c0
 800bbe4:	40001824 	andmi	r1, r0, r4, lsr #16
 800bbe8:	18242418 	stmdane	r4!, {r3, r4, sl, sp}
 800bbec:	7c4000fc 	mcrrvc	0, 15, r0, r0, cr12
 800bbf0:	08040408 	stmdaeq	r4, {r3, sl}
 800bbf4:	54484000 	strbpl	r4, [r8], #-0
 800bbf8:	00245454 	eoreq	r5, r4, r4, asr r4
 800bbfc:	3f040440 	svccc	0x00040440
 800bc00:	40002444 	andmi	r2, r0, r4, asr #8
 800bc04:	2040403c 	subcs	r4, r0, ip, lsr r0
 800bc08:	1c40007c 	mcrrne	0, 7, r0, r0, cr12
 800bc0c:	1c204020 	stcne	0, cr4, [r0], #-128	; 0xffffff80
 800bc10:	403c4000 	eorsmi	r4, ip, r0
 800bc14:	003c4030 	eorseq	r4, ip, r0, lsr r0
 800bc18:	10284440 	eorne	r4, r8, r0, asr #8
 800bc1c:	40004428 	andmi	r4, r0, r8, lsr #8
 800bc20:	9090904c 	addsls	r9, r0, ip, asr #32
 800bc24:	4440007c 	strbmi	r0, [r0], #-124	; 0xffffff84
 800bc28:	444c5464 	strbmi	r5, [ip], #-1124	; 0xfffffb9c
 800bc2c:	08004000 	stmdaeq	r0, {lr}
 800bc30:	00004136 	andeq	r4, r0, r6, lsr r1
 800bc34:	77000040 	strvc	r0, [r0, -r0, asr #32]
 800bc38:	40000000 	andmi	r0, r0, r0
 800bc3c:	08364100 	ldmdaeq	r6!, {r8, lr}
 800bc40:	02400000 	subeq	r0, r0, #0
 800bc44:	02040201 	andeq	r0, r4, #268435456	; 0x10000000
 800bc48:	263c4000 	ldrtcs	r4, [ip], -r0
 800bc4c:	003c2623 	eorseq	r2, ip, r3, lsr #12
 800bc50:	37335b1b 			; <UNDEFINED> instruction: 0x37335b1b
 800bc54:	5b1b006d 	blpl	86cbe10 <_sidata+0x6c00ec>
 800bc58:	006d3034 	rsbeq	r3, sp, r4, lsr r0
 800bc5c:	2e25565b 	mcrcs	6, 1, r5, cr5, cr11, {2}
 800bc60:	205d732a 	subscs	r7, sp, sl, lsr #6
 800bc64:	43207325 			; <UNDEFINED> instruction: 0x43207325
 800bc68:	69706d6f 	ldmdbvs	r0!, {r0, r1, r2, r3, r5, r6, r8, sl, fp, sp, lr}^
 800bc6c:	2064656c 	rsbcs	r6, r4, ip, ror #10
 800bc70:	25206e6f 	strcs	r6, [r0, #-3695]!	; 0xfffff191
 800bc74:	20732a2e 	rsbscs	r2, r3, lr, lsr #20
 800bc78:	25207461 	strcs	r7, [r0, #-1121]!	; 0xfffffb9f
 800bc7c:	00732a2e 	rsbseq	r2, r3, lr, lsr #20
 800bc80:	6f626552 	svcvs	0x00626552
 800bc84:	6e69746f 	cdpvs	4, 6, cr7, cr9, cr15, {3}
 800bc88:	2e2e2067 	cdpcs	0, 2, cr2, cr14, cr7, {3}
 800bc8c:	4e000a2e 	vmlami.f32	s0, s0, s29
 800bc90:	5452206f 	ldrbpl	r2, [r2], #-111	; 0xffffff91
 800bc94:	6f632043 	svcvs	0x00632043
 800bc98:	63656e6e 	cmnvs	r5, #1760	; 0x6e0
 800bc9c:	00646574 	rsbeq	r6, r4, r4, ror r5
 800bca0:	64342e25 	ldrtvs	r2, [r4], #-3621	; 0xfffff1db
 800bca4:	322e252f 	eorcc	r2, lr, #197132288	; 0xbc00000
 800bca8:	2e252f64 	cdpcs	15, 2, cr2, cr5, cr4, {3}
 800bcac:	25206432 	strcs	r6, [r0, #-1074]!	; 0xfffffbce
 800bcb0:	3a64322e 	bcc	9918570 <_sidata+0x190c84c>
 800bcb4:	64322e25 	ldrtvs	r2, [r2], #-3621	; 0xfffff1db
 800bcb8:	322e253a 	eorcc	r2, lr, #243269632	; 0xe800000
 800bcbc:	4d000a64 	vstrmi	s0, [r0, #-400]	; 0xfffffe70
 800bcc0:	39375043 	ldmdbcc	r7!, {r0, r1, r6, ip, lr}
 800bcc4:	00583134 	subseq	r3, r8, r4, lsr r1
 800bcc8:	32335344 	eorscc	r5, r3, #68, 6	; 0x10000001
 800bccc:	50003133 	andpl	r3, r0, r3, lsr r1
 800bcd0:	35384643 	ldrcc	r4, [r8, #-1603]!	; 0xfffff9bd
 800bcd4:	53003336 	movwpl	r3, #822	; 0x336
 800bcd8:	495f434f 	ldmdbmi	pc, {r0, r1, r2, r3, r6, r8, r9, lr}^	; <UNPREDICTABLE>
 800bcdc:	5245544e 	subpl	r5, r5, #1308622848	; 0x4e000000
 800bce0:	004c414e 	subeq	r4, ip, lr, asr #2

0800bce4 <CSWTCH.7>:
 800bce4:	0800bcbf 	stmdaeq	r0, {r0, r1, r2, r3, r4, r5, r7, sl, fp, ip, sp, pc}
 800bce8:	0800bcc8 	stmdaeq	r0, {r3, r6, r7, sl, fp, ip, sp, pc}
 800bcec:	0800bccf 	stmdaeq	r0, {r0, r1, r2, r3, r6, r7, sl, fp, ip, sp, pc}
 800bcf0:	0800bcd7 	stmdaeq	r0, {r0, r1, r2, r4, r6, r7, sl, fp, ip, sp, pc}

0800bcf4 <days_of_month>:
 800bcf4:	0000001f 	andeq	r0, r0, pc, lsl r0
 800bcf8:	0000001c 	andeq	r0, r0, ip, lsl r0
 800bcfc:	0000001f 	andeq	r0, r0, pc, lsl r0
 800bd00:	0000001e 	andeq	r0, r0, lr, lsl r0
 800bd04:	0000001f 	andeq	r0, r0, pc, lsl r0
 800bd08:	0000001e 	andeq	r0, r0, lr, lsl r0
 800bd0c:	0000001f 	andeq	r0, r0, pc, lsl r0
 800bd10:	0000001f 	andeq	r0, r0, pc, lsl r0
 800bd14:	0000001e 	andeq	r0, r0, lr, lsl r0
 800bd18:	0000001f 	andeq	r0, r0, pc, lsl r0
 800bd1c:	0000001e 	andeq	r0, r0, lr, lsl r0
 800bd20:	0000001f 	andeq	r0, r0, pc, lsl r0

Disassembly of section .stack:

20000000 <_sp-0x1000>:
	...

Disassembly of section .data:

20001000 <s_block_bucket>:
20001000:	00000010 	andeq	r0, r0, r0, lsl r0
20001004:	00000000 	andeq	r0, r0, r0
20001008:	00000020 	andeq	r0, r0, r0, lsr #32
2000100c:	00000000 	andeq	r0, r0, r0
20001010:	00000040 	andeq	r0, r0, r0, asr #32
20001014:	00000000 	andeq	r0, r0, r0
20001018:	00000060 	andeq	r0, r0, r0, rrx
2000101c:	00000000 	andeq	r0, r0, r0
20001020:	00000080 	andeq	r0, r0, r0, lsl #1
20001024:	00000000 	andeq	r0, r0, r0
20001028:	00000100 	andeq	r0, r0, r0, lsl #2
2000102c:	00000000 	andeq	r0, r0, r0
20001030:	00000140 	andeq	r0, r0, r0, asr #2
20001034:	00000000 	andeq	r0, r0, r0
20001038:	00000180 	andeq	r0, r0, r0, lsl #3
2000103c:	00000000 	andeq	r0, r0, r0
20001040:	00000200 	andeq	r0, r0, r0, lsl #4
20001044:	00000000 	andeq	r0, r0, r0
20001048:	00000300 	andeq	r0, r0, r0, lsl #6
2000104c:	00000000 	andeq	r0, r0, r0
20001050:	00000400 	andeq	r0, r0, r0, lsl #8
20001054:	00000000 	andeq	r0, r0, r0
20001058:	00000500 	andeq	r0, r0, r0, lsl #10
	...

20001068 <next_block>:
20001068:	20008798 	mulcs	r0, r8, r7

2000106c <SystemCoreClock>:
2000106c:	07270e00 	streq	r0, [r7, -r0, lsl #28]!

Disassembly of section .bss:

20001070 <s_IsProgrammed>:
20001070:	00000000 	andeq	r0, r0, r0

20001074 <s_Pattern>:
20001074:	00000000 	andeq	r0, r0, r0

20001078 <s_isOn>:
20001078:	00000000 	andeq	r0, r0, r0

2000107c <outptr>:
2000107c:	00000000 	andeq	r0, r0, r0

20001080 <DMXReceiver::s_bDisableOutput>:
	...

20001081 <DMXReceiver::s_IsActive>:
20001081:	 	andeq	r0, r0, r0

20001084 <DMXReceiver::s_pLightSet>:
20001084:	00000000 	andeq	r0, r0, r0

20001088 <RDMDeviceResponder::s_pThis>:
20001088:	00000000 	andeq	r0, r0, r0

2000108c <RDMIdentify::s_pThis>:
2000108c:	00000000 	andeq	r0, r0, r0

20001090 <RDMIdentify::m_nMode>:
	...

20001091 <RDMIdentify::m_bIsEnabled>:
20001091:	 	andeq	r0, r0, r0

20001094 <RDMSensors::s_pThis>:
20001094:	00000000 	andeq	r0, r0, r0

20001098 <RDMSubDevices::s_pThis>:
20001098:	00000000 	andeq	r0, r0, r0

2000109c <RDMResponder::m_IsSubDeviceActive>:
	...

2000109d <RDMResponder::s_RdmCommand>:
	...

200011a0 <RDMResponder::s_pThis>:
200011a0:	00000000 	andeq	r0, r0, r0

200011a4 <Dmx::s_pThis>:
200011a4:	00000000 	andeq	r0, r0, r0

200011a8 <s_nDmxTransmitInterTime>:
200011a8:	00000000 	andeq	r0, r0, r0

200011ac <s_nDmxTransmitMabTime>:
200011ac:	00000000 	andeq	r0, r0, r0

200011b0 <s_nDmxTransmitBreakTime>:
200011b0:	00000000 	andeq	r0, r0, r0

200011b4 <s_TxBuffer>:
	...

200013c0 <s_RxBuffer>:
	...

200015d0 <gv_RdmDataReceiveEnd>:
200015d0:	00000000 	andeq	r0, r0, r0

200015d4 <sv_nRxDmxPackets>:
	...

200015e4 <sv_PortState>:
200015e4:	00000000 	andeq	r0, r0, r0

200015e8 <PixelDmxParamsRdm::s_Data>:
200015e8:	00000000 	andeq	r0, r0, r0

200015ec <WS28xxDmx::s_pThis>:
200015ec:	00000000 	andeq	r0, r0, r0

200015f0 <PixelPatterns::m_pScannerColours>:
200015f0:	00000000 	andeq	r0, r0, r0

200015f4 <PixelPatterns::m_PortConfig>:
	...

20001614 <PixelPatterns::m_nCount>:
20001614:	00000000 	andeq	r0, r0, r0

20001618 <PixelPatterns::m_nActivePorts>:
20001618:	00000000 	andeq	r0, r0, r0

2000161c <PixelPatterns::m_pOutput>:
2000161c:	00000000 	andeq	r0, r0, r0

20001620 <PixelTestPattern::s_pThis>:
20001620:	00000000 	andeq	r0, r0, r0

20001624 <PixelTestPattern::s_Pattern>:
20001624:	00000000 	andeq	r0, r0, r0

20001628 <WS28xx::s_pThis>:
20001628:	00000000 	andeq	r0, r0, r0

2000162c <s_tmp>:
2000162c:	00000000 	andeq	r0, r0, r0

20001630 <Network::s_pThis>:
20001630:	00000000 	andeq	r0, r0, r0

20001634 <DisplayUdf::s_pThis>:
20001634:	00000000 	andeq	r0, r0, r0

20001638 <ConfigStore::s_pThis>:
20001638:	00000000 	andeq	r0, r0, r0

2000163c <ConfigStore::s_SpiFlashData>:
	...

2000263c <ConfigStore::s_nWaitMillis>:
2000263c:	00000000 	andeq	r0, r0, r0

20002640 <ConfigStore::s_nSpiFlashStoreSize>:
20002640:	00000000 	andeq	r0, r0, r0

20002644 <ConfigStore::s_nStartAddress>:
20002644:	00000000 	andeq	r0, r0, r0

20002648 <ConfigStore::s_State>:
20002648:	00000000 	andeq	r0, r0, r0

2000264c <ConfigStore::s_bHaveFlashChip>:
2000264c:	00000000 	andeq	r0, r0, r0

20002650 <FlashCode::s_pThis>:
20002650:	00000000 	andeq	r0, r0, r0

20002654 <flashcode::s_isBank0>:
20002654:	00000000 	andeq	r0, r0, r0

20002658 <flashcode::s_pData>:
20002658:	00000000 	andeq	r0, r0, r0

2000265c <flashcode::s_nAddress>:
2000265c:	00000000 	andeq	r0, r0, r0

20002660 <flashcode::s_nLength>:
20002660:	00000000 	andeq	r0, r0, r0

20002664 <flashcode::s_nPage>:
20002664:	00000000 	andeq	r0, r0, r0

20002668 <flashcode::s_State>:
20002668:	00000000 	andeq	r0, r0, r0

2000266c <Display::s_pThis>:
2000266c:	00000000 	andeq	r0, r0, r0

20002670 <Ssd1306::s_pThis>:
20002670:	00000000 	andeq	r0, r0, r0

20002674 <_ClearBuffer>:
	...

200026fc <FirmwareVersion::s_pThis>:
200026fc:	00000000 	andeq	r0, r0, r0

20002700 <FirmwareVersion::s_Print>:
	...

20002740 <FirmwareVersion::s_FirmwareVersion>:
	...

20002758 <Hardware::s_pThis>:
20002758:	00000000 	andeq	r0, r0, r0

2000275c <HwClock::s_pThis>:
2000275c:	00000000 	andeq	r0, r0, r0

20002760 <Tm>:
	...

20002784 <s_tv>:
	...

2000278c <set_timer>:
2000278c:	00000000 	andeq	r0, r0, r0

20002790 <s_nAddress>:
20002790:	00000000 	andeq	r0, r0, r0

20002794 <s_TxBuffer>:
	...

20008794 <s_nSysTickMillis>:
20008794:	00000000 	andeq	r0, r0, r0

Disassembly of section .heap:

20008798 <heap_low>:
	...
